
DE2_115_SD_CARD.elf:     file format elf32-littlenios2
DE2_115_SD_CARD.elf
architecture: nios2, flags 0x00000112:
EXEC_P, HAS_SYMS, D_PAGED
start address 0x020401b4

Program Header:
    LOAD off    0x00001000 vaddr 0x02040000 paddr 0x02040000 align 2**12
         filesz 0x00000020 memsz 0x00000020 flags r-x
    LOAD off    0x00001020 vaddr 0x02040020 paddr 0x02040020 align 2**12
         filesz 0x00016fd0 memsz 0x00016fd0 flags r-x
    LOAD off    0x00017ff0 vaddr 0x02056ff0 paddr 0x02058d18 align 2**12
         filesz 0x00001d28 memsz 0x00001d28 flags rw-
    LOAD off    0x0001aa40 vaddr 0x0205aa40 paddr 0x0205aa40 align 2**12
         filesz 0x00000000 memsz 0x00000324 flags rw-

Sections:
Idx Name          Size      VMA       LMA       File off  Algn
  0 .entry        00000020  02040000  02040000  00001000  2**5
                  CONTENTS, ALLOC, LOAD, READONLY, CODE
  1 .exceptions   00000194  02040020  02040020  00001020  2**2
                  CONTENTS, ALLOC, LOAD, READONLY, CODE
  2 .text         000163b0  020401b4  020401b4  000011b4  2**2
                  CONTENTS, ALLOC, LOAD, READONLY, CODE
  3 .rodata       00000a8c  02056564  02056564  00017564  2**2
                  CONTENTS, ALLOC, LOAD, READONLY, DATA
  4 .rwdata       00001d28  02056ff0  02058d18  00017ff0  2**2
                  CONTENTS, ALLOC, LOAD, DATA, SMALL_DATA
  5 .bss          00000324  0205aa40  0205aa40  0001aa40  2**2
                  ALLOC, SMALL_DATA
  6 .comment      00000023  00000000  00000000  00019d18  2**0
                  CONTENTS, READONLY
  7 .debug_aranges 00001138  00000000  00000000  00019d40  2**3
                  CONTENTS, READONLY, DEBUGGING
  8 .debug_pubnames 00002133  00000000  00000000  0001ae78  2**0
                  CONTENTS, READONLY, DEBUGGING
  9 .debug_info   00032d65  00000000  00000000  0001cfab  2**0
                  CONTENTS, READONLY, DEBUGGING
 10 .debug_abbrev 0000ac0b  00000000  00000000  0004fd10  2**0
                  CONTENTS, READONLY, DEBUGGING
 11 .debug_line   0001ce14  00000000  00000000  0005a91b  2**0
                  CONTENTS, READONLY, DEBUGGING
 12 .debug_frame  00002ae8  00000000  00000000  00077730  2**2
                  CONTENTS, READONLY, DEBUGGING
 13 .debug_str    00002a68  00000000  00000000  0007a218  2**0
                  CONTENTS, READONLY, DEBUGGING
 14 .debug_loc    0000df57  00000000  00000000  0007cc80  2**0
                  CONTENTS, READONLY, DEBUGGING
 15 .debug_alt_sim_info 00000060  00000000  00000000  0008abd8  2**2
                  CONTENTS, READONLY, DEBUGGING
 16 .debug_ranges 00000ab0  00000000  00000000  0008ac38  2**3
                  CONTENTS, READONLY, DEBUGGING
 17 .thread_model 00000003  00000000  00000000  0008feb0  2**0
                  CONTENTS, READONLY
 18 .cpu          00000003  00000000  00000000  0008feb3  2**0
                  CONTENTS, READONLY
 19 .qsys         00000001  00000000  00000000  0008feb6  2**0
                  CONTENTS, READONLY
 20 .simulation_enabled 00000001  00000000  00000000  0008feb7  2**0
                  CONTENTS, READONLY
 21 .stderr_dev   00000009  00000000  00000000  0008feb8  2**0
                  CONTENTS, READONLY
 22 .stdin_dev    00000009  00000000  00000000  0008fec1  2**0
                  CONTENTS, READONLY
 23 .stdout_dev   00000009  00000000  00000000  0008feca  2**0
                  CONTENTS, READONLY
 24 .sopc_system_name 00000014  00000000  00000000  0008fed3  2**0
                  CONTENTS, READONLY
 25 .quartus_project_dir 0000002e  00000000  00000000  0008fee7  2**0
                  CONTENTS, READONLY
 26 .jdi          000056a1  00000000  00000000  0008ff15  2**0
                  CONTENTS, READONLY
 27 .sopcinfo     000bd4ca  00000000  00000000  000955b6  2**0
                  CONTENTS, READONLY
SYMBOL TABLE:
02040000 l    d  .entry	00000000 .entry
02040020 l    d  .exceptions	00000000 .exceptions
020401b4 l    d  .text	00000000 .text
02056564 l    d  .rodata	00000000 .rodata
02056ff0 l    d  .rwdata	00000000 .rwdata
0205aa40 l    d  .bss	00000000 .bss
00000000 l    d  .comment	00000000 .comment
00000000 l    d  .debug_aranges	00000000 .debug_aranges
00000000 l    d  .debug_pubnames	00000000 .debug_pubnames
00000000 l    d  .debug_info	00000000 .debug_info
00000000 l    d  .debug_abbrev	00000000 .debug_abbrev
00000000 l    d  .debug_line	00000000 .debug_line
00000000 l    d  .debug_frame	00000000 .debug_frame
00000000 l    d  .debug_str	00000000 .debug_str
00000000 l    d  .debug_loc	00000000 .debug_loc
00000000 l    d  .debug_alt_sim_info	00000000 .debug_alt_sim_info
00000000 l    d  .debug_ranges	00000000 .debug_ranges
020401fc l       .text	00000000 alt_after_alt_main
00000000 l    df *ABS*	00000000 alt_irq_handler.c
00000000 l    df *ABS*	00000000 main.c
00000000 l    df *ABS*	00000000 FatFileSystem.c
00000000 l    df *ABS*	00000000 FatInternal.c
020566cc l     O .rodata	00000011 C.32.3818
020566dd l     O .rodata	0000000f C.35.3847
00000000 l    df *ABS*	00000000 debug.c
00000000 l    df *ABS*	00000000 crc16.c
020566fc l     O .rodata	00000200 crc16tab
00000000 l    df *ABS*	00000000 crc7.c
020568fc l     O .rodata	00000100 crc7_syndrome_table
00000000 l    df *ABS*	00000000 sd_hal.c
00000000 l    df *ABS*	00000000 sd_lib.c
0205aa74 l     O .bss	00000038 gSdInfo
00000000 l    df *ABS*	00000000 sd_protocol.c
00000000 l    df *ABS*	00000000 fp-bit.c
00000000 l    df *ABS*	00000000 fp-bit.c
00000000 l    df *ABS*	00000000 fp-bit.c
00000000 l    df *ABS*	00000000 fp-bit.c
00000000 l    df *ABS*	00000000 fp-bit.c
00000000 l    df *ABS*	00000000 dp-bit.c
00000000 l    df *ABS*	00000000 dp-bit.c
00000000 l    df *ABS*	00000000 dp-bit.c
00000000 l    df *ABS*	00000000 dp-bit.c
00000000 l    df *ABS*	00000000 lib2-divmod.c
02045b68 l     F .text	0000007c udivmodsi4
00000000 l    df *ABS*	00000000 libgcc2.c
00000000 l    df *ABS*	00000000 libgcc2.c
00000000 l    df *ABS*	00000000 fp-bit.c
00000000 l    df *ABS*	00000000 fp-bit.c
00000000 l    df *ABS*	00000000 fp-bit.c
00000000 l    df *ABS*	00000000 dp-bit.c
00000000 l    df *ABS*	00000000 dp-bit.c
00000000 l    df *ABS*	00000000 libgcc2.c
00000000 l    df *ABS*	00000000 malloc.c
00000000 l    df *ABS*	00000000 mallocr.c
00000000 l    df *ABS*	00000000 memcpy.c
00000000 l    df *ABS*	00000000 memset.c
00000000 l    df *ABS*	00000000 printf.c
00000000 l    df *ABS*	00000000 putchar.c
00000000 l    df *ABS*	00000000 puts.c
00000000 l    df *ABS*	00000000 sbrkr.c
00000000 l    df *ABS*	00000000 sprintf.c
00000000 l    df *ABS*	00000000 strcasecmp.c
00000000 l    df *ABS*	00000000 strlen.c
00000000 l    df *ABS*	00000000 vfprintf.c
020470c4 l     F .text	00000058 __sprint_r
02056b92 l     O .rodata	00000010 blanks.3452
02056b82 l     O .rodata	00000010 zeroes.3453
00000000 l    df *ABS*	00000000 vsnprintf.c
00000000 l    df *ABS*	00000000 wsetup.c
00000000 l    df *ABS*	00000000 ctype_.c
02056ca3 l     O .rodata	00000180 _ctype_b
00000000 l    df *ABS*	00000000 dtoa.c
0204921c l     F .text	00000218 quorem
00000000 l    df *ABS*	00000000 fflush.c
00000000 l    df *ABS*	00000000 findfp.c
0204ac18 l     F .text	00000058 std
0204ad24 l     F .text	00000008 __fp_lock
0204ad2c l     F .text	00000008 __fp_unlock
00000000 l    df *ABS*	00000000 mallocr.c
00000000 l    df *ABS*	00000000 fvwrite.c
00000000 l    df *ABS*	00000000 fwalk.c
00000000 l    df *ABS*	00000000 impure.c
020573f8 l     O .rwdata	00000400 impure_data
00000000 l    df *ABS*	00000000 int_errno.c
00000000 l    df *ABS*	00000000 locale.c
02058ce0 l     O .rwdata	00000004 charset
02056e48 l     O .rodata	00000030 lconv
00000000 l    df *ABS*	00000000 makebuf.c
00000000 l    df *ABS*	00000000 memchr.c
00000000 l    df *ABS*	00000000 memmove.c
00000000 l    df *ABS*	00000000 mprec.c
02056f90 l     O .rodata	0000000c p05.2458
00000000 l    df *ABS*	00000000 putc.c
00000000 l    df *ABS*	00000000 mallocr.c
00000000 l    df *ABS*	00000000 s_isinfd.c
00000000 l    df *ABS*	00000000 s_isnand.c
00000000 l    df *ABS*	00000000 stdio.c
00000000 l    df *ABS*	00000000 strcmp.c
00000000 l    df *ABS*	00000000 wbuf.c
00000000 l    df *ABS*	00000000 writer.c
00000000 l    df *ABS*	00000000 mallocr.c
00000000 l    df *ABS*	00000000 closer.c
00000000 l    df *ABS*	00000000 fclose.c
00000000 l    df *ABS*	00000000 fstatr.c
00000000 l    df *ABS*	00000000 isattyr.c
00000000 l    df *ABS*	00000000 lseekr.c
00000000 l    df *ABS*	00000000 readr.c
00000000 l    df *ABS*	00000000 libgcc2.c
00000000 l    df *ABS*	00000000 libgcc2.c
00000000 l    df *ABS*	00000000 dp-bit.c
0204e908 l     F .text	00000410 _fpadd_parts
00000000 l    df *ABS*	00000000 dp-bit.c
00000000 l    df *ABS*	00000000 dp-bit.c
00000000 l    df *ABS*	00000000 dp-bit.c
00000000 l    df *ABS*	00000000 dp-bit.c
00000000 l    df *ABS*	00000000 dp-bit.c
00000000 l    df *ABS*	00000000 dp-bit.c
00000000 l    df *ABS*	00000000 dp-bit.c
00000000 l    df *ABS*	00000000 dp-bit.c
00000000 l    df *ABS*	00000000 dp-bit.c
00000000 l    df *ABS*	00000000 dp-bit.c
00000000 l    df *ABS*	00000000 alt_close.c
0204f9a0 l     F .text	00000060 alt_get_errno
00000000 l    df *ABS*	00000000 alt_dev.c
0204fa00 l     F .text	0000002c alt_dev_null_write
00000000 l    df *ABS*	00000000 alt_errno.c
00000000 l    df *ABS*	00000000 alt_fstat.c
0204fb00 l     F .text	00000060 alt_get_errno
00000000 l    df *ABS*	00000000 alt_isatty.c
0204fc20 l     F .text	00000060 alt_get_errno
00000000 l    df *ABS*	00000000 alt_load.c
0204fd00 l     F .text	0000006c alt_load_section
00000000 l    df *ABS*	00000000 alt_lseek.c
0204fe5c l     F .text	00000060 alt_get_errno
00000000 l    df *ABS*	00000000 alt_main.c
00000000 l    df *ABS*	00000000 alt_malloc_lock.c
00000000 l    df *ABS*	00000000 alt_read.c
02050088 l     F .text	00000060 alt_get_errno
00000000 l    df *ABS*	00000000 alt_release_fd.c
00000000 l    df *ABS*	00000000 alt_sbrk.c
02058cfc l     O .rwdata	00000004 heap_end
00000000 l    df *ABS*	00000000 alt_tick.c
00000000 l    df *ABS*	00000000 alt_usleep.c
00000000 l    df *ABS*	00000000 alt_write.c
020504f8 l     F .text	00000060 alt_get_errno
00000000 l    df *ABS*	00000000 alt_sys_init.c
020579ac l     O .rwdata	000000d8 cfi_flash
02057a84 l     O .rwdata	00001060 jtag_uart
02058ae4 l     O .rwdata	00000120 lcd
02058c04 l     O .rwdata	000000c4 rs232
02050628 l     F .text	00000038 alt_dev_reg
00000000 l    df *ABS*	00000000 altera_avalon_cfi_flash.c
020506fc l     F .text	00000038 alt_flash_device_register
00000000 l    df *ABS*	00000000 altera_avalon_cfi_flash_table.c
020514ec l     F .text	0000007c alt_read_16bit_query_entry
00000000 l    df *ABS*	00000000 altera_avalon_jtag_uart_fd.c
00000000 l    df *ABS*	00000000 altera_avalon_jtag_uart_init.c
02052578 l     F .text	00000228 altera_avalon_jtag_uart_irq
020527a0 l     F .text	000000b0 altera_avalon_jtag_uart_timeout
00000000 l    df *ABS*	00000000 altera_avalon_jtag_uart_ioctl.c
00000000 l    df *ABS*	00000000 altera_avalon_jtag_uart_read.c
00000000 l    df *ABS*	00000000 altera_avalon_jtag_uart_write.c
00000000 l    df *ABS*	00000000 altera_avalon_lcd_16207.c
02058d08 l     O .rwdata	00000004 colstart
02052e1c l     F .text	000000b8 lcd_write_command
02052ed4 l     F .text	000000d4 lcd_write_data
02052fa8 l     F .text	000000c4 lcd_clear_screen
0205306c l     F .text	000001ec lcd_repaint_screen
02053258 l     F .text	000000c8 lcd_scroll_up
02053320 l     F .text	000002d0 lcd_handle_escape
02053afc l     F .text	000000cc alt_lcd_16207_timeout
00000000 l    df *ABS*	00000000 altera_avalon_lcd_16207_fd.c
00000000 l    df *ABS*	00000000 altera_avalon_timer_sc.c
02053d5c l     F .text	00000070 alt_avalon_timer_sc_irq
00000000 l    df *ABS*	00000000 altera_avalon_uart_fd.c
00000000 l    df *ABS*	00000000 altera_avalon_uart_init.c
0205401c l     F .text	0000009c altera_avalon_uart_irq
020540b8 l     F .text	000000e0 altera_avalon_uart_rxirq
02054198 l     F .text	0000015c altera_avalon_uart_txirq
00000000 l    df *ABS*	00000000 altera_avalon_uart_read.c
02054584 l     F .text	00000060 alt_get_errno
00000000 l    df *ABS*	00000000 altera_avalon_uart_write.c
020547ac l     F .text	00000060 alt_get_errno
00000000 l    df *ABS*	00000000 alt_alarm_start.c
00000000 l    df *ABS*	00000000 alt_busy_sleep.c
00000000 l    df *ABS*	00000000 alt_dcache_flush.c
00000000 l    df *ABS*	00000000 alt_dcache_flush_all.c
00000000 l    df *ABS*	00000000 alt_dev_llist_insert.c
02054c1c l     F .text	00000060 alt_get_errno
00000000 l    df *ABS*	00000000 alt_do_ctors.c
00000000 l    df *ABS*	00000000 alt_do_dtors.c
00000000 l    df *ABS*	00000000 alt_flash_dev.c
00000000 l    df *ABS*	00000000 alt_icache_flush_all.c
00000000 l    df *ABS*	00000000 alt_iic.c
00000000 l    df *ABS*	00000000 alt_iic_isr_register.c
00000000 l    df *ABS*	00000000 alt_io_redirect.c
02055110 l     F .text	000000c4 alt_open_fd
00000000 l    df *ABS*	00000000 alt_irq_vars.c
00000000 l    df *ABS*	00000000 alt_open.c
0205524c l     F .text	000000dc alt_file_locked
020554b0 l     F .text	00000060 alt_get_errno
00000000 l    df *ABS*	00000000 altera_nios2_qsys_irq.c
00000000 l    df *ABS*	00000000 altera_avalon_cfi_flash_amd.c
020558d4 l     F .text	000000bc alt_write_word_amd
020557b0 l     F .text	00000124 alt_wait_for_command_to_complete_amd
00000000 l    df *ABS*	00000000 altera_avalon_cfi_flash_intel.c
02055b88 l     F .text	0000018c alt_unlock_block_intel
02055d14 l     F .text	000000dc alt_write_word_intel
00000000 l    df *ABS*	00000000 alt_find_dev.c
00000000 l    df *ABS*	00000000 alt_find_file.c
00000000 l    df *ABS*	00000000 alt_get_fd.c
00000000 l    df *ABS*	00000000 alt_icache_flush.c
00000000 l    df *ABS*	00000000 atexit.c
00000000 l    df *ABS*	00000000 exit.c
00000000 l    df *ABS*	00000000 memcmp.c
00000000 l    df *ABS*	00000000 __atexit.c
00000000 l    df *ABS*	00000000 __call_atexit.c
020562e0 l     F .text	00000004 register_fini
00000000 l    df *ABS*	00000000 alt_exit.c
02056494 l     F .text	00000040 alt_sim_halt
02046d84 g     F .text	0000001c putchar
0204c15c g     F .text	00000094 _mprec_log10
0204c248 g     F .text	00000088 __any_on
0204dc1c g     F .text	00000070 _isatty_r
02056f68 g     O .rodata	00000028 __mprec_tinytens
0204febc g     F .text	0000006c alt_main
02046da8 g     F .text	000000a0 _puts_r
02050fac g     F .text	00000048 alt_read_query_entry_32bit
020406cc g     F .text	0000007c Fat_FileBrowseBegin
0205aad4 g     O .bss	00000100 alt_irq
0204dc8c g     F .text	00000078 _lseek_r
02050734 g     F .text	000002c0 alt_flash_cfi_write
02058d18 g       *ABS*	00000000 __flash_rwdata_start
0204f1d0 g     F .text	00000088 __eqdf2
02043c78 g     F .text	00000090 SDLIB_WriteBlock512
0205ad64 g       *ABS*	00000000 __alt_heap_start
02046d0c g     F .text	00000044 printf
02045160 g     F .text	000001a4 SD_CMD24
0204d59c g     F .text	00000068 __sseek
0204ac80 g     F .text	000000a4 __sinit
0204d79c g     F .text	00000130 __swbuf_r
0204b958 g     F .text	00000084 _setlocale_r
0204ad80 g     F .text	00000068 __sfmoreglue
0204ff48 g     F .text	00000020 __malloc_unlock
02040748 g     F .text	000004f8 Fat_FileBrowseNext
020455dc g     F .text	00000174 __divsf3
02042d64 g     F .text	0000002c SDHAL_IsSupport4Bits
02042ca4 g     F .text	0000004c crc7_byte
02042090 g     F .text	000000a8 fatIsValidDir
0204bc70 g     F .text	000000e0 memmove
0204ad70 g     F .text	00000010 _cleanup
0204c2d0 g     F .text	000000bc _Balloc
0204f2e0 g     F .text	00000088 __gtdf2
00000000  w      *UND*	00000000 __errno
02051138 g     F .text	00000048 alt_write_flash_command_32bit_device_16bit_mode
02040000 g     F .entry	0000001c __reset
02042ec0 g     F .text	00000278 SDHAL_GetResponse
02040020 g       *ABS*	00000000 __flash_exceptions_start
0204dba8 g     F .text	00000074 _fstat_r
02050c50 g     F .text	000002d8 alt_flash_program_block
0205aa4c g     O .bss	00000004 errno
02045abc g     F .text	00000038 __make_dp
02041adc g     F .text	00000158 fatNextCluster
02045ff4 g     F .text	0000002c __make_fp
0205aa60 g     O .bss	00000004 alt_argv
02060cc8 g       *ABS*	00000000 _gp
020503a8 g     F .text	00000030 usleep
0205782c g     O .rwdata	00000180 alt_fd_list
02046da0 g     F .text	00000008 _putchar_r
02055df0 g     F .text	00000094 alt_find_dev
02046bd4 g     F .text	000000a0 memcpy
0204ad64 g     F .text	0000000c _cleanup_r
0204f478 g     F .text	000000f8 __floatsidf
020551d4 g     F .text	00000078 alt_io_redirect
0204f3f0 g     F .text	00000088 __ltdf2
02056564 g       *ABS*	00000000 __DTOR_END__
02040f20 g     F .text	000000b0 Fat_FileExist
02046e48 g     F .text	00000014 puts
02044290 g     F .text	000001a4 SD_CMD2
0204c0ac g     F .text	000000b0 __ratio
020529b8 g     F .text	00000224 altera_avalon_jtag_uart_read
02046480 g     F .text	00000014 malloc
02046d50 g     F .text	00000034 _printf_r
02045ca4 g     F .text	00000008 __udivsi3
0204fb60 g     F .text	000000c0 isatty
02056e78 g     O .rodata	000000c8 __mprec_tens
02044e40 g     F .text	0000017c SD_ACMD42
0204b934 g     F .text	00000008 __locale_charset
020490a0 g     F .text	00000040 vsnprintf
0205605c g     F .text	00000090 alt_icache_flush
0205aa40 g     O .bss	00000004 __malloc_top_pad
02058cdc g     O .rwdata	00000004 __mb_cur_max
0204b93c g     F .text	0000000c _localeconv_r
02044980 g     F .text	00000188 SD_CMD7
0204c9c8 g     F .text	0000003c __i2b
0204b318 g     F .text	0000049c __sfvwrite_r
02046e5c g     F .text	00000070 _sbrk_r
02055990 g     F .text	00000084 alt_program_intel
02044b08 g     F .text	000001a0 SD_CMD16
02045384 g     F .text	00000078 ArrayToU32
0204dd04 g     F .text	00000078 _read_r
02054aac g     F .text	00000078 alt_dcache_flush
020577f8 g     O .rwdata	0000000c __lc_ctype
02058cf4 g     O .rwdata	00000004 alt_max_fd
02050f28 g     F .text	00000040 alt_read_query_entry_8bit
020425cc g     F .text	00000300 fatMount
02046334 g     F .text	00000138 __unpack_d
0204da84 g     F .text	00000110 _fclose_r
02055a14 g     F .text	00000174 alt_erase_block_intel
0204abe4 g     F .text	00000034 fflush
0205aa44 g     O .bss	00000004 __malloc_max_sbrked_mem
02045750 g     F .text	00000054 __extendsfdf2
0204ed98 g     F .text	00000074 __adddf3
02042138 g     F .text	00000050 fatIsUnusedDir
0204bf8c g     F .text	00000120 __b2d
0204e358 g     F .text	000005b0 __umoddi3
0204fd6c g     F .text	000000f0 lseek
02058cd8 g     O .rwdata	00000004 _global_impure_ptr
0204cf30 g     F .text	000005f4 _realloc_r
0205ad64 g       *ABS*	00000000 __bss_end
02055018 g     F .text	000000f8 alt_iic_isr_register
0205029c g     F .text	0000010c alt_tick
0204dd7c g     F .text	000005dc __udivdi3
02056f40 g     O .rodata	00000028 __mprec_bigtens
0204cc24 g     F .text	00000120 __s2b
0204f648 g     F .text	00000194 __floatunsidf
0204beac g     F .text	00000060 __mcmp
02053f54 g     F .text	000000c8 altera_avalon_uart_init
02058cd0 g     O .rwdata	00000004 __ctype_ptr
020428cc g     F .text	0000003c SD_ReadBlock512
0204ad4c g     F .text	00000018 __fp_lock_all
02054fd0 g     F .text	00000048 alt_ic_irq_enabled
02040fd0 g     F .text	00000128 Fat_FileOpen
02050204 g     F .text	00000098 alt_alarm_stop
0205aa70 g     O .bss	00000004 alt_irq_active
02041dac g     F .text	000001e4 fatDelClusterList
020400ec g     F .exceptions	000000c8 alt_irq_handler
02057804 g     O .rwdata	00000028 alt_dev_null
02042de0 g     F .text	000000e0 SDHAL_SendCmd
02045f2c g     F .text	000000c8 __unpack_f
02051440 g     F .text	000000ac alt_set_flash_algorithm_func
02054b24 g     F .text	00000044 alt_dcache_flush_all
0204bd78 g     F .text	00000070 __hi0bits
02043138 g     F .text	0000051c SDHAL_ReadData
0204f570 g     F .text	000000d8 __fixdfsi
02050ff4 g     F .text	0000003c alt_write_flash_command_8bit_device_8bit_mode
02058d18 g       *ABS*	00000000 __ram_rwdata_end
02058cec g     O .rwdata	00000008 alt_dev_list
020405c8 g     F .text	00000048 Fat_Mount
020503d8 g     F .text	00000120 write
0204ce48 g     F .text	000000e8 _putc_r
02056ff0 g       *ABS*	00000000 __ram_rodata_end
0204fa2c g     F .text	000000d4 fstat
02042a98 g     F .text	00000060 myprintf
02052294 g     F .text	000000dc alt_check_primary_table
0204cb04 g     F .text	00000120 __pow5mult
0205aa50 g     O .bss	00000004 __nlocale_changed
02045cac g     F .text	00000008 __umodsi3
02050a84 g     F .text	00000068 alt_flash_cfi_read
020511c8 g     F .text	00000034 alt_write_native_8bit
0205ad64 g       *ABS*	00000000 end
02045dcc g     F .text	00000160 __pack_f
02051030 g     F .text	0000007c alt_write_flash_command_16bit_device_8bit_mode
020535f0 g     F .text	0000050c altera_avalon_lcd_16207_write
020545e4 g     F .text	000001c8 altera_avalon_uart_write
02051568 g     F .text	00000580 alt_read_cfi_table
020524b8 g     F .text	000000c0 altera_avalon_jtag_uart_init
02056560 g       *ABS*	00000000 __CTOR_LIST__
02080000 g       *ABS*	00000000 __alt_stack_pointer
02053dcc g     F .text	00000090 alt_avalon_timer_sc_init
02053eb4 g     F .text	00000058 altera_avalon_uart_write_fd
02045d4c g     F .text	00000080 __clzsi2
02053f0c g     F .text	00000048 altera_avalon_uart_close_fd
02052bdc g     F .text	00000240 altera_avalon_jtag_uart_write
0204171c g     F .text	00000044 Fat_FileClose
02050660 g     F .text	0000009c alt_flash_cfi_init
0204ac70 g     F .text	00000004 __sfp_lock_acquire
02040c40 g     F .text	00000068 Fat_FileCount
0204bb8c g     F .text	000000e4 memchr
0204711c g     F .text	00001eac ___vfprintf_internal_r
02046f40 g     F .text	00000060 _sprintf_r
0204b004 g     F .text	00000314 _free_r
020562e4 g     F .text	000001b0 __call_exitprocs
0205aa54 g     O .bss	00000004 __mlocale_changed
02058ccc g     O .rwdata	00000004 __malloc_sbrk_base
020401b4 g     F .text	0000004c _start
0205aa68 g     O .bss	00000004 _alt_tick_rate
0204c694 g     F .text	0000014c __lshift
0205aa6c g     O .bss	00000004 _alt_nticks
02043d58 g     F .text	00000080 SD_CMD0
0204ff68 g     F .text	00000120 read
0205058c g     F .text	0000009c alt_sys_init
020561ac g     F .text	00000134 __register_exitproc
020437f8 g     F .text	00000054 SDHAL_DummyClock
020410f8 g     F .text	00000050 Fat_FileSize
02050f68 g     F .text	00000044 alt_read_query_entry_16bit
02042bfc g     F .text	000000a8 crc16
0204c7e0 g     F .text	000001e8 __multiply
02043d08 g     F .text	00000028 SD_Init
02052850 g     F .text	00000074 altera_avalon_jtag_uart_close
02056ff0 g       *ABS*	00000000 __ram_rwdata_start
02056564 g       *ABS*	00000000 __ram_rodata_start
0205aaac g     O .bss	00000028 __malloc_current_mallinfo
02051260 g     F .text	000001e0 alt_set_flash_width_func
0204c38c g     F .text	0000017c __d2b
02046fa0 g     F .text	000000b0 strcasecmp
02052370 g     F .text	00000058 altera_avalon_jtag_uart_read_fd
02055fa4 g     F .text	000000b8 alt_get_fd
02054960 g     F .text	0000014c alt_busy_sleep
0204f7dc g     F .text	000000c8 __fpcmp_parts_d
0204da14 g     F .text	00000070 _close_r
02055598 g     F .text	00000218 alt_erase_block_amd
02041148 g     F .text	000004b0 Fat_FileRead
02056138 g     F .text	00000074 memcmp
02052420 g     F .text	00000048 altera_avalon_jtag_uart_close_fd
0205ad64 g       *ABS*	00000000 __alt_stack_base
02052468 g     F .text	00000050 altera_avalon_jtag_uart_ioctl_fd
020424b8 g     F .text	00000114 fatFindUnusedDirectory
02042d90 g     F .text	00000050 SDHAL_Init
020490e0 g     F .text	0000013c __swsetup_r
02051ae8 g     F .text	000007ac alt_read_cfi_width
02045864 g     F .text	00000258 __divdf3
0204ade8 g     F .text	000000f0 __sfp
0204c1f0 g     F .text	00000058 __copybits
02056ff0 g     O .rwdata	00000408 __malloc_av_
0204ac7c g     F .text	00000004 __sinit_lock_release
02048fec g     F .text	000000b4 _vsnprintf_r
0204ee0c g     F .text	000003c4 __muldf3
0204d680 g     F .text	00000060 __sread
020569fc g     O .rodata	00000010 __thenan_sf
02041760 g     F .text	000001f0 Fat_SpeedTest
02055e84 g     F .text	00000120 alt_find_file
02054b68 g     F .text	000000b4 alt_dev_llist_insert
0204ff28 g     F .text	00000020 __malloc_lock
02050148 g     F .text	000000bc sbrk
0204a9e8 g     F .text	000001fc _fflush_r
0204d960 g     F .text	000000b4 _calloc_r
02058d0c g     O .rwdata	00000008 alt_flash_dev_list
020510f4 g     F .text	00000044 alt_write_flash_command_16bit_device_16bit_mode
02042418 g     F .text	000000a0 fatFindDirectory
0205aa40 g       *ABS*	00000000 __bss_start
02046c74 g     F .text	00000098 memset
020404c4 g     F .text	00000104 main
02042388 g     F .text	00000090 fatReadSecter
0205aa64 g     O .bss	00000004 alt_envp
0205aa48 g     O .bss	00000004 __malloc_max_total_mem
02042af8 g     F .text	00000080 myprintf_hexarray
020523c8 g     F .text	00000058 altera_avalon_jtag_uart_write_fd
0204d8cc g     F .text	0000001c __swbuf
02053bc8 g     F .text	0000013c altera_avalon_lcd_16207_init
0204d594 g     F .text	00000008 __sclose
02042188 g     F .text	00000174 fatDump
02080000 g       *ABS*	00000000 __alt_heap_limit
0204db94 g     F .text	00000014 fclose
02045af4 g     F .text	00000074 __truncdfsf2
0205abd4 g     O .bss	00000190 _atexit0
02049434 g     F .text	000015b4 _dtoa_r
02046494 g     F .text	00000740 _malloc_r
02045344 g     F .text	00000040 SD_WriteData
02058cf8 g     O .rwdata	00000004 alt_errno
02051180 g     F .text	00000048 alt_write_flash_command_32bit_device_32bit_mode
0204b87c g     F .text	000000b8 _fwalk
02050aec g     F .text	00000164 alt_write_value_to_flash
02041f90 g     F .text	00000058 fatDumpDate
020511fc g     F .text	00000034 alt_write_native_16bit
02042cf0 g     F .text	00000074 crc7
0204cd44 g     F .text	00000104 putc
020415f8 g     F .text	00000124 Fat_FileSeek
02045be4 g     F .text	00000060 __divsi3
02044ca8 g     F .text	00000198 SD_ACMD6
01800000 g       *ABS*	00000000 __alt_mem_cfi_flash
02056a0c g     O .rodata	00000014 __thenan_df
0204aed8 g     F .text	0000012c _malloc_trim_r
02056564 g       *ABS*	00000000 __CTOR_END__
020453fc g     F .text	000001e0 __mulsf3
0204d6e0 g     F .text	000000bc strcmp
02042908 g     F .text	0000003c SD_WriteBlock512
02056564 g       *ABS*	00000000 __flash_rodata_start
02056564 g       *ABS*	00000000 __DTOR_LIST__
020422fc g     F .text	0000008c fatArray2Value
02043d30 g     F .text	00000028 SD_IsSupport4Bits
0204f258 g     F .text	00000088 __nedf2
02041a08 g     F .text	000000d4 fat32ClusterType
02050558 g     F .text	00000034 alt_irq_init
020500e8 g     F .text	00000060 alt_release_fd
02046ecc g     F .text	00000074 sprintf
02056a20 g     O .rodata	00000100 __clz_tab
02042a68 g     F .text	00000030 debug_output
0205aa58 g     O .bss	00000004 _PathLocale
020440ec g     F .text	000001a4 SD_ACMD41
020560ec g     F .text	00000014 atexit
0204d8e8 g     F .text	00000078 _write_r
02043dd8 g     F .text	00000190 SD_CMD8
02040d48 g     F .text	000001d8 fatComposeShortFilename
0204b9dc g     F .text	0000001c setlocale
02058cd4 g     O .rwdata	00000004 _impure_ptr
0205aa5c g     O .bss	00000004 alt_argc
02054ce0 g     F .text	00000064 _do_dtors
0204065c g     F .text	00000070 Fat_Type
02042b78 g     F .text	00000084 myprintf_dwordarray
02040020 g       .exceptions	00000000 alt_irq_entry
0204bf0c g     F .text	00000080 __ulp
0204d524 g     F .text	00000040 __isinfd
0204ad34 g     F .text	00000018 __fp_unlock_all
02040200 g     F .text	000002c4 Fat_Test
02041950 g     F .text	000000b8 fat16ClusterType
02053d04 g     F .text	00000058 altera_avalon_lcd_16207_write_fd
02058ce4 g     O .rwdata	00000008 alt_fs_list
02043f68 g     F .text	00000184 SD_CMD55
020510ac g     F .text	00000048 alt_write_flash_command_32bit_device_8bit_mode
020447ac g     F .text	000001d4 SD_CMD10
02040020 g       *ABS*	00000000 __ram_exceptions_start
0204b948 g     F .text	00000010 localeconv
02040000 g       *ABS*	00000000 __alt_mem_onchip_memory2
02040ca8 g     F .text	000000a0 fatSameLongFilename
02054e44 g     F .text	00000050 alt_ic_isr_register
02058d18 g       *ABS*	00000000 _edata
02041fe8 g     F .text	00000058 fatDumpTime
02053e5c g     F .text	00000058 altera_avalon_uart_read_fd
0205ad64 g       *ABS*	00000000 _end
02054d44 g     F .text	0000007c alt_flash_open_dev
020445d8 g     F .text	000001d4 SD_CMD9
020401b4 g       *ABS*	00000000 __ram_exceptions_end
020528c4 g     F .text	000000f4 altera_avalon_jtag_uart_ioctl
02054f30 g     F .text	000000a0 alt_ic_irq_disable
0204d604 g     F .text	0000007c __swrite
02058cc8 g     O .rwdata	00000004 __malloc_trim_threshold
02055510 g     F .text	00000020 altera_nios2_qsys_irq_init
02056100 g     F .text	00000038 exit
02042944 g     F .text	00000124 fatMountSdcard
0204b7b4 g     F .text	000000c8 _fwalk_reent
020457a4 g     F .text	000000c0 __floatunsisf
0204c508 g     F .text	0000018c __mdiff
02054dc0 g     F .text	00000054 alt_flash_close_dev
02045c44 g     F .text	00000060 __modsi3
02080000 g       *ABS*	00000000 __alt_data_end
02040020 g     F .exceptions	00000000 alt_exception
0204ac74 g     F .text	00000004 __sfp_lock_release
0204384c g     F .text	0000039c SDLIB_Init
02056ba2 g     O .rodata	00000101 _ctype_
02044fbc g     F .text	000001a4 SD_CMD17
020542f4 g     F .text	00000060 altera_avalon_uart_close
020564d4 g     F .text	00000020 _exit
0204d564 g     F .text	00000030 __isnand
0205480c g     F .text	00000154 alt_alarm_start
02045cb4 g     F .text	00000098 __muldi3
0204b9f8 g     F .text	00000194 __smakebuf_r
02051230 g     F .text	00000030 alt_write_native_32bit
02047050 g     F .text	00000074 strlen
02055328 g     F .text	00000188 open
0204f368 g     F .text	00000088 __gedf2
020509f4 g     F .text	00000090 alt_flash_cfi_get_info
02054e14 g     F .text	00000030 alt_icache_flush_all
02058d14 g     O .rwdata	00000004 alt_priority_mask
02054e94 g     F .text	0000009c alt_ic_irq_enable
02043654 g     F .text	000001a4 SDHAL_WriteData
02048fc8 g     F .text	00000024 __vfprintf_internal
02041c34 g     F .text	00000178 fatFindUnusedCluster
02054354 g     F .text	00000230 altera_avalon_uart_read
0204ed18 g     F .text	00000080 __subdf3
0204bde8 g     F .text	000000c4 __lo0bits
02058d00 g     O .rwdata	00000008 alt_alarm_list
02054c7c g     F .text	00000064 _do_ctors
02045304 g     F .text	00000040 SD_ReadData
0204f8a4 g     F .text	000000fc close
02055530 g     F .text	00000068 alt_program_amd
02040610 g     F .text	0000004c Fat_Unmount
0204fc80 g     F .text	00000080 alt_load
02046020 g     F .text	00000314 __pack_d
0204646c g     F .text	00000014 free
0204ac78 g     F .text	00000004 __sinit_lock_acquire
0204ca04 g     F .text	00000100 __multadd
02042040 g     F .text	00000050 fatIsLastDir
0204bd50 g     F .text	00000028 _Bfree
02044434 g     F .text	000001a4 SD_CMD3
02043be8 g     F .text	00000090 SDLIB_ReadBlock512



Disassembly of section .entry:

02040000 <__reset>:
#if NIOS2_ICACHE_SIZE > 0 && defined(ALT_ALLOW_CODE_AT_RESET) && !defined(ALT_SIM_OPTIMIZE)
    /* Assume the instruction cache size is always a power of two. */
#if NIOS2_ICACHE_SIZE > 0x8000
    movhi r2, %hi(NIOS2_ICACHE_SIZE)
#else
    movui r2, NIOS2_ICACHE_SIZE
 2040000:	00840014 	movui	r2,4096
#endif

0:
    initi r2
 2040004:	1001483a 	initi	r2
    addi r2, r2, -NIOS2_ICACHE_LINE_SIZE
 2040008:	10bff804 	addi	r2,r2,-32
    bgt r2, zero, 0b
 204000c:	00bffd16 	blt	zero,r2,2040004 <__reset+0x4>
 * Jump to the _start entry point in the .text section if reset code
 * is allowed or if optimizing for RTL simulation.
 */
#if defined(ALT_ALLOW_CODE_AT_RESET) || defined(ALT_SIM_OPTIMIZE)
    /* Jump to the _start entry point in the .text section. */
    movhi r1, %hi(_start)
 2040010:	00408134 	movhi	at,516
    ori r1, r1, %lo(_start)
 2040014:	08406d14 	ori	at,at,436
    jmp r1
 2040018:	0800683a 	jmp	at
 204001c:	00000000 	call	0 <__alt_mem_cfi_flash-0x1800000>

Disassembly of section .exceptions:

02040020 <alt_exception>:
         * Process an exception.  For all exceptions we must preserve all
         * caller saved registers on the stack (See the Nios2 ABI
         * documentation for details).
         */

        addi  sp, sp, -76
 2040020:	deffed04 	addi	sp,sp,-76

#endif

#endif

        stw   ra,  0(sp)
 2040024:	dfc00015 	stw	ra,0(sp)
        /*
         * Leave a gap in the stack frame at 4(sp) for the muldiv handler to
         * store zero into.
         */

        stw   r1,   8(sp)
 2040028:	d8400215 	stw	at,8(sp)
        stw   r2,  12(sp)
 204002c:	d8800315 	stw	r2,12(sp)
        stw   r3,  16(sp)
 2040030:	d8c00415 	stw	r3,16(sp)
        stw   r4,  20(sp)
 2040034:	d9000515 	stw	r4,20(sp)
        stw   r5,  24(sp)
 2040038:	d9400615 	stw	r5,24(sp)
        stw   r6,  28(sp)
 204003c:	d9800715 	stw	r6,28(sp)
        stw   r7,  32(sp)
 2040040:	d9c00815 	stw	r7,32(sp)

        rdctl r5, estatus
 2040044:	000b307a 	rdctl	r5,estatus

        stw   r8,  36(sp)
 2040048:	da000915 	stw	r8,36(sp)
        stw   r9,  40(sp)
 204004c:	da400a15 	stw	r9,40(sp)
        stw   r10, 44(sp)
 2040050:	da800b15 	stw	r10,44(sp)
        stw   r11, 48(sp)
 2040054:	dac00c15 	stw	r11,48(sp)
        stw   r12, 52(sp)
 2040058:	db000d15 	stw	r12,52(sp)
        stw   r13, 56(sp)
 204005c:	db400e15 	stw	r13,56(sp)
        stw   r14, 60(sp)
 2040060:	db800f15 	stw	r14,60(sp)
        stw   r15, 64(sp)
 2040064:	dbc01015 	stw	r15,64(sp)
        /*
         * ea-4 contains the address of the instruction being executed
         * when the exception occured. For interrupt exceptions, we will
         * will be re-issue the isntruction. Store it in 72(sp)
         */
        stw   r5,  68(sp)  /* estatus */
 2040068:	d9401115 	stw	r5,68(sp)
        addi  r15, ea, -4  /* instruction that caused exception */
 204006c:	ebffff04 	addi	r15,ea,-4
        stw   r15,  72(sp)
 2040070:	dbc01215 	stw	r15,72(sp)
#else
        /*
         * Test to see if the exception was a software exception or caused 
         * by an external interrupt, and vector accordingly.
         */
        rdctl r4, ipending
 2040074:	0009313a 	rdctl	r4,ipending
        andi  r2, r5, 1
 2040078:	2880004c 	andi	r2,r5,1
        beq   r2, zero, .Lnot_irq
 204007c:	10000326 	beq	r2,zero,204008c <alt_exception+0x6c>
        beq   r4, zero, .Lnot_irq
 2040080:	20000226 	beq	r4,zero,204008c <alt_exception+0x6c>
        /*
         * Now that all necessary registers have been preserved, call 
         * alt_irq_handler() to process the interrupts.
         */

        call alt_irq_handler
 2040084:	20400ec0 	call	20400ec <alt_irq_handler>

        .section .exceptions.irqreturn, "xa"

        br    .Lexception_exit
 2040088:	00000306 	br	2040098 <alt_exception+0x78>
         * upon completion, so we write ea (address of instruction *after*
         * the one where the exception occured) into 72(sp). The actual
         * instruction that caused the exception is written in r2, which these
         * handlers will utilize.
         */
        stw   ea,  72(sp)  /* Don't re-issue */
 204008c:	df401215 	stw	ea,72(sp)
        ldw   r2, -4(ea)   /* Instruction that caused exception */
 2040090:	e8bfff17 	ldw	r2,-4(ea)
#ifdef NIOS2_HAS_DEBUG_STUB
       /*
        *  Either tell the user now (if there is a debugger attached) or go into
        *  the debug monitor which will loop until a debugger is attached.
        */
        break
 2040094:	003da03a 	break	0
        /* 
         * Restore the saved registers, so that all general purpose registers 
         * have been restored to their state at the time the interrupt occured.
         */

        ldw   r5,  68(sp)
 2040098:	d9401117 	ldw	r5,68(sp)
        ldw   ea,  72(sp)  /* This becomes the PC once eret is executed */
 204009c:	df401217 	ldw	ea,72(sp)
        ldw   ra,   0(sp)
 20400a0:	dfc00017 	ldw	ra,0(sp)

        wrctl estatus, r5
 20400a4:	2801707a 	wrctl	estatus,r5

        ldw   r1,   8(sp)
 20400a8:	d8400217 	ldw	at,8(sp)
        ldw   r2,  12(sp)
 20400ac:	d8800317 	ldw	r2,12(sp)
        ldw   r3,  16(sp)
 20400b0:	d8c00417 	ldw	r3,16(sp)
        ldw   r4,  20(sp)
 20400b4:	d9000517 	ldw	r4,20(sp)
        ldw   r5,  24(sp)
 20400b8:	d9400617 	ldw	r5,24(sp)
        ldw   r6,  28(sp)
 20400bc:	d9800717 	ldw	r6,28(sp)
        ldw   r7,  32(sp)
 20400c0:	d9c00817 	ldw	r7,32(sp)
#ifdef ALT_STACK_CHECK
        ldw   et, %gprel(alt_exception_old_stack_limit)(gp)
#endif
#endif

        ldw   r8,  36(sp)
 20400c4:	da000917 	ldw	r8,36(sp)
        ldw   r9,  40(sp)
 20400c8:	da400a17 	ldw	r9,40(sp)
        ldw   r10, 44(sp)
 20400cc:	da800b17 	ldw	r10,44(sp)
        ldw   r11, 48(sp)
 20400d0:	dac00c17 	ldw	r11,48(sp)
        ldw   r12, 52(sp)
 20400d4:	db000d17 	ldw	r12,52(sp)
        ldw   r13, 56(sp)
 20400d8:	db400e17 	ldw	r13,56(sp)
        ldw   r14, 60(sp)
 20400dc:	db800f17 	ldw	r14,60(sp)
        ldw   r15, 64(sp)
 20400e0:	dbc01017 	ldw	r15,64(sp)
#endif

        ldw   sp,  76(sp)

#else
        addi  sp, sp, 76
 20400e4:	dec01304 	addi	sp,sp,76

        /*
         * Return to the interrupted instruction.
         */

        eret
 20400e8:	ef80083a 	eret

020400ec <alt_irq_handler>:
 * instruction is present if the macro ALT_CI_INTERRUPT_VECTOR defined.
 */

void alt_irq_handler (void) __attribute__ ((section (".exceptions")));
void alt_irq_handler (void)
{
 20400ec:	defff904 	addi	sp,sp,-28
 20400f0:	dfc00615 	stw	ra,24(sp)
 20400f4:	df000515 	stw	fp,20(sp)
 20400f8:	df000504 	addi	fp,sp,20
#ifndef NIOS2_EIC_PRESENT
static ALT_INLINE alt_u32 ALT_ALWAYS_INLINE alt_irq_pending (void)
{
  alt_u32 active;

  NIOS2_READ_IPENDING (active);
 20400fc:	0005313a 	rdctl	r2,ipending
 2040100:	e0bffc15 	stw	r2,-16(fp)

  return active;
 2040104:	e0bffc17 	ldw	r2,-16(fp)
   * Consider the case where the high priority interupt is asserted during
   * the interrupt entry sequence for a lower priority interrupt to see why
   * this is the case.
   */

  active = alt_irq_pending ();
 2040108:	e0bfff15 	stw	r2,-4(fp)

  do
  {
    i = 0;
 204010c:	e03ffd15 	stw	zero,-12(fp)
    mask = 1;
 2040110:	00800044 	movi	r2,1
 2040114:	e0bffe15 	stw	r2,-8(fp)
     * called to clear the interrupt condition.
     */

    do
    {
      if (active & mask)
 2040118:	e0ffff17 	ldw	r3,-4(fp)
 204011c:	e0bffe17 	ldw	r2,-8(fp)
 2040120:	1884703a 	and	r2,r3,r2
 2040124:	1005003a 	cmpeq	r2,r2,zero
 2040128:	1000161e 	bne	r2,zero,2040184 <alt_irq_handler+0x98>
      { 
#ifdef ALT_ENHANCED_INTERRUPT_API_PRESENT
        alt_irq[i].handler(alt_irq[i].context); 
 204012c:	e0bffd17 	ldw	r2,-12(fp)
 2040130:	00c081b4 	movhi	r3,518
 2040134:	18eab504 	addi	r3,r3,-21804
 2040138:	100490fa 	slli	r2,r2,3
 204013c:	10c5883a 	add	r2,r2,r3
 2040140:	11400017 	ldw	r5,0(r2)
 2040144:	e0bffd17 	ldw	r2,-12(fp)
 2040148:	00c081b4 	movhi	r3,518
 204014c:	18eab504 	addi	r3,r3,-21804
 2040150:	100490fa 	slli	r2,r2,3
 2040154:	10c5883a 	add	r2,r2,r3
 2040158:	10800104 	addi	r2,r2,4
 204015c:	11000017 	ldw	r4,0(r2)
 2040160:	283ee83a 	callr	r5
#ifndef NIOS2_EIC_PRESENT
static ALT_INLINE alt_u32 ALT_ALWAYS_INLINE alt_irq_pending (void)
{
  alt_u32 active;

  NIOS2_READ_IPENDING (active);
 2040164:	0005313a 	rdctl	r2,ipending
 2040168:	e0bffb15 	stw	r2,-20(fp)

  return active;
 204016c:	e0bffb17 	ldw	r2,-20(fp)
      mask <<= 1;
      i++;

    } while (1);

    active = alt_irq_pending ();
 2040170:	e0bfff15 	stw	r2,-4(fp)
    
  } while (active);
 2040174:	e0bfff17 	ldw	r2,-4(fp)
 2040178:	1004c03a 	cmpne	r2,r2,zero
 204017c:	103fe31e 	bne	r2,zero,204010c <alt_irq_handler+0x20>
 2040180:	00000706 	br	20401a0 <alt_irq_handler+0xb4>
#else
        alt_irq[i].handler(alt_irq[i].context, i); 
#endif
        break;
      }
      mask <<= 1;
 2040184:	e0bffe17 	ldw	r2,-8(fp)
 2040188:	1085883a 	add	r2,r2,r2
 204018c:	e0bffe15 	stw	r2,-8(fp)
      i++;
 2040190:	e0bffd17 	ldw	r2,-12(fp)
 2040194:	10800044 	addi	r2,r2,1
 2040198:	e0bffd15 	stw	r2,-12(fp)

    } while (1);
 204019c:	003fde06 	br	2040118 <alt_irq_handler+0x2c>
  /*
   * Notify the operating system that interrupt processing is complete.
   */ 

  ALT_OS_INT_EXIT();
}
 20401a0:	e037883a 	mov	sp,fp
 20401a4:	dfc00117 	ldw	ra,4(sp)
 20401a8:	df000017 	ldw	fp,0(sp)
 20401ac:	dec00204 	addi	sp,sp,8
 20401b0:	f800283a 	ret

Disassembly of section .text:

020401b4 <_start>:

    /* Assume the data cache size is always a power of two. */
#if NIOS2_DCACHE_SIZE > 0x8000
    movhi r2, %hi(NIOS2_DCACHE_SIZE)
#else
    movui r2, NIOS2_DCACHE_SIZE
 20401b4:	00820014 	movui	r2,2048
#endif

0:
    initd 0(r2)
 20401b8:	10000033 	initd	0(r2)
    addi r2, r2, -NIOS2_DCACHE_LINE_SIZE
 20401bc:	10bff804 	addi	r2,r2,-32
    bgt r2, zero, 0b
 20401c0:	00bffd16 	blt	zero,r2,20401b8 <_start+0x4>
#if (NIOS2_NUM_OF_SHADOW_REG_SETS == 0)    
    /*
     * Now that the caches are initialized, set up the stack pointer.
     * The value provided by the linker is assumed to be correctly aligned.
     */
    movhi sp, %hi(__alt_stack_pointer)
 20401c4:	06c08234 	movhi	sp,520
    ori sp, sp, %lo(__alt_stack_pointer)
 20401c8:	dec00014 	ori	sp,sp,0

    /* Set up the global pointer. */
    movhi gp, %hi(_gp)
 20401cc:	068081b4 	movhi	gp,518
    ori gp, gp, %lo(_gp)
 20401d0:	d6833214 	ori	gp,gp,3272
 */
#ifndef ALT_SIM_OPTIMIZE
    /* Log that the BSS is about to be cleared. */
    ALT_LOG_PUTS(alt_log_msg_bss)

    movhi r2, %hi(__bss_start)
 20401d4:	00808174 	movhi	r2,517
    ori r2, r2, %lo(__bss_start)
 20401d8:	10aa9014 	ori	r2,r2,43584

    movhi r3, %hi(__bss_end)
 20401dc:	00c08174 	movhi	r3,517
    ori r3, r3, %lo(__bss_end)
 20401e0:	18eb5914 	ori	r3,r3,44388

    beq r2, r3, 1f
 20401e4:	10c00326 	beq	r2,r3,20401f4 <_start+0x40>

0:
    stw zero, (r2)
 20401e8:	10000015 	stw	zero,0(r2)
    addi r2, r2, 4
 20401ec:	10800104 	addi	r2,r2,4
    bltu r2, r3, 0b
 20401f0:	10fffd36 	bltu	r2,r3,20401e8 <_start+0x34>
     * section aren't defined until alt_load() has been called).
     */
    mov   et, zero
#endif

    call alt_load
 20401f4:	204fc800 	call	204fc80 <alt_load>

    /* Log that alt_main is about to be called. */
    ALT_LOG_PUTS(alt_log_msg_alt_main)

    /* Call the C entry point. It should never return. */
    call alt_main
 20401f8:	204febc0 	call	204febc <alt_main>

020401fc <alt_after_alt_main>:

    /* Wait in infinite loop in case alt_main does return. */
alt_after_alt_main:
    br alt_after_alt_main
 20401fc:	003fff06 	br	20401fc <alt_after_alt_main>

02040200 <Fat_Test>:
#include <stdio.h>
#include ".\terasic_lib\terasic_includes.h"
#include ".\terasic_fat\FatFileSystem.h"


bool Fat_Test(FAT_HANDLE hFat, char *pDumpFile){
 2040200:	deff6704 	addi	sp,sp,-612
 2040204:	dfc09815 	stw	ra,608(sp)
 2040208:	df009715 	stw	fp,604(sp)
 204020c:	df009704 	addi	fp,sp,604
 2040210:	e13ffe15 	stw	r4,-8(fp)
 2040214:	e17fff15 	stw	r5,-4(fp)
    bool bSuccess;
    int nCount = 0;
 2040218:	e03f7015 	stw	zero,-576(fp)
    FAT_BROWSE_HANDLE hBrowse;
    FILE_CONTEXT FileContext;
    
    bSuccess = Fat_FileBrowseBegin(hFat, &hBrowse);
 204021c:	e17f7204 	addi	r5,fp,-568
 2040220:	e13ffe17 	ldw	r4,-8(fp)
 2040224:	20406cc0 	call	20406cc <Fat_FileBrowseBegin>
 2040228:	e0bf7115 	stw	r2,-572(fp)
    if (bSuccess){
 204022c:	e0bf7117 	ldw	r2,-572(fp)
 2040230:	1005003a 	cmpeq	r2,r2,zero
 2040234:	10003d1e 	bne	r2,zero,204032c <Fat_Test+0x12c>
        while(Fat_FileBrowseNext(&hBrowse, &FileContext)){
 2040238:	00003706 	br	2040318 <Fat_Test+0x118>
            if (FileContext.bLongFilename){
 204023c:	e0bfb417 	ldw	r2,-304(fp)
 2040240:	1005003a 	cmpeq	r2,r2,zero
 2040244:	10002c1e 	bne	r2,zero,20402f8 <Fat_Test+0xf8>
                alt_u16 *pData16;
                alt_u8 *pData8;
                pData16 = (alt_u16 *)FileContext.szName;
 2040248:	e0bf7404 	addi	r2,fp,-560
 204024c:	e0bf6f15 	stw	r2,-580(fp)
                pData8 = FileContext.szName;
 2040250:	e0bf7404 	addi	r2,fp,-560
 2040254:	e0bf6e15 	stw	r2,-584(fp)
                printf("[%d]", nCount);
 2040258:	01008174 	movhi	r4,517
 204025c:	21195904 	addi	r4,r4,25956
 2040260:	e17f7017 	ldw	r5,-576(fp)
 2040264:	2046d0c0 	call	2046d0c <printf>
                while(*pData16){
 2040268:	00001b06 	br	20402d8 <Fat_Test+0xd8>
                    if (*pData8)
 204026c:	e0bf6e17 	ldw	r2,-584(fp)
 2040270:	10800003 	ldbu	r2,0(r2)
 2040274:	10803fcc 	andi	r2,r2,255
 2040278:	1005003a 	cmpeq	r2,r2,zero
 204027c:	1000041e 	bne	r2,zero,2040290 <Fat_Test+0x90>
                        printf("%c", *pData8);
 2040280:	e0bf6e17 	ldw	r2,-584(fp)
 2040284:	10800003 	ldbu	r2,0(r2)
 2040288:	11003fcc 	andi	r4,r2,255
 204028c:	2046d840 	call	2046d84 <putchar>
                    pData8++;
 2040290:	e0bf6e17 	ldw	r2,-584(fp)
 2040294:	10800044 	addi	r2,r2,1
 2040298:	e0bf6e15 	stw	r2,-584(fp)
                    if (*pData8)
 204029c:	e0bf6e17 	ldw	r2,-584(fp)
 20402a0:	10800003 	ldbu	r2,0(r2)
 20402a4:	10803fcc 	andi	r2,r2,255
 20402a8:	1005003a 	cmpeq	r2,r2,zero
 20402ac:	1000041e 	bne	r2,zero,20402c0 <Fat_Test+0xc0>
                        printf("%c", *pData8);
 20402b0:	e0bf6e17 	ldw	r2,-584(fp)
 20402b4:	10800003 	ldbu	r2,0(r2)
 20402b8:	11003fcc 	andi	r4,r2,255
 20402bc:	2046d840 	call	2046d84 <putchar>
                    pData8++;                    
 20402c0:	e0bf6e17 	ldw	r2,-584(fp)
 20402c4:	10800044 	addi	r2,r2,1
 20402c8:	e0bf6e15 	stw	r2,-584(fp)
                    //    
                    pData16++;
 20402cc:	e0bf6f17 	ldw	r2,-580(fp)
 20402d0:	10800084 	addi	r2,r2,2
 20402d4:	e0bf6f15 	stw	r2,-580(fp)
                alt_u16 *pData16;
                alt_u8 *pData8;
                pData16 = (alt_u16 *)FileContext.szName;
                pData8 = FileContext.szName;
                printf("[%d]", nCount);
                while(*pData16){
 20402d8:	e0bf6f17 	ldw	r2,-580(fp)
 20402dc:	1080000b 	ldhu	r2,0(r2)
 20402e0:	10bfffcc 	andi	r2,r2,65535
 20402e4:	1004c03a 	cmpne	r2,r2,zero
 20402e8:	103fe01e 	bne	r2,zero,204026c <Fat_Test+0x6c>
                        printf("%c", *pData8);
                    pData8++;                    
                    //    
                    pData16++;
                }
                printf("\n");
 20402ec:	01000284 	movi	r4,10
 20402f0:	2046d840 	call	2046d84 <putchar>
 20402f4:	00000506 	br	204030c <Fat_Test+0x10c>
            }else{
                printf("[%d]%s\n", nCount, FileContext.szName);
 20402f8:	e1bf7404 	addi	r6,fp,-560
 20402fc:	01008174 	movhi	r4,517
 2040300:	21195b04 	addi	r4,r4,25964
 2040304:	e17f7017 	ldw	r5,-576(fp)
 2040308:	2046d0c0 	call	2046d0c <printf>
            }                
            nCount++;
 204030c:	e0bf7017 	ldw	r2,-576(fp)
 2040310:	10800044 	addi	r2,r2,1
 2040314:	e0bf7015 	stw	r2,-576(fp)
    FAT_BROWSE_HANDLE hBrowse;
    FILE_CONTEXT FileContext;
    
    bSuccess = Fat_FileBrowseBegin(hFat, &hBrowse);
    if (bSuccess){
        while(Fat_FileBrowseNext(&hBrowse, &FileContext)){
 2040318:	e13f7204 	addi	r4,fp,-568
 204031c:	e17f7404 	addi	r5,fp,-560
 2040320:	20407480 	call	2040748 <Fat_FileBrowseNext>
 2040324:	1004c03a 	cmpne	r2,r2,zero
 2040328:	103fc41e 	bne	r2,zero,204023c <Fat_Test+0x3c>
                printf("[%d]%s\n", nCount, FileContext.szName);
            }                
            nCount++;
        }    
    }
    if (bSuccess && pDumpFile && strlen(pDumpFile)){
 204032c:	e0bf7117 	ldw	r2,-572(fp)
 2040330:	1005003a 	cmpeq	r2,r2,zero
 2040334:	10005d1e 	bne	r2,zero,20404ac <Fat_Test+0x2ac>
 2040338:	e0bfff17 	ldw	r2,-4(fp)
 204033c:	1005003a 	cmpeq	r2,r2,zero
 2040340:	10005a1e 	bne	r2,zero,20404ac <Fat_Test+0x2ac>
 2040344:	e0bfff17 	ldw	r2,-4(fp)
 2040348:	10800003 	ldbu	r2,0(r2)
 204034c:	10803fcc 	andi	r2,r2,255
 2040350:	1080201c 	xori	r2,r2,128
 2040354:	10bfe004 	addi	r2,r2,-128
 2040358:	1005003a 	cmpeq	r2,r2,zero
 204035c:	1000531e 	bne	r2,zero,20404ac <Fat_Test+0x2ac>
        FAT_FILE_HANDLE hFile;
        hFile =  Fat_FileOpen(hFat, pDumpFile);
 2040360:	e13ffe17 	ldw	r4,-8(fp)
 2040364:	e17fff17 	ldw	r5,-4(fp)
 2040368:	2040fd00 	call	2040fd0 <Fat_FileOpen>
 204036c:	e0bf6d15 	stw	r2,-588(fp)
        if (hFile){
 2040370:	e0bf6d17 	ldw	r2,-588(fp)
 2040374:	1005003a 	cmpeq	r2,r2,zero
 2040378:	1000471e 	bne	r2,zero,2040498 <Fat_Test+0x298>
            char szRead[256];
            int nReadSize, nFileSize, nTotalReadSize=0;
 204037c:	e03f6a15 	stw	zero,-600(fp)
            nFileSize = Fat_FileSize(hFile);
 2040380:	e13f6d17 	ldw	r4,-588(fp)
 2040384:	20410f80 	call	20410f8 <Fat_FileSize>
 2040388:	e0bf6b15 	stw	r2,-596(fp)
            if (nReadSize > sizeof(szRead))
 204038c:	e0bf6c17 	ldw	r2,-592(fp)
 2040390:	10804070 	cmpltui	r2,r2,257
 2040394:	1000021e 	bne	r2,zero,20403a0 <Fat_Test+0x1a0>
                nReadSize = sizeof(szRead);
 2040398:	00804004 	movi	r2,256
 204039c:	e0bf6c15 	stw	r2,-592(fp)
            printf("%s dump:\n", pDumpFile);
 20403a0:	01008174 	movhi	r4,517
 20403a4:	21195d04 	addi	r4,r4,25972
 20403a8:	e17fff17 	ldw	r5,-4(fp)
 20403ac:	2046d0c0 	call	2046d0c <printf>
            while(bSuccess && nTotalReadSize < nFileSize){
 20403b0:	00002b06 	br	2040460 <Fat_Test+0x260>
                nReadSize = sizeof(szRead);
 20403b4:	00804004 	movi	r2,256
 20403b8:	e0bf6c15 	stw	r2,-592(fp)
                if (nReadSize > (nFileSize - nTotalReadSize))
 20403bc:	e0ff6b17 	ldw	r3,-596(fp)
 20403c0:	e0bf6a17 	ldw	r2,-600(fp)
 20403c4:	1887c83a 	sub	r3,r3,r2
 20403c8:	e0bf6c17 	ldw	r2,-592(fp)
 20403cc:	1880040e 	bge	r3,r2,20403e0 <Fat_Test+0x1e0>
                    nReadSize = (nFileSize - nTotalReadSize);
 20403d0:	e0bf6b17 	ldw	r2,-596(fp)
 20403d4:	e0ff6a17 	ldw	r3,-600(fp)
 20403d8:	10c5c83a 	sub	r2,r2,r3
 20403dc:	e0bf6c15 	stw	r2,-592(fp)
                //    
                if (Fat_FileRead(hFile, szRead, nReadSize)){
 20403e0:	e17fbe04 	addi	r5,fp,-264
 20403e4:	e13f6d17 	ldw	r4,-588(fp)
 20403e8:	e1bf6c17 	ldw	r6,-592(fp)
 20403ec:	20411480 	call	2041148 <Fat_FileRead>
 20403f0:	1005003a 	cmpeq	r2,r2,zero
 20403f4:	1000151e 	bne	r2,zero,204044c <Fat_Test+0x24c>
                    int i;
                    for(i=0;i<nReadSize;i++){
 20403f8:	e03f6915 	stw	zero,-604(fp)
 20403fc:	00000b06 	br	204042c <Fat_Test+0x22c>
                        printf("%c", szRead[i]);
 2040400:	e0ff6917 	ldw	r3,-604(fp)
 2040404:	e0bfbe04 	addi	r2,fp,-264
 2040408:	10c5883a 	add	r2,r2,r3
 204040c:	10800003 	ldbu	r2,0(r2)
 2040410:	11003fcc 	andi	r4,r2,255
 2040414:	2100201c 	xori	r4,r4,128
 2040418:	213fe004 	addi	r4,r4,-128
 204041c:	2046d840 	call	2046d84 <putchar>
                if (nReadSize > (nFileSize - nTotalReadSize))
                    nReadSize = (nFileSize - nTotalReadSize);
                //    
                if (Fat_FileRead(hFile, szRead, nReadSize)){
                    int i;
                    for(i=0;i<nReadSize;i++){
 2040420:	e0bf6917 	ldw	r2,-604(fp)
 2040424:	10800044 	addi	r2,r2,1
 2040428:	e0bf6915 	stw	r2,-604(fp)
 204042c:	e0ff6917 	ldw	r3,-604(fp)
 2040430:	e0bf6c17 	ldw	r2,-592(fp)
 2040434:	18bff216 	blt	r3,r2,2040400 <Fat_Test+0x200>
                        printf("%c", szRead[i]);
                    }
                    nTotalReadSize += nReadSize;
 2040438:	e0bf6a17 	ldw	r2,-600(fp)
 204043c:	e0ff6c17 	ldw	r3,-592(fp)
 2040440:	10c5883a 	add	r2,r2,r3
 2040444:	e0bf6a15 	stw	r2,-600(fp)
 2040448:	00000506 	br	2040460 <Fat_Test+0x260>
                }else{
                    bSuccess = FALSE;
 204044c:	e03f7115 	stw	zero,-572(fp)
                    printf("\nFaied to read the file \"%s\"\n", pDumpFile);
 2040450:	01008174 	movhi	r4,517
 2040454:	21196004 	addi	r4,r4,25984
 2040458:	e17fff17 	ldw	r5,-4(fp)
 204045c:	2046d0c0 	call	2046d0c <printf>
            int nReadSize, nFileSize, nTotalReadSize=0;
            nFileSize = Fat_FileSize(hFile);
            if (nReadSize > sizeof(szRead))
                nReadSize = sizeof(szRead);
            printf("%s dump:\n", pDumpFile);
            while(bSuccess && nTotalReadSize < nFileSize){
 2040460:	e0bf7117 	ldw	r2,-572(fp)
 2040464:	1005003a 	cmpeq	r2,r2,zero
 2040468:	1000031e 	bne	r2,zero,2040478 <Fat_Test+0x278>
 204046c:	e0ff6a17 	ldw	r3,-600(fp)
 2040470:	e0bf6b17 	ldw	r2,-596(fp)
 2040474:	18bfcf16 	blt	r3,r2,20403b4 <Fat_Test+0x1b4>
                }else{
                    bSuccess = FALSE;
                    printf("\nFaied to read the file \"%s\"\n", pDumpFile);
                }     
            } // while
            if (bSuccess)
 2040478:	e0bf7117 	ldw	r2,-572(fp)
 204047c:	1005003a 	cmpeq	r2,r2,zero
 2040480:	1000021e 	bne	r2,zero,204048c <Fat_Test+0x28c>
                printf("\n");
 2040484:	01000284 	movi	r4,10
 2040488:	2046d840 	call	2046d84 <putchar>
            Fat_FileClose(hFile);
 204048c:	e13f6d17 	ldw	r4,-588(fp)
 2040490:	204171c0 	call	204171c <Fat_FileClose>
 2040494:	00000506 	br	20404ac <Fat_Test+0x2ac>
        }else{            
            bSuccess = FALSE;
 2040498:	e03f7115 	stw	zero,-572(fp)
            printf("Cannot find the file \"%s\"\n", pDumpFile);
 204049c:	01008174 	movhi	r4,517
 20404a0:	21196804 	addi	r4,r4,26016
 20404a4:	e17fff17 	ldw	r5,-4(fp)
 20404a8:	2046d0c0 	call	2046d0c <printf>
        }            
    }
    
    return bSuccess;
 20404ac:	e0bf7117 	ldw	r2,-572(fp)
}
 20404b0:	e037883a 	mov	sp,fp
 20404b4:	dfc00117 	ldw	ra,4(sp)
 20404b8:	df000017 	ldw	fp,0(sp)
 20404bc:	dec00204 	addi	sp,sp,8
 20404c0:	f800283a 	ret

020404c4 <main>:


int main()
{
 20404c4:	defffa04 	addi	sp,sp,-24
 20404c8:	dfc00515 	stw	ra,20(sp)
 20404cc:	df000415 	stw	fp,16(sp)
 20404d0:	df000404 	addi	fp,sp,16
    const alt_u32 LED_TEST_PATTERN = 0xF0;
 20404d4:	00803c04 	movi	r2,240
 20404d8:	e0bfff15 	stw	r2,-4(fp)
    const alt_u32 LED_NG_PATTERN = 0xFF;
 20404dc:	00803fc4 	movi	r2,255
 20404e0:	e0bffe15 	stw	r2,-8(fp)
    const alt_u32 LED_PASS_PATTERN = 0x00;
 20404e4:	e03ffd15 	stw	zero,-12(fp)
    FAT_HANDLE hFat;
    
    printf("========== DE2-115 SDCARD Demo ==========\n");
 20404e8:	01008174 	movhi	r4,517
 20404ec:	21196f04 	addi	r4,r4,26044
 20404f0:	2046e480 	call	2046e48 <puts>
    
    while(1){
        printf("Processing...\r\n");
 20404f4:	01008174 	movhi	r4,517
 20404f8:	21197a04 	addi	r4,r4,26088
 20404fc:	2046e480 	call	2046e48 <puts>
        IOWR_ALTERA_AVALON_PIO_DATA(LEDR_BASE, LED_TEST_PATTERN);
 2040500:	e0ffff17 	ldw	r3,-4(fp)
 2040504:	00804804 	movi	r2,288
 2040508:	10c00035 	stwio	r3,0(r2)
        hFat = Fat_Mount(FAT_SD_CARD, 0);
 204050c:	0009883a 	mov	r4,zero
 2040510:	000b883a 	mov	r5,zero
 2040514:	20405c80 	call	20405c8 <Fat_Mount>
 2040518:	e0bffc15 	stw	r2,-16(fp)
        if (hFat){
 204051c:	e0bffc17 	ldw	r2,-16(fp)
 2040520:	1005003a 	cmpeq	r2,r2,zero
 2040524:	1000161e 	bne	r2,zero,2040580 <main+0xbc>
            printf("sdcard mount success!\n");
 2040528:	01008174 	movhi	r4,517
 204052c:	21197e04 	addi	r4,r4,26104
 2040530:	2046e480 	call	2046e48 <puts>
            printf("Root Directory Item Count:%d\n", Fat_FileCount(hFat));
 2040534:	e13ffc17 	ldw	r4,-16(fp)
 2040538:	2040c400 	call	2040c40 <Fat_FileCount>
 204053c:	100b883a 	mov	r5,r2
 2040540:	01008174 	movhi	r4,517
 2040544:	21198404 	addi	r4,r4,26128
 2040548:	2046d0c0 	call	2046d0c <printf>
            Fat_Test(hFat, "test.txt");
 204054c:	e13ffc17 	ldw	r4,-16(fp)
 2040550:	01408174 	movhi	r5,517
 2040554:	29598c04 	addi	r5,r5,26160
 2040558:	20402000 	call	2040200 <Fat_Test>
            Fat_Unmount(hFat);
 204055c:	e13ffc17 	ldw	r4,-16(fp)
 2040560:	20406100 	call	2040610 <Fat_Unmount>
            IOWR_ALTERA_AVALON_PIO_DATA(LEDR_BASE, LED_PASS_PATTERN);
 2040564:	e0fffd17 	ldw	r3,-12(fp)
 2040568:	00804804 	movi	r2,288
 204056c:	10c00035 	stwio	r3,0(r2)
            
            printf("===== Test Done =====\r\nPress KEY3 to test again.\r\n");
 2040570:	01008174 	movhi	r4,517
 2040574:	21198f04 	addi	r4,r4,26172
 2040578:	2046e480 	call	2046e48 <puts>
 204057c:	00000606 	br	2040598 <main+0xd4>
        }else{
            printf("Failed to mount the SDCARD!\r\nPlease insert the SDCARD into DE2-115 board and press KEY3.\r\n");
 2040580:	01008174 	movhi	r4,517
 2040584:	21199c04 	addi	r4,r4,26224
 2040588:	2046e480 	call	2046e48 <puts>
            IOWR_ALTERA_AVALON_PIO_DATA(LEDR_BASE, LED_NG_PATTERN);
 204058c:	e0fffe17 	ldw	r3,-8(fp)
 2040590:	00804804 	movi	r2,288
 2040594:	10c00035 	stwio	r3,0(r2)
        }
        // wait users to press BUTTON3
        while ((IORD_ALTERA_AVALON_PIO_DATA(KEY_BASE) & 0x08) == 0x08);
 2040598:	00801804 	movi	r2,96
 204059c:	10800037 	ldwio	r2,0(r2)
 20405a0:	1080020c 	andi	r2,r2,8
 20405a4:	1004c03a 	cmpne	r2,r2,zero
 20405a8:	103ffb1e 	bne	r2,zero,2040598 <main+0xd4>
        IOWR_ALTERA_AVALON_PIO_DATA(LEDR_BASE, LED_TEST_PATTERN);
 20405ac:	e0ffff17 	ldw	r3,-4(fp)
 20405b0:	00804804 	movi	r2,288
 20405b4:	10c00035 	stwio	r3,0(r2)
        usleep(400*1000); // debounce
 20405b8:	010001b4 	movhi	r4,6
 20405bc:	2106a004 	addi	r4,r4,6784
 20405c0:	20503a80 	call	20503a8 <usleep>
    } // while            
 20405c4:	003fcb06 	br	20404f4 <main+0x30>

020405c8 <Fat_Mount>:
bool fatSameLongFilename(alt_u16 *p1, alt_u16 *p2);




FAT_HANDLE Fat_Mount(FAT_DEVICE FatDevice, DEVICE_HANDLE hUsbDisk){
 20405c8:	defffb04 	addi	sp,sp,-20
 20405cc:	dfc00415 	stw	ra,16(sp)
 20405d0:	df000315 	stw	fp,12(sp)
 20405d4:	df000304 	addi	fp,sp,12
 20405d8:	e13ffe15 	stw	r4,-8(fp)
 20405dc:	e17fff15 	stw	r5,-4(fp)
    
    //Fat_Unmount();
    FAT_HANDLE hFat = 0;
 20405e0:	e03ffd15 	stw	zero,-12(fp)
    
    if (FatDevice == FAT_SD_CARD){
 20405e4:	e0bffe17 	ldw	r2,-8(fp)
 20405e8:	1004c03a 	cmpne	r2,r2,zero
 20405ec:	1000021e 	bne	r2,zero,20405f8 <Fat_Mount+0x30>
        #ifdef SUPPORT_SD_CARD
        hFat = fatMountSdcard();
 20405f0:	20429440 	call	2042944 <fatMountSdcard>
 20405f4:	e0bffd15 	stw	r2,-12(fp)
    }else if (FatDevice == FAT_USB_DISK){
        #ifdef SUPPORT_USB_DISK
        hFat = fatMountUsbDisk(hUsbDisk);
        #endif
    }  
    return hFat;      
 20405f8:	e0bffd17 	ldw	r2,-12(fp)
        
}
 20405fc:	e037883a 	mov	sp,fp
 2040600:	dfc00117 	ldw	ra,4(sp)
 2040604:	df000017 	ldw	fp,0(sp)
 2040608:	dec00204 	addi	sp,sp,8
 204060c:	f800283a 	ret

02040610 <Fat_Unmount>:

void Fat_Unmount(FAT_HANDLE Fat){
 2040610:	defffc04 	addi	sp,sp,-16
 2040614:	dfc00315 	stw	ra,12(sp)
 2040618:	df000215 	stw	fp,8(sp)
 204061c:	df000204 	addi	fp,sp,8
 2040620:	e13fff15 	stw	r4,-4(fp)
    VOLUME_INFO *pVol = (VOLUME_INFO *)Fat;
 2040624:	e0bfff17 	ldw	r2,-4(fp)
 2040628:	e0bffe15 	stw	r2,-8(fp)
    if (!pVol)
 204062c:	e0bffe17 	ldw	r2,-8(fp)
 2040630:	1005003a 	cmpeq	r2,r2,zero
 2040634:	1000041e 	bne	r2,zero,2040648 <Fat_Unmount+0x38>
    if (pVol->szFatTable){
        free(pVol->szFatTable);
        pVol->szFatTable = 0;
    }        
#endif //#ifdef FAT_READONLY
    pVol->bMount = FALSE;
 2040638:	e0bffe17 	ldw	r2,-8(fp)
 204063c:	10000415 	stw	zero,16(r2)
    
    free(pVol);  
 2040640:	e13ffe17 	ldw	r4,-8(fp)
 2040644:	204646c0 	call	204646c <free>
}   
 2040648:	e037883a 	mov	sp,fp
 204064c:	dfc00117 	ldw	ra,4(sp)
 2040650:	df000017 	ldw	fp,0(sp)
 2040654:	dec00204 	addi	sp,sp,8
 2040658:	f800283a 	ret

0204065c <Fat_Type>:

FAT_TYPE Fat_Type(FAT_HANDLE Fat){
 204065c:	defffc04 	addi	sp,sp,-16
 2040660:	df000315 	stw	fp,12(sp)
 2040664:	df000304 	addi	fp,sp,12
 2040668:	e13fff15 	stw	r4,-4(fp)
    VOLUME_INFO *pVol = (VOLUME_INFO *)Fat;
 204066c:	e0bfff17 	ldw	r2,-4(fp)
 2040670:	e0bffe15 	stw	r2,-8(fp)
    FAT_TYPE Type = FAT_UNKNOWN;
 2040674:	e03ffd15 	stw	zero,-12(fp)
    if (pVol){
 2040678:	e0bffe17 	ldw	r2,-8(fp)
 204067c:	1005003a 	cmpeq	r2,r2,zero
 2040680:	10000d1e 	bne	r2,zero,20406b8 <Fat_Type+0x5c>
        if (pVol->Partition_Type == PARTITION_FAT16)
 2040684:	e0bffe17 	ldw	r2,-8(fp)
 2040688:	10800317 	ldw	r2,12(r2)
 204068c:	10800198 	cmpnei	r2,r2,6
 2040690:	1000031e 	bne	r2,zero,20406a0 <Fat_Type+0x44>
            Type = FAT_FAT16;
 2040694:	00800044 	movi	r2,1
 2040698:	e0bffd15 	stw	r2,-12(fp)
 204069c:	00000606 	br	20406b8 <Fat_Type+0x5c>
        else if (pVol->Partition_Type == PARTITION_FAT32)
 20406a0:	e0bffe17 	ldw	r2,-8(fp)
 20406a4:	10800317 	ldw	r2,12(r2)
 20406a8:	108002d8 	cmpnei	r2,r2,11
 20406ac:	1000021e 	bne	r2,zero,20406b8 <Fat_Type+0x5c>
            Type = FAT_FAT32;
 20406b0:	00800084 	movi	r2,2
 20406b4:	e0bffd15 	stw	r2,-12(fp)
    }
    return Type;        
 20406b8:	e0bffd17 	ldw	r2,-12(fp)
}
 20406bc:	e037883a 	mov	sp,fp
 20406c0:	df000017 	ldw	fp,0(sp)
 20406c4:	dec00104 	addi	sp,sp,4
 20406c8:	f800283a 	ret

020406cc <Fat_FileBrowseBegin>:

bool Fat_FileBrowseBegin(FAT_HANDLE hFat, FAT_BROWSE_HANDLE *pFatBrowseHandle){
 20406cc:	defffb04 	addi	sp,sp,-20
 20406d0:	df000415 	stw	fp,16(sp)
 20406d4:	df000404 	addi	fp,sp,16
 20406d8:	e13ffd15 	stw	r4,-12(fp)
 20406dc:	e17ffe15 	stw	r5,-8(fp)
    VOLUME_INFO *pVol = (VOLUME_INFO *)hFat;
 20406e0:	e0bffd17 	ldw	r2,-12(fp)
 20406e4:	e0bffc15 	stw	r2,-16(fp)
    if (!pVol)
 20406e8:	e0bffc17 	ldw	r2,-16(fp)
 20406ec:	1004c03a 	cmpne	r2,r2,zero
 20406f0:	1000021e 	bne	r2,zero,20406fc <Fat_FileBrowseBegin+0x30>
        return FALSE;
 20406f4:	e03fff15 	stw	zero,-4(fp)
 20406f8:	00000e06 	br	2040734 <Fat_FileBrowseBegin+0x68>
    if (!pVol->bMount)
 20406fc:	e0bffc17 	ldw	r2,-16(fp)
 2040700:	10800417 	ldw	r2,16(r2)
 2040704:	1004c03a 	cmpne	r2,r2,zero
 2040708:	1000021e 	bne	r2,zero,2040714 <Fat_FileBrowseBegin+0x48>
        return FALSE;
 204070c:	e03fff15 	stw	zero,-4(fp)
 2040710:	00000806 	br	2040734 <Fat_FileBrowseBegin+0x68>
    pFatBrowseHandle->DirectoryIndex = -1;
 2040714:	e0fffe17 	ldw	r3,-8(fp)
 2040718:	00bfffc4 	movi	r2,-1
 204071c:	18800015 	stw	r2,0(r3)
    pFatBrowseHandle->hFat = hFat;
 2040720:	e0fffe17 	ldw	r3,-8(fp)
 2040724:	e0bffd17 	ldw	r2,-12(fp)
 2040728:	18800115 	stw	r2,4(r3)
    return TRUE;
 204072c:	00800044 	movi	r2,1
 2040730:	e0bfff15 	stw	r2,-4(fp)
 2040734:	e0bfff17 	ldw	r2,-4(fp)
}
 2040738:	e037883a 	mov	sp,fp
 204073c:	df000017 	ldw	fp,0(sp)
 2040740:	dec00104 	addi	sp,sp,4
 2040744:	f800283a 	ret

02040748 <Fat_FileBrowseNext>:

bool Fat_FileBrowseNext(FAT_BROWSE_HANDLE *pFatBrowseHandle, FILE_CONTEXT *pFileContext){
 2040748:	defff304 	addi	sp,sp,-52
 204074c:	dfc00c15 	stw	ra,48(sp)
 2040750:	df000b15 	stw	fp,44(sp)
 2040754:	df000b04 	addi	fp,sp,44
 2040758:	e13ffd15 	stw	r4,-12(fp)
 204075c:	e17ffe15 	stw	r5,-8(fp)
    bool bFind = FALSE, bError=FALSE, bLongFilename = FALSE;
 2040760:	e03ffc15 	stw	zero,-16(fp)
 2040764:	e03ffb15 	stw	zero,-20(fp)
 2040768:	e03ffa15 	stw	zero,-24(fp)
    int OrderValue = 0;
 204076c:	e03ff915 	stw	zero,-28(fp)
    FAT_DIRECTORY *pDir;
    //unsigned int nSecter, nSecterOffset,nByteOffset;
    VOLUME_INFO *pVol = (VOLUME_INFO *)pFatBrowseHandle->hFat;
 2040770:	e0bffd17 	ldw	r2,-12(fp)
 2040774:	10800117 	ldw	r2,4(r2)
 2040778:	e0bff715 	stw	r2,-36(fp)
    
    if (!pVol)
 204077c:	e0bff717 	ldw	r2,-36(fp)
 2040780:	1004c03a 	cmpne	r2,r2,zero
 2040784:	1000021e 	bne	r2,zero,2040790 <Fat_FileBrowseNext+0x48>
        return FALSE;    
 2040788:	e03fff15 	stw	zero,-4(fp)
 204078c:	00012606 	br	2040c28 <Fat_FileBrowseNext+0x4e0>
    
    if (!pVol->bMount)
 2040790:	e0bff717 	ldw	r2,-36(fp)
 2040794:	10800417 	ldw	r2,16(r2)
 2040798:	1004c03a 	cmpne	r2,r2,zero
 204079c:	1000021e 	bne	r2,zero,20407a8 <Fat_FileBrowseNext+0x60>
        return FALSE;
 20407a0:	e03fff15 	stw	zero,-4(fp)
 20407a4:	00012006 	br	2040c28 <Fat_FileBrowseNext+0x4e0>
    
    
    do{  // search Directory Table
        pFatBrowseHandle->DirectoryIndex++;        
 20407a8:	e0bffd17 	ldw	r2,-12(fp)
 20407ac:	10800017 	ldw	r2,0(r2)
 20407b0:	10c00044 	addi	r3,r2,1
 20407b4:	e0bffd17 	ldw	r2,-12(fp)
 20407b8:	10c00015 	stw	r3,0(r2)
        pDir = fatFindDirectory(pVol,pFatBrowseHandle->DirectoryIndex);
 20407bc:	e0bffd17 	ldw	r2,-12(fp)
 20407c0:	11400017 	ldw	r5,0(r2)
 20407c4:	e13ff717 	ldw	r4,-36(fp)
 20407c8:	20424180 	call	2042418 <fatFindDirectory>
 20407cc:	e0bff815 	stw	r2,-32(fp)
        if (!pDir)
 20407d0:	e0bff817 	ldw	r2,-32(fp)
 20407d4:	1004c03a 	cmpne	r2,r2,zero
 20407d8:	1000021e 	bne	r2,zero,20407e4 <Fat_FileBrowseNext+0x9c>
            bError = TRUE;
 20407dc:	00800044 	movi	r2,1
 20407e0:	e0bffb15 	stw	r2,-20(fp)
            
        if (!bError){                        
 20407e4:	e0bffb17 	ldw	r2,-20(fp)
 20407e8:	1004c03a 	cmpne	r2,r2,zero
 20407ec:	1001021e 	bne	r2,zero,2040bf8 <Fat_FileBrowseNext+0x4b0>
            if (fatIsValidDir(pDir) && !fatIsUnusedDir(pDir)){
 20407f0:	e13ff817 	ldw	r4,-32(fp)
 20407f4:	20420900 	call	2042090 <fatIsValidDir>
 20407f8:	1005003a 	cmpeq	r2,r2,zero
 20407fc:	1000fe1e 	bne	r2,zero,2040bf8 <Fat_FileBrowseNext+0x4b0>
 2040800:	e13ff817 	ldw	r4,-32(fp)
 2040804:	20421380 	call	2042138 <fatIsUnusedDir>
 2040808:	1004c03a 	cmpne	r2,r2,zero
 204080c:	1000fa1e 	bne	r2,zero,2040bf8 <Fat_FileBrowseNext+0x4b0>
                if ((pDir->Attribute & ATTR_LONG_NAME) == ATTR_LONG_NAME){
 2040810:	e0bff817 	ldw	r2,-32(fp)
 2040814:	108002c3 	ldbu	r2,11(r2)
 2040818:	10803fcc 	andi	r2,r2,255
 204081c:	108003cc 	andi	r2,r2,15
 2040820:	108003d8 	cmpnei	r2,r2,15
 2040824:	10007c1e 	bne	r2,zero,2040a18 <Fat_FileBrowseNext+0x2d0>
                    FAT_LONG_DIRECTORY *pLDIR = (FAT_LONG_DIRECTORY *)pDir;
 2040828:	e0bff817 	ldw	r2,-32(fp)
 204082c:	e0bff615 	stw	r2,-40(fp)
                    // check attribute
                    if ((pLDIR->LDIR_Attr & ATTR_LONG_NAME) != ATTR_LONG_NAME){
 2040830:	e0bff617 	ldw	r2,-40(fp)
 2040834:	108002c3 	ldbu	r2,11(r2)
 2040838:	10803fcc 	andi	r2,r2,255
 204083c:	108003cc 	andi	r2,r2,15
 2040840:	108003e0 	cmpeqi	r2,r2,15
 2040844:	1000031e 	bne	r2,zero,2040854 <Fat_FileBrowseNext+0x10c>
                        bError = TRUE;
 2040848:	00800044 	movi	r2,1
 204084c:	e0bffb15 	stw	r2,-20(fp)
 2040850:	00002006 	br	20408d4 <Fat_FileBrowseNext+0x18c>
                    }else{                        
                        // check order
                        if (OrderValue == 0){
 2040854:	e0bff917 	ldw	r2,-28(fp)
 2040858:	1004c03a 	cmpne	r2,r2,zero
 204085c:	1000151e 	bne	r2,zero,20408b4 <Fat_FileBrowseNext+0x16c>
                            // last entry
                            if (bLongFilename || ((OrderValue & LAST_LONG_ENTRY) != OrderValue))
 2040860:	e0bffa17 	ldw	r2,-24(fp)
 2040864:	1004c03a 	cmpne	r2,r2,zero
 2040868:	1000041e 	bne	r2,zero,204087c <Fat_FileBrowseNext+0x134>
 204086c:	e0bff917 	ldw	r2,-28(fp)
 2040870:	10c0100c 	andi	r3,r2,64
 2040874:	e0bff917 	ldw	r2,-28(fp)
 2040878:	18800326 	beq	r3,r2,2040888 <Fat_FileBrowseNext+0x140>
                                bError = TRUE;
 204087c:	00800044 	movi	r2,1
 2040880:	e0bffb15 	stw	r2,-20(fp)
                        bError = TRUE;
                    }else{                        
                        // check order
                        if (OrderValue == 0){
                            // last entry
                            if (bLongFilename || ((OrderValue & LAST_LONG_ENTRY) != OrderValue))
 2040884:	00000506 	br	204089c <Fat_FileBrowseNext+0x154>
                                bError = TRUE;
                            else
                                OrderValue = pLDIR->LDIR_Ord & 0x3F;
 2040888:	e0bff617 	ldw	r2,-40(fp)
 204088c:	10800003 	ldbu	r2,0(r2)
 2040890:	10803fcc 	andi	r2,r2,255
 2040894:	10800fcc 	andi	r2,r2,63
 2040898:	e0bff915 	stw	r2,-28(fp)
                            memset(pFileContext->szName, 0, sizeof(pFileContext->szName));        
 204089c:	e0bffe17 	ldw	r2,-8(fp)
 20408a0:	1009883a 	mov	r4,r2
 20408a4:	01804004 	movi	r6,256
 20408a8:	000b883a 	mov	r5,zero
 20408ac:	2046c740 	call	2046c74 <memset>
 20408b0:	00000806 	br	20408d4 <Fat_FileBrowseNext+0x18c>
                        }else{
                            if ((pLDIR->LDIR_Ord & 0x3F) != OrderValue)
 20408b4:	e0bff617 	ldw	r2,-40(fp)
 20408b8:	10800003 	ldbu	r2,0(r2)
 20408bc:	10803fcc 	andi	r2,r2,255
 20408c0:	10c00fcc 	andi	r3,r2,63
 20408c4:	e0bff917 	ldw	r2,-28(fp)
 20408c8:	18800226 	beq	r3,r2,20408d4 <Fat_FileBrowseNext+0x18c>
                                bError = TRUE;
 20408cc:	00800044 	movi	r2,1
 20408d0:	e0bffb15 	stw	r2,-20(fp)
                        }
                    }
                    
                    //                        
                    if (!bError){
 20408d4:	e0bffb17 	ldw	r2,-20(fp)
 20408d8:	1004c03a 	cmpne	r2,r2,zero
 20408dc:	1000c61e 	bne	r2,zero,2040bf8 <Fat_FileBrowseNext+0x4b0>
                        int BaseOffset;
                        bLongFilename = TRUE;
 20408e0:	00800044 	movi	r2,1
 20408e4:	e0bffa15 	stw	r2,-24(fp)
                        OrderValue--;
 20408e8:	e0bff917 	ldw	r2,-28(fp)
 20408ec:	10bfffc4 	addi	r2,r2,-1
 20408f0:	e0bff915 	stw	r2,-28(fp)
                        BaseOffset = OrderValue * 26;
 20408f4:	e0bff917 	ldw	r2,-28(fp)
 20408f8:	108006a4 	muli	r2,r2,26
 20408fc:	e0bff515 	stw	r2,-44(fp)
                        // cast filename
                        memcpy(pFileContext->szName+BaseOffset, pLDIR->LDIR_Name1, 10);
 2040900:	e0fffe17 	ldw	r3,-8(fp)
 2040904:	e0bff517 	ldw	r2,-44(fp)
 2040908:	1889883a 	add	r4,r3,r2
 204090c:	e0bff617 	ldw	r2,-40(fp)
 2040910:	10c00044 	addi	r3,r2,1
 2040914:	18800003 	ldbu	r2,0(r3)
 2040918:	20800005 	stb	r2,0(r4)
 204091c:	18800043 	ldbu	r2,1(r3)
 2040920:	20800045 	stb	r2,1(r4)
 2040924:	18800083 	ldbu	r2,2(r3)
 2040928:	20800085 	stb	r2,2(r4)
 204092c:	188000c3 	ldbu	r2,3(r3)
 2040930:	208000c5 	stb	r2,3(r4)
 2040934:	18800103 	ldbu	r2,4(r3)
 2040938:	20800105 	stb	r2,4(r4)
 204093c:	18800143 	ldbu	r2,5(r3)
 2040940:	20800145 	stb	r2,5(r4)
 2040944:	18800183 	ldbu	r2,6(r3)
 2040948:	20800185 	stb	r2,6(r4)
 204094c:	188001c3 	ldbu	r2,7(r3)
 2040950:	208001c5 	stb	r2,7(r4)
 2040954:	18800203 	ldbu	r2,8(r3)
 2040958:	20800205 	stb	r2,8(r4)
 204095c:	18800243 	ldbu	r2,9(r3)
 2040960:	20800245 	stb	r2,9(r4)
                        memcpy(pFileContext->szName+BaseOffset+10, pLDIR->LDIR_Name2, 12);
 2040964:	e0fffe17 	ldw	r3,-8(fp)
 2040968:	e0bff517 	ldw	r2,-44(fp)
 204096c:	1885883a 	add	r2,r3,r2
 2040970:	11000284 	addi	r4,r2,10
 2040974:	e0bff617 	ldw	r2,-40(fp)
 2040978:	10c00384 	addi	r3,r2,14
 204097c:	18800003 	ldbu	r2,0(r3)
 2040980:	20800005 	stb	r2,0(r4)
 2040984:	18800043 	ldbu	r2,1(r3)
 2040988:	20800045 	stb	r2,1(r4)
 204098c:	18800083 	ldbu	r2,2(r3)
 2040990:	20800085 	stb	r2,2(r4)
 2040994:	188000c3 	ldbu	r2,3(r3)
 2040998:	208000c5 	stb	r2,3(r4)
 204099c:	18800103 	ldbu	r2,4(r3)
 20409a0:	20800105 	stb	r2,4(r4)
 20409a4:	18800143 	ldbu	r2,5(r3)
 20409a8:	20800145 	stb	r2,5(r4)
 20409ac:	18800183 	ldbu	r2,6(r3)
 20409b0:	20800185 	stb	r2,6(r4)
 20409b4:	188001c3 	ldbu	r2,7(r3)
 20409b8:	208001c5 	stb	r2,7(r4)
 20409bc:	18800203 	ldbu	r2,8(r3)
 20409c0:	20800205 	stb	r2,8(r4)
 20409c4:	18800243 	ldbu	r2,9(r3)
 20409c8:	20800245 	stb	r2,9(r4)
 20409cc:	18800283 	ldbu	r2,10(r3)
 20409d0:	20800285 	stb	r2,10(r4)
 20409d4:	188002c3 	ldbu	r2,11(r3)
 20409d8:	208002c5 	stb	r2,11(r4)
                        memcpy(pFileContext->szName+BaseOffset+22, pLDIR->LDIR_Name3, 4);
 20409dc:	e0fffe17 	ldw	r3,-8(fp)
 20409e0:	e0bff517 	ldw	r2,-44(fp)
 20409e4:	1885883a 	add	r2,r3,r2
 20409e8:	11000584 	addi	r4,r2,22
 20409ec:	e0bff617 	ldw	r2,-40(fp)
 20409f0:	10c00704 	addi	r3,r2,28
 20409f4:	18800003 	ldbu	r2,0(r3)
 20409f8:	20800005 	stb	r2,0(r4)
 20409fc:	18800043 	ldbu	r2,1(r3)
 2040a00:	20800045 	stb	r2,1(r4)
 2040a04:	18800083 	ldbu	r2,2(r3)
 2040a08:	20800085 	stb	r2,2(r4)
 2040a0c:	188000c3 	ldbu	r2,3(r3)
 2040a10:	208000c5 	stb	r2,3(r4)
 2040a14:	00007806 	br	2040bf8 <Fat_FileBrowseNext+0x4b0>
                    }                        
                }else{
                    if (bLongFilename){
 2040a18:	e0bffa17 	ldw	r2,-24(fp)
 2040a1c:	1005003a 	cmpeq	r2,r2,zero
 2040a20:	10000f1e 	bne	r2,zero,2040a60 <Fat_FileBrowseNext+0x318>
                        pFileContext->Attribute = ATTR_LONG_NAME;
 2040a24:	e0fffe17 	ldw	r3,-8(fp)
 2040a28:	008003c4 	movi	r2,15
 2040a2c:	18804505 	stb	r2,276(r3)
                        if ((pDir->Attribute & (ATTR_ARCHIVE | ATTR_DIRECTORY)) == 0)
 2040a30:	e0bff817 	ldw	r2,-32(fp)
 2040a34:	108002c3 	ldbu	r2,11(r2)
 2040a38:	10803fcc 	andi	r2,r2,255
 2040a3c:	10800c0c 	andi	r2,r2,48
 2040a40:	1004c03a 	cmpne	r2,r2,zero
 2040a44:	1000031e 	bne	r2,zero,2040a54 <Fat_FileBrowseNext+0x30c>
                            bError = TRUE;
 2040a48:	00800044 	movi	r2,1
 2040a4c:	e0bffb15 	stw	r2,-20(fp)
 2040a50:	00000806 	br	2040a74 <Fat_FileBrowseNext+0x32c>
                        else    
                            bFind = TRUE;
 2040a54:	00800044 	movi	r2,1
 2040a58:	e0bffc15 	stw	r2,-16(fp)
 2040a5c:	00000506 	br	2040a74 <Fat_FileBrowseNext+0x32c>
                    }else{
                        fatComposeShortFilename(pDir, pFileContext->szName);
 2040a60:	e17ffe17 	ldw	r5,-8(fp)
 2040a64:	e13ff817 	ldw	r4,-32(fp)
 2040a68:	2040d480 	call	2040d48 <fatComposeShortFilename>
                        bFind = TRUE;
 2040a6c:	00800044 	movi	r2,1
 2040a70:	e0bffc15 	stw	r2,-16(fp)
                    }
                    
                    if (bFind){
 2040a74:	e0bffc17 	ldw	r2,-16(fp)
 2040a78:	1005003a 	cmpeq	r2,r2,zero
 2040a7c:	10005e1e 	bne	r2,zero,2040bf8 <Fat_FileBrowseNext+0x4b0>
                        // my ext
                        pFileContext->bLongFilename = bLongFilename;
 2040a80:	e0fffe17 	ldw	r3,-8(fp)
 2040a84:	e0bffa17 	ldw	r2,-24(fp)
 2040a88:	18804015 	stw	r2,256(r3)
                        pFileContext->bFile = (pDir->Attribute & ATTR_ARCHIVE)?TRUE:FALSE;
 2040a8c:	e0bff817 	ldw	r2,-32(fp)
 2040a90:	108002c3 	ldbu	r2,11(r2)
 2040a94:	10803fcc 	andi	r2,r2,255
 2040a98:	1080080c 	andi	r2,r2,32
 2040a9c:	1006c03a 	cmpne	r3,r2,zero
 2040aa0:	e0bffe17 	ldw	r2,-8(fp)
 2040aa4:	10c04115 	stw	r3,260(r2)
                        pFileContext->bDirectory = (pDir->Attribute & ATTR_DIRECTORY)?TRUE:FALSE;
 2040aa8:	e0bff817 	ldw	r2,-32(fp)
 2040aac:	108002c3 	ldbu	r2,11(r2)
 2040ab0:	10803fcc 	andi	r2,r2,255
 2040ab4:	1080040c 	andi	r2,r2,16
 2040ab8:	1006c03a 	cmpne	r3,r2,zero
 2040abc:	e0bffe17 	ldw	r2,-8(fp)
 2040ac0:	10c04215 	stw	r3,264(r2)
                        pFileContext->bVolume = (pDir->Attribute & ATTR_VOLUME_ID)?TRUE:FALSE;
 2040ac4:	e0bff817 	ldw	r2,-32(fp)
 2040ac8:	108002c3 	ldbu	r2,11(r2)
 2040acc:	10803fcc 	andi	r2,r2,255
 2040ad0:	1080020c 	andi	r2,r2,8
 2040ad4:	1006c03a 	cmpne	r3,r2,zero
 2040ad8:	e0bffe17 	ldw	r2,-8(fp)
 2040adc:	10c04315 	stw	r3,268(r2)
                        pFileContext->DirEntryIndex = pFatBrowseHandle->DirectoryIndex; // add in v2.0.0
 2040ae0:	e0bffd17 	ldw	r2,-12(fp)
 2040ae4:	10c00017 	ldw	r3,0(r2)
 2040ae8:	e0bffe17 	ldw	r2,-8(fp)
 2040aec:	10c04415 	stw	r3,272(r2)
                        
                        //
                        pFileContext->Attribute = pDir->Attribute;
 2040af0:	e0bff817 	ldw	r2,-32(fp)
 2040af4:	10c002c3 	ldbu	r3,11(r2)
 2040af8:	e0bffe17 	ldw	r2,-8(fp)
 2040afc:	10c04505 	stb	r3,276(r2)
                        pFileContext->CreateTime = pDir->CreateTime;
 2040b00:	e0bff817 	ldw	r2,-32(fp)
 2040b04:	10c00383 	ldbu	r3,14(r2)
 2040b08:	108003c3 	ldbu	r2,15(r2)
 2040b0c:	1004923a 	slli	r2,r2,8
 2040b10:	10c4b03a 	or	r2,r2,r3
 2040b14:	1007883a 	mov	r3,r2
 2040b18:	e0bffe17 	ldw	r2,-8(fp)
 2040b1c:	10c0458d 	sth	r3,278(r2)
                        pFileContext->LastAccessDate = pDir->LastAccessDate;
 2040b20:	e0bff817 	ldw	r2,-32(fp)
 2040b24:	10c00483 	ldbu	r3,18(r2)
 2040b28:	108004c3 	ldbu	r2,19(r2)
 2040b2c:	1004923a 	slli	r2,r2,8
 2040b30:	10c4b03a 	or	r2,r2,r3
 2040b34:	1007883a 	mov	r3,r2
 2040b38:	e0bffe17 	ldw	r2,-8(fp)
 2040b3c:	10c0468d 	sth	r3,282(r2)
                        pFileContext->FirstLogicalClusterHi = pDir->FirstLogicalClusterHi;
 2040b40:	e0bff817 	ldw	r2,-32(fp)
 2040b44:	10c00503 	ldbu	r3,20(r2)
 2040b48:	10800543 	ldbu	r2,21(r2)
 2040b4c:	1004923a 	slli	r2,r2,8
 2040b50:	10c4b03a 	or	r2,r2,r3
 2040b54:	1007883a 	mov	r3,r2
 2040b58:	e0bffe17 	ldw	r2,-8(fp)
 2040b5c:	10c0470d 	sth	r3,284(r2)
                        pFileContext->LastWriteTime = pDir->LastWriteTime;
 2040b60:	e0bff817 	ldw	r2,-32(fp)
 2040b64:	10c00583 	ldbu	r3,22(r2)
 2040b68:	108005c3 	ldbu	r2,23(r2)
 2040b6c:	1004923a 	slli	r2,r2,8
 2040b70:	10c4b03a 	or	r2,r2,r3
 2040b74:	1007883a 	mov	r3,r2
 2040b78:	e0bffe17 	ldw	r2,-8(fp)
 2040b7c:	10c0478d 	sth	r3,286(r2)
                        pFileContext->LastWriteDate = pDir->LastWriteDate;
 2040b80:	e0bff817 	ldw	r2,-32(fp)
 2040b84:	10c00603 	ldbu	r3,24(r2)
 2040b88:	10800643 	ldbu	r2,25(r2)
 2040b8c:	1004923a 	slli	r2,r2,8
 2040b90:	10c4b03a 	or	r2,r2,r3
 2040b94:	1007883a 	mov	r3,r2
 2040b98:	e0bffe17 	ldw	r2,-8(fp)
 2040b9c:	10c0480d 	sth	r3,288(r2)
                        pFileContext->FirstLogicalCluster = pDir->FirstLogicalCluster;
 2040ba0:	e0bff817 	ldw	r2,-32(fp)
 2040ba4:	10c00683 	ldbu	r3,26(r2)
 2040ba8:	108006c3 	ldbu	r2,27(r2)
 2040bac:	1004923a 	slli	r2,r2,8
 2040bb0:	10c4b03a 	or	r2,r2,r3
 2040bb4:	1007883a 	mov	r3,r2
 2040bb8:	e0bffe17 	ldw	r2,-8(fp)
 2040bbc:	10c0488d 	sth	r3,290(r2)
                        pFileContext->FileSize = pDir->FileSize;
 2040bc0:	e0fff817 	ldw	r3,-32(fp)
 2040bc4:	19000703 	ldbu	r4,28(r3)
 2040bc8:	18800743 	ldbu	r2,29(r3)
 2040bcc:	1004923a 	slli	r2,r2,8
 2040bd0:	1108b03a 	or	r4,r2,r4
 2040bd4:	18800783 	ldbu	r2,30(r3)
 2040bd8:	1004943a 	slli	r2,r2,16
 2040bdc:	1108b03a 	or	r4,r2,r4
 2040be0:	188007c3 	ldbu	r2,31(r3)
 2040be4:	1004963a 	slli	r2,r2,24
 2040be8:	1104b03a 	or	r2,r2,r4
 2040bec:	1007883a 	mov	r3,r2
 2040bf0:	e0bffe17 	ldw	r2,-8(fp)
 2040bf4:	10c04915 	stw	r3,292(r2)
                    }                        
                }                    
            }                
        }            
    }while (!bFind && !fatIsLastDir(pDir) && !bError);
 2040bf8:	e0bffc17 	ldw	r2,-16(fp)
 2040bfc:	1004c03a 	cmpne	r2,r2,zero
 2040c00:	1000071e 	bne	r2,zero,2040c20 <Fat_FileBrowseNext+0x4d8>
 2040c04:	e13ff817 	ldw	r4,-32(fp)
 2040c08:	20420400 	call	2042040 <fatIsLastDir>
 2040c0c:	1004c03a 	cmpne	r2,r2,zero
 2040c10:	1000031e 	bne	r2,zero,2040c20 <Fat_FileBrowseNext+0x4d8>
 2040c14:	e0bffb17 	ldw	r2,-20(fp)
 2040c18:	1005003a 	cmpeq	r2,r2,zero
 2040c1c:	103ee21e 	bne	r2,zero,20407a8 <Fat_FileBrowseNext+0x60>
    
    return bFind;
 2040c20:	e0bffc17 	ldw	r2,-16(fp)
 2040c24:	e0bfff15 	stw	r2,-4(fp)
 2040c28:	e0bfff17 	ldw	r2,-4(fp)
    
}
 2040c2c:	e037883a 	mov	sp,fp
 2040c30:	dfc00117 	ldw	ra,4(sp)
 2040c34:	df000017 	ldw	fp,0(sp)
 2040c38:	dec00204 	addi	sp,sp,8
 2040c3c:	f800283a 	ret

02040c40 <Fat_FileCount>:


unsigned int Fat_FileCount(FAT_HANDLE Fat){
 2040c40:	deffb004 	addi	sp,sp,-320
 2040c44:	dfc04f15 	stw	ra,316(sp)
 2040c48:	df004e15 	stw	fp,312(sp)
 2040c4c:	df004e04 	addi	fp,sp,312
 2040c50:	e13fff15 	stw	r4,-4(fp)
    unsigned int nCount = 0;
 2040c54:	e03fb215 	stw	zero,-312(fp)
    FAT_BROWSE_HANDLE hBrowse;
    FILE_CONTEXT FileContext;
    
    if (Fat_FileBrowseBegin(Fat, &hBrowse)){
 2040c58:	e17fb304 	addi	r5,fp,-308
 2040c5c:	e13fff17 	ldw	r4,-4(fp)
 2040c60:	20406cc0 	call	20406cc <Fat_FileBrowseBegin>
 2040c64:	1005003a 	cmpeq	r2,r2,zero
 2040c68:	1000091e 	bne	r2,zero,2040c90 <Fat_FileCount+0x50>
        while(Fat_FileBrowseNext(&hBrowse, &FileContext))
 2040c6c:	00000306 	br	2040c7c <Fat_FileCount+0x3c>
            nCount++;
 2040c70:	e0bfb217 	ldw	r2,-312(fp)
 2040c74:	10800044 	addi	r2,r2,1
 2040c78:	e0bfb215 	stw	r2,-312(fp)
    unsigned int nCount = 0;
    FAT_BROWSE_HANDLE hBrowse;
    FILE_CONTEXT FileContext;
    
    if (Fat_FileBrowseBegin(Fat, &hBrowse)){
        while(Fat_FileBrowseNext(&hBrowse, &FileContext))
 2040c7c:	e13fb304 	addi	r4,fp,-308
 2040c80:	e17fb504 	addi	r5,fp,-300
 2040c84:	20407480 	call	2040748 <Fat_FileBrowseNext>
 2040c88:	1004c03a 	cmpne	r2,r2,zero
 2040c8c:	103ff81e 	bne	r2,zero,2040c70 <Fat_FileCount+0x30>
            nCount++;
    }
    
    return nCount;
 2040c90:	e0bfb217 	ldw	r2,-312(fp)
}
 2040c94:	e037883a 	mov	sp,fp
 2040c98:	dfc00117 	ldw	ra,4(sp)
 2040c9c:	df000017 	ldw	fp,0(sp)
 2040ca0:	dec00204 	addi	sp,sp,8
 2040ca4:	f800283a 	ret

02040ca8 <fatSameLongFilename>:

bool fatSameLongFilename(alt_u16 *p1, alt_u16 *p2){
 2040ca8:	defffc04 	addi	sp,sp,-16
 2040cac:	df000315 	stw	fp,12(sp)
 2040cb0:	df000304 	addi	fp,sp,12
 2040cb4:	e13ffe15 	stw	r4,-8(fp)
 2040cb8:	e17fff15 	stw	r5,-4(fp)
    bool bSame = TRUE;
 2040cbc:	00800044 	movi	r2,1
 2040cc0:	e0bffd15 	stw	r2,-12(fp)
    
    while(bSame && ((*p1 != 0) || (*p2 != 0))){
 2040cc4:	00000e06 	br	2040d00 <fatSameLongFilename+0x58>
        if (*p1 != *p2){
 2040cc8:	e0bffe17 	ldw	r2,-8(fp)
 2040ccc:	10c0000b 	ldhu	r3,0(r2)
 2040cd0:	e0bfff17 	ldw	r2,-4(fp)
 2040cd4:	1080000b 	ldhu	r2,0(r2)
 2040cd8:	18ffffcc 	andi	r3,r3,65535
 2040cdc:	10bfffcc 	andi	r2,r2,65535
 2040ce0:	18800126 	beq	r3,r2,2040ce8 <fatSameLongFilename+0x40>
            bSame = FALSE;
 2040ce4:	e03ffd15 	stw	zero,-12(fp)
        }
        p1++;
 2040ce8:	e0bffe17 	ldw	r2,-8(fp)
 2040cec:	10800084 	addi	r2,r2,2
 2040cf0:	e0bffe15 	stw	r2,-8(fp)
        p2++;
 2040cf4:	e0bfff17 	ldw	r2,-4(fp)
 2040cf8:	10800084 	addi	r2,r2,2
 2040cfc:	e0bfff15 	stw	r2,-4(fp)
}

bool fatSameLongFilename(alt_u16 *p1, alt_u16 *p2){
    bool bSame = TRUE;
    
    while(bSame && ((*p1 != 0) || (*p2 != 0))){
 2040d00:	e0bffd17 	ldw	r2,-12(fp)
 2040d04:	1005003a 	cmpeq	r2,r2,zero
 2040d08:	10000a1e 	bne	r2,zero,2040d34 <fatSameLongFilename+0x8c>
 2040d0c:	e0bffe17 	ldw	r2,-8(fp)
 2040d10:	1080000b 	ldhu	r2,0(r2)
 2040d14:	10bfffcc 	andi	r2,r2,65535
 2040d18:	1004c03a 	cmpne	r2,r2,zero
 2040d1c:	103fea1e 	bne	r2,zero,2040cc8 <fatSameLongFilename+0x20>
 2040d20:	e0bfff17 	ldw	r2,-4(fp)
 2040d24:	1080000b 	ldhu	r2,0(r2)
 2040d28:	10bfffcc 	andi	r2,r2,65535
 2040d2c:	1004c03a 	cmpne	r2,r2,zero
 2040d30:	103fe51e 	bne	r2,zero,2040cc8 <fatSameLongFilename+0x20>
        p1++;
        p2++;
        
    }
    
    return bSame;
 2040d34:	e0bffd17 	ldw	r2,-12(fp)
}
 2040d38:	e037883a 	mov	sp,fp
 2040d3c:	df000017 	ldw	fp,0(sp)
 2040d40:	dec00104 	addi	sp,sp,4
 2040d44:	f800283a 	ret

02040d48 <fatComposeShortFilename>:


void fatComposeShortFilename(FAT_DIRECTORY *pDir, char *szFilename){
 2040d48:	defffb04 	addi	sp,sp,-20
 2040d4c:	df000415 	stw	fp,16(sp)
 2040d50:	df000404 	addi	fp,sp,16
 2040d54:	e13ffe15 	stw	r4,-8(fp)
 2040d58:	e17fff15 	stw	r5,-4(fp)
    int i,nPos=0;
 2040d5c:	e03ffc15 	stw	zero,-16(fp)
    
    i=0;
 2040d60:	e03ffd15 	stw	zero,-12(fp)
    while(i < 8 && pDir->Name[i] != 0 && pDir->Name[i] != ' ')
 2040d64:	00000f06 	br	2040da4 <fatComposeShortFilename+0x5c>
        szFilename[nPos++] = pDir->Name[i++];
 2040d68:	e0bffc17 	ldw	r2,-16(fp)
 2040d6c:	1007883a 	mov	r3,r2
 2040d70:	e0bfff17 	ldw	r2,-4(fp)
 2040d74:	1889883a 	add	r4,r3,r2
 2040d78:	e0fffd17 	ldw	r3,-12(fp)
 2040d7c:	e0bffe17 	ldw	r2,-8(fp)
 2040d80:	10c5883a 	add	r2,r2,r3
 2040d84:	10800003 	ldbu	r2,0(r2)
 2040d88:	20800005 	stb	r2,0(r4)
 2040d8c:	e0bffc17 	ldw	r2,-16(fp)
 2040d90:	10800044 	addi	r2,r2,1
 2040d94:	e0bffc15 	stw	r2,-16(fp)
 2040d98:	e0bffd17 	ldw	r2,-12(fp)
 2040d9c:	10800044 	addi	r2,r2,1
 2040da0:	e0bffd15 	stw	r2,-12(fp)

void fatComposeShortFilename(FAT_DIRECTORY *pDir, char *szFilename){
    int i,nPos=0;
    
    i=0;
    while(i < 8 && pDir->Name[i] != 0 && pDir->Name[i] != ' ')
 2040da4:	e0bffd17 	ldw	r2,-12(fp)
 2040da8:	10800208 	cmpgei	r2,r2,8
 2040dac:	1000121e 	bne	r2,zero,2040df8 <fatComposeShortFilename+0xb0>
 2040db0:	e0fffd17 	ldw	r3,-12(fp)
 2040db4:	e0bffe17 	ldw	r2,-8(fp)
 2040db8:	10c5883a 	add	r2,r2,r3
 2040dbc:	10800003 	ldbu	r2,0(r2)
 2040dc0:	10803fcc 	andi	r2,r2,255
 2040dc4:	1080201c 	xori	r2,r2,128
 2040dc8:	10bfe004 	addi	r2,r2,-128
 2040dcc:	1005003a 	cmpeq	r2,r2,zero
 2040dd0:	1000091e 	bne	r2,zero,2040df8 <fatComposeShortFilename+0xb0>
 2040dd4:	e0fffd17 	ldw	r3,-12(fp)
 2040dd8:	e0bffe17 	ldw	r2,-8(fp)
 2040ddc:	10c5883a 	add	r2,r2,r3
 2040de0:	10800003 	ldbu	r2,0(r2)
 2040de4:	10803fcc 	andi	r2,r2,255
 2040de8:	1080201c 	xori	r2,r2,128
 2040dec:	10bfe004 	addi	r2,r2,-128
 2040df0:	10800818 	cmpnei	r2,r2,32
 2040df4:	103fdc1e 	bne	r2,zero,2040d68 <fatComposeShortFilename+0x20>
        szFilename[nPos++] = pDir->Name[i++];
    
    if (pDir->Attribute & (ATTR_ARCHIVE | ATTR_DIRECTORY)){
 2040df8:	e0bffe17 	ldw	r2,-8(fp)
 2040dfc:	108002c3 	ldbu	r2,11(r2)
 2040e00:	10803fcc 	andi	r2,r2,255
 2040e04:	10800c0c 	andi	r2,r2,48
 2040e08:	1005003a 	cmpeq	r2,r2,zero
 2040e0c:	1000381e 	bne	r2,zero,2040ef0 <fatComposeShortFilename+0x1a8>
        if (pDir->Attribute & (ATTR_ARCHIVE | ATTR_DIRECTORY))     
 2040e10:	e0bffe17 	ldw	r2,-8(fp)
 2040e14:	108002c3 	ldbu	r2,11(r2)
 2040e18:	10803fcc 	andi	r2,r2,255
 2040e1c:	10800c0c 	andi	r2,r2,48
 2040e20:	1005003a 	cmpeq	r2,r2,zero
 2040e24:	1000091e 	bne	r2,zero,2040e4c <fatComposeShortFilename+0x104>
            szFilename[nPos++] = '.';   
 2040e28:	e0bffc17 	ldw	r2,-16(fp)
 2040e2c:	1007883a 	mov	r3,r2
 2040e30:	e0bfff17 	ldw	r2,-4(fp)
 2040e34:	1887883a 	add	r3,r3,r2
 2040e38:	00800b84 	movi	r2,46
 2040e3c:	18800005 	stb	r2,0(r3)
 2040e40:	e0bffc17 	ldw	r2,-16(fp)
 2040e44:	10800044 	addi	r2,r2,1
 2040e48:	e0bffc15 	stw	r2,-16(fp)
        i=0;
 2040e4c:	e03ffd15 	stw	zero,-12(fp)
        while(i < 3 && pDir->Extension[i] != 0 && pDir->Extension[i] != ' ')
 2040e50:	00001006 	br	2040e94 <fatComposeShortFilename+0x14c>
            szFilename[nPos++] = pDir->Extension[i++];
 2040e54:	e0bffc17 	ldw	r2,-16(fp)
 2040e58:	1007883a 	mov	r3,r2
 2040e5c:	e0bfff17 	ldw	r2,-4(fp)
 2040e60:	1889883a 	add	r4,r3,r2
 2040e64:	e0fffd17 	ldw	r3,-12(fp)
 2040e68:	e0bffe17 	ldw	r2,-8(fp)
 2040e6c:	1885883a 	add	r2,r3,r2
 2040e70:	10800204 	addi	r2,r2,8
 2040e74:	10800003 	ldbu	r2,0(r2)
 2040e78:	20800005 	stb	r2,0(r4)
 2040e7c:	e0bffc17 	ldw	r2,-16(fp)
 2040e80:	10800044 	addi	r2,r2,1
 2040e84:	e0bffc15 	stw	r2,-16(fp)
 2040e88:	e0bffd17 	ldw	r2,-12(fp)
 2040e8c:	10800044 	addi	r2,r2,1
 2040e90:	e0bffd15 	stw	r2,-12(fp)
    
    if (pDir->Attribute & (ATTR_ARCHIVE | ATTR_DIRECTORY)){
        if (pDir->Attribute & (ATTR_ARCHIVE | ATTR_DIRECTORY))     
            szFilename[nPos++] = '.';   
        i=0;
        while(i < 3 && pDir->Extension[i] != 0 && pDir->Extension[i] != ' ')
 2040e94:	e0bffd17 	ldw	r2,-12(fp)
 2040e98:	108000c8 	cmpgei	r2,r2,3
 2040e9c:	1000141e 	bne	r2,zero,2040ef0 <fatComposeShortFilename+0x1a8>
 2040ea0:	e0fffd17 	ldw	r3,-12(fp)
 2040ea4:	e0bffe17 	ldw	r2,-8(fp)
 2040ea8:	1885883a 	add	r2,r3,r2
 2040eac:	10800204 	addi	r2,r2,8
 2040eb0:	10800003 	ldbu	r2,0(r2)
 2040eb4:	10803fcc 	andi	r2,r2,255
 2040eb8:	1080201c 	xori	r2,r2,128
 2040ebc:	10bfe004 	addi	r2,r2,-128
 2040ec0:	1005003a 	cmpeq	r2,r2,zero
 2040ec4:	10000a1e 	bne	r2,zero,2040ef0 <fatComposeShortFilename+0x1a8>
 2040ec8:	e0fffd17 	ldw	r3,-12(fp)
 2040ecc:	e0bffe17 	ldw	r2,-8(fp)
 2040ed0:	1885883a 	add	r2,r3,r2
 2040ed4:	10800204 	addi	r2,r2,8
 2040ed8:	10800003 	ldbu	r2,0(r2)
 2040edc:	10803fcc 	andi	r2,r2,255
 2040ee0:	1080201c 	xori	r2,r2,128
 2040ee4:	10bfe004 	addi	r2,r2,-128
 2040ee8:	10800818 	cmpnei	r2,r2,32
 2040eec:	103fd91e 	bne	r2,zero,2040e54 <fatComposeShortFilename+0x10c>
            szFilename[nPos++] = pDir->Extension[i++];
    }            
    szFilename[nPos++] = 0;
 2040ef0:	e0bffc17 	ldw	r2,-16(fp)
 2040ef4:	1007883a 	mov	r3,r2
 2040ef8:	e0bfff17 	ldw	r2,-4(fp)
 2040efc:	1885883a 	add	r2,r3,r2
 2040f00:	10000005 	stb	zero,0(r2)
 2040f04:	e0bffc17 	ldw	r2,-16(fp)
 2040f08:	10800044 	addi	r2,r2,1
 2040f0c:	e0bffc15 	stw	r2,-16(fp)
}
 2040f10:	e037883a 	mov	sp,fp
 2040f14:	df000017 	ldw	fp,0(sp)
 2040f18:	dec00104 	addi	sp,sp,4
 2040f1c:	f800283a 	ret

02040f20 <Fat_FileExist>:





bool Fat_FileExist(FAT_HANDLE Fat, const char *pFilename){
 2040f20:	deffaf04 	addi	sp,sp,-324
 2040f24:	dfc05015 	stw	ra,320(sp)
 2040f28:	df004f15 	stw	fp,316(sp)
 2040f2c:	df004f04 	addi	fp,sp,316
 2040f30:	e13ffe15 	stw	r4,-8(fp)
 2040f34:	e17fff15 	stw	r5,-4(fp)
    bool bFind = FALSE;
 2040f38:	e03fb115 	stw	zero,-316(fp)
    FAT_BROWSE_HANDLE hBrowse;     
    FILE_CONTEXT FileContext;
    if (Fat_FileBrowseBegin(Fat, &hBrowse)){
 2040f3c:	e17fb204 	addi	r5,fp,-312
 2040f40:	e13ffe17 	ldw	r4,-8(fp)
 2040f44:	20406cc0 	call	20406cc <Fat_FileBrowseBegin>
 2040f48:	1005003a 	cmpeq	r2,r2,zero
 2040f4c:	10001a1e 	bne	r2,zero,2040fb8 <Fat_FileExist+0x98>
        while (!bFind && Fat_FileBrowseNext(&hBrowse, &FileContext)){
 2040f50:	00000f06 	br	2040f90 <Fat_FileExist+0x70>
            if (FileContext.bLongFilename){
 2040f54:	e0bff417 	ldw	r2,-48(fp)
 2040f58:	1005003a 	cmpeq	r2,r2,zero
 2040f5c:	1000051e 	bne	r2,zero,2040f74 <Fat_FileExist+0x54>
                bFind = fatSameLongFilename((alt_u16 *)FileContext.szName, (alt_u16 *)pFilename);
 2040f60:	e13fb404 	addi	r4,fp,-304
 2040f64:	e17fff17 	ldw	r5,-4(fp)
 2040f68:	2040ca80 	call	2040ca8 <fatSameLongFilename>
 2040f6c:	e0bfb115 	stw	r2,-316(fp)
 2040f70:	00000706 	br	2040f90 <Fat_FileExist+0x70>
            }else{
                if (strcmpi(FileContext.szName, pFilename) == 0)
 2040f74:	e13fb404 	addi	r4,fp,-304
 2040f78:	e17fff17 	ldw	r5,-4(fp)
 2040f7c:	2046fa00 	call	2046fa0 <strcasecmp>
 2040f80:	1004c03a 	cmpne	r2,r2,zero
 2040f84:	1000021e 	bne	r2,zero,2040f90 <Fat_FileExist+0x70>
                    bFind = TRUE;
 2040f88:	00800044 	movi	r2,1
 2040f8c:	e0bfb115 	stw	r2,-316(fp)
bool Fat_FileExist(FAT_HANDLE Fat, const char *pFilename){
    bool bFind = FALSE;
    FAT_BROWSE_HANDLE hBrowse;     
    FILE_CONTEXT FileContext;
    if (Fat_FileBrowseBegin(Fat, &hBrowse)){
        while (!bFind && Fat_FileBrowseNext(&hBrowse, &FileContext)){
 2040f90:	e0bfb117 	ldw	r2,-316(fp)
 2040f94:	1004c03a 	cmpne	r2,r2,zero
 2040f98:	1000051e 	bne	r2,zero,2040fb0 <Fat_FileExist+0x90>
 2040f9c:	e13fb204 	addi	r4,fp,-312
 2040fa0:	e17fb404 	addi	r5,fp,-304
 2040fa4:	20407480 	call	2040748 <Fat_FileBrowseNext>
 2040fa8:	1004c03a 	cmpne	r2,r2,zero
 2040fac:	103fe91e 	bne	r2,zero,2040f54 <Fat_FileExist+0x34>
            }else{
                if (strcmpi(FileContext.szName, pFilename) == 0)
                    bFind = TRUE;
            }    
        } // while 
        Fat_FileClose(Fat); 
 2040fb0:	e13ffe17 	ldw	r4,-8(fp)
 2040fb4:	204171c0 	call	204171c <Fat_FileClose>
    }
    return bFind;            
 2040fb8:	e0bfb117 	ldw	r2,-316(fp)
}    
 2040fbc:	e037883a 	mov	sp,fp
 2040fc0:	dfc00117 	ldw	ra,4(sp)
 2040fc4:	df000017 	ldw	fp,0(sp)
 2040fc8:	dec00204 	addi	sp,sp,8
 2040fcc:	f800283a 	ret

02040fd0 <Fat_FileOpen>:
 
// File Access
FAT_FILE_HANDLE Fat_FileOpen(FAT_HANDLE Fat, const char *pFilename){
 2040fd0:	deffae04 	addi	sp,sp,-328
 2040fd4:	dfc05115 	stw	ra,324(sp)
 2040fd8:	df005015 	stw	fp,320(sp)
 2040fdc:	df005004 	addi	fp,sp,320
 2040fe0:	e13ffe15 	stw	r4,-8(fp)
 2040fe4:	e17fff15 	stw	r5,-4(fp)
    bool bFind = FALSE;
 2040fe8:	e03fb115 	stw	zero,-316(fp)
    FAT_BROWSE_HANDLE hBrowse;     
    FILE_CONTEXT FileContext;
    FAT_FILE_INFO *pFile = 0;
 2040fec:	e03fb015 	stw	zero,-320(fp)
    
    if (Fat_FileBrowseBegin(Fat, &hBrowse)){
 2040ff0:	e17fb204 	addi	r5,fp,-312
 2040ff4:	e13ffe17 	ldw	r4,-8(fp)
 2040ff8:	20406cc0 	call	20406cc <Fat_FileBrowseBegin>
 2040ffc:	1005003a 	cmpeq	r2,r2,zero
 2041000:	1000371e 	bne	r2,zero,20410e0 <Fat_FileOpen+0x110>
        while (!bFind && Fat_FileBrowseNext(&hBrowse, &FileContext)){
 2041004:	00000f06 	br	2041044 <Fat_FileOpen+0x74>
            if (FileContext.bLongFilename){
 2041008:	e0bff417 	ldw	r2,-48(fp)
 204100c:	1005003a 	cmpeq	r2,r2,zero
 2041010:	1000051e 	bne	r2,zero,2041028 <Fat_FileOpen+0x58>
                bFind = fatSameLongFilename((alt_u16 *)FileContext.szName, (alt_u16 *)pFilename);
 2041014:	e13fb404 	addi	r4,fp,-304
 2041018:	e17fff17 	ldw	r5,-4(fp)
 204101c:	2040ca80 	call	2040ca8 <fatSameLongFilename>
 2041020:	e0bfb115 	stw	r2,-316(fp)
 2041024:	00000706 	br	2041044 <Fat_FileOpen+0x74>
            }else{
                if (strcmpi(FileContext.szName, pFilename) == 0)
 2041028:	e13fb404 	addi	r4,fp,-304
 204102c:	e17fff17 	ldw	r5,-4(fp)
 2041030:	2046fa00 	call	2046fa0 <strcasecmp>
 2041034:	1004c03a 	cmpne	r2,r2,zero
 2041038:	1000021e 	bne	r2,zero,2041044 <Fat_FileOpen+0x74>
                    bFind = TRUE;
 204103c:	00800044 	movi	r2,1
 2041040:	e0bfb115 	stw	r2,-316(fp)
    FAT_BROWSE_HANDLE hBrowse;     
    FILE_CONTEXT FileContext;
    FAT_FILE_INFO *pFile = 0;
    
    if (Fat_FileBrowseBegin(Fat, &hBrowse)){
        while (!bFind && Fat_FileBrowseNext(&hBrowse, &FileContext)){
 2041044:	e0bfb117 	ldw	r2,-316(fp)
 2041048:	1004c03a 	cmpne	r2,r2,zero
 204104c:	1000051e 	bne	r2,zero,2041064 <Fat_FileOpen+0x94>
 2041050:	e13fb204 	addi	r4,fp,-312
 2041054:	e17fb404 	addi	r5,fp,-304
 2041058:	20407480 	call	2040748 <Fat_FileBrowseNext>
 204105c:	1004c03a 	cmpne	r2,r2,zero
 2041060:	103fe91e 	bne	r2,zero,2041008 <Fat_FileOpen+0x38>
                if (strcmpi(FileContext.szName, pFilename) == 0)
                    bFind = TRUE;
            }    
        } // while 
        
        if (bFind){
 2041064:	e0bfb117 	ldw	r2,-316(fp)
 2041068:	1005003a 	cmpeq	r2,r2,zero
 204106c:	10001c1e 	bne	r2,zero,20410e0 <Fat_FileOpen+0x110>
            pFile = malloc(sizeof(FAT_FILE_INFO));
 2041070:	01005004 	movi	r4,320
 2041074:	20464800 	call	2046480 <malloc>
 2041078:	e0bfb015 	stw	r2,-320(fp)
            if (pFile){
 204107c:	e0bfb017 	ldw	r2,-320(fp)
 2041080:	1005003a 	cmpeq	r2,r2,zero
 2041084:	1000161e 	bne	r2,zero,20410e0 <Fat_FileOpen+0x110>
                pFile->OpenAttribute = FILE_OPEN_READ; 
 2041088:	e0ffb017 	ldw	r3,-320(fp)
 204108c:	00800044 	movi	r2,1
 2041090:	18800115 	stw	r2,4(r3)
                pFile->SeekPos = 0;
 2041094:	e0bfb017 	ldw	r2,-320(fp)
 2041098:	10000215 	stw	zero,8(r2)
                pFile->Directory = FileContext;
 204109c:	e0bfb017 	ldw	r2,-320(fp)
 20410a0:	11000504 	addi	r4,r2,20
 20410a4:	e17fb404 	addi	r5,fp,-304
 20410a8:	01804a04 	movi	r6,296
 20410ac:	2046bd40 	call	2046bd4 <memcpy>
                pFile->IsOpened = TRUE;
 20410b0:	e0ffb017 	ldw	r3,-320(fp)
 20410b4:	00800044 	movi	r2,1
 20410b8:	18800015 	stw	r2,0(r3)
                pFile->Cluster = FileContext.FirstLogicalCluster;
 20410bc:	e0bffc8b 	ldhu	r2,-14(fp)
 20410c0:	10ffffcc 	andi	r3,r2,65535
 20410c4:	e0bfb017 	ldw	r2,-320(fp)
 20410c8:	10c00315 	stw	r3,12(r2)
                pFile->ClusterSeq = 0;
 20410cc:	e0bfb017 	ldw	r2,-320(fp)
 20410d0:	10000415 	stw	zero,16(r2)
                pFile->Fat = Fat;
 20410d4:	e0ffb017 	ldw	r3,-320(fp)
 20410d8:	e0bffe17 	ldw	r2,-8(fp)
 20410dc:	18804f15 	stw	r2,316(r3)
            }    
        }    
    }  

    
    return (FAT_FILE_HANDLE)pFile;  
 20410e0:	e0bfb017 	ldw	r2,-320(fp)
}
 20410e4:	e037883a 	mov	sp,fp
 20410e8:	dfc00117 	ldw	ra,4(sp)
 20410ec:	df000017 	ldw	fp,0(sp)
 20410f0:	dec00204 	addi	sp,sp,8
 20410f4:	f800283a 	ret

020410f8 <Fat_FileSize>:


unsigned int Fat_FileSize(FAT_FILE_HANDLE hFileHandle){
 20410f8:	defffc04 	addi	sp,sp,-16
 20410fc:	df000315 	stw	fp,12(sp)
 2041100:	df000304 	addi	fp,sp,12
 2041104:	e13ffe15 	stw	r4,-8(fp)
    FAT_FILE_INFO *f = (FAT_FILE_INFO *)hFileHandle;
 2041108:	e0bffe17 	ldw	r2,-8(fp)
 204110c:	e0bffd15 	stw	r2,-12(fp)
    if (f->IsOpened)
 2041110:	e0bffd17 	ldw	r2,-12(fp)
 2041114:	10800017 	ldw	r2,0(r2)
 2041118:	1005003a 	cmpeq	r2,r2,zero
 204111c:	1000041e 	bne	r2,zero,2041130 <Fat_FileSize+0x38>
        return f->Directory.FileSize;
 2041120:	e0bffd17 	ldw	r2,-12(fp)
 2041124:	10804e17 	ldw	r2,312(r2)
 2041128:	e0bfff15 	stw	r2,-4(fp)
 204112c:	00000106 	br	2041134 <Fat_FileSize+0x3c>
    return 0;        
 2041130:	e03fff15 	stw	zero,-4(fp)
 2041134:	e0bfff17 	ldw	r2,-4(fp)
}
 2041138:	e037883a 	mov	sp,fp
 204113c:	df000017 	ldw	fp,0(sp)
 2041140:	dec00104 	addi	sp,sp,4
 2041144:	f800283a 	ret

02041148 <Fat_FileRead>:


bool Fat_FileRead(FAT_FILE_HANDLE hFileHandle, void *pBuffer, const int nBufferSize){
 2041148:	deffee04 	addi	sp,sp,-72
 204114c:	dfc01115 	stw	ra,68(sp)
 2041150:	df001015 	stw	fp,64(sp)
 2041154:	df001004 	addi	fp,sp,64
 2041158:	e13ffc15 	stw	r4,-16(fp)
 204115c:	e17ffd15 	stw	r5,-12(fp)
 2041160:	e1bffe15 	stw	r6,-8(fp)
    FAT_FILE_INFO *f = (FAT_FILE_INFO *)hFileHandle;
 2041164:	e0bffc17 	ldw	r2,-16(fp)
 2041168:	e0bffb15 	stw	r2,-20(fp)
    VOLUME_INFO *pVol;
    alt_u32 Pos, PhysicalSecter, NextCluster, Cluster;
    alt_u32 BytesPerCluster, nReadCount=0, nClusterSeq;
 204116c:	e03ff415 	stw	zero,-48(fp)
    int s;
    bool bSuccess= TRUE;
 2041170:	00800044 	movi	r2,1
 2041174:	e0bff115 	stw	r2,-60(fp)
    
    if (!f || !f->Fat)
 2041178:	e0bffb17 	ldw	r2,-20(fp)
 204117c:	1005003a 	cmpeq	r2,r2,zero
 2041180:	1000041e 	bne	r2,zero,2041194 <Fat_FileRead+0x4c>
 2041184:	e0bffb17 	ldw	r2,-20(fp)
 2041188:	10804f17 	ldw	r2,316(r2)
 204118c:	1004c03a 	cmpne	r2,r2,zero
 2041190:	1000021e 	bne	r2,zero,204119c <Fat_FileRead+0x54>
        return FALSE;
 2041194:	e03fff15 	stw	zero,-4(fp)
 2041198:	00011106 	br	20415e0 <Fat_FileRead+0x498>
    pVol = (VOLUME_INFO *)f->Fat;        
 204119c:	e0bffb17 	ldw	r2,-20(fp)
 20411a0:	10804f17 	ldw	r2,316(r2)
 20411a4:	e0bffa15 	stw	r2,-24(fp)
    
    if (!f->IsOpened){
 20411a8:	e0bffb17 	ldw	r2,-20(fp)
 20411ac:	10800017 	ldw	r2,0(r2)
 20411b0:	1004c03a 	cmpne	r2,r2,zero
 20411b4:	1000031e 	bne	r2,zero,20411c4 <Fat_FileRead+0x7c>
        FAT_DEBUG(("[FAT] Fat_FileRead, file not opened\r\n"));
        return bSuccess;
 20411b8:	e0bff117 	ldw	r2,-60(fp)
 20411bc:	e0bfff15 	stw	r2,-4(fp)
 20411c0:	00010706 	br	20415e0 <Fat_FileRead+0x498>
    }        
        
    BytesPerCluster = pVol->nBytesPerCluster; //gVolumeInfo.BPB_BytsPerSec * gVolumeInfo.BPB_SecPerCluster;  
 20411c4:	e0bffa17 	ldw	r2,-24(fp)
 20411c8:	10800c17 	ldw	r2,48(r2)
 20411cc:	e0bff515 	stw	r2,-44(fp)
    Pos = f->SeekPos;
 20411d0:	e0bffb17 	ldw	r2,-20(fp)
 20411d4:	10800217 	ldw	r2,8(r2)
 20411d8:	e0bff915 	stw	r2,-28(fp)
    if (BytesPerCluster == 32768){
 20411dc:	e0fff517 	ldw	r3,-44(fp)
 20411e0:	00a00014 	movui	r2,32768
 20411e4:	18800a1e 	bne	r3,r2,2041210 <Fat_FileRead+0xc8>
        nClusterSeq = Pos >> 15;
 20411e8:	e0bff917 	ldw	r2,-28(fp)
 20411ec:	1004d3fa 	srli	r2,r2,15
 20411f0:	e0bff315 	stw	r2,-52(fp)
        Pos -= (f->ClusterSeq << 15);
 20411f4:	e0bffb17 	ldw	r2,-20(fp)
 20411f8:	10800417 	ldw	r2,16(r2)
 20411fc:	100693fa 	slli	r3,r2,15
 2041200:	e0bff917 	ldw	r2,-28(fp)
 2041204:	10c5c83a 	sub	r2,r2,r3
 2041208:	e0bff915 	stw	r2,-28(fp)
 204120c:	00002506 	br	20412a4 <Fat_FileRead+0x15c>
    }else if (BytesPerCluster == 16384){
 2041210:	e0bff517 	ldw	r2,-44(fp)
 2041214:	10900018 	cmpnei	r2,r2,16384
 2041218:	10000a1e 	bne	r2,zero,2041244 <Fat_FileRead+0xfc>
        nClusterSeq = Pos >> 14;
 204121c:	e0bff917 	ldw	r2,-28(fp)
 2041220:	1004d3ba 	srli	r2,r2,14
 2041224:	e0bff315 	stw	r2,-52(fp)
        Pos -= (f->ClusterSeq << 14);
 2041228:	e0bffb17 	ldw	r2,-20(fp)
 204122c:	10800417 	ldw	r2,16(r2)
 2041230:	100693ba 	slli	r3,r2,14
 2041234:	e0bff917 	ldw	r2,-28(fp)
 2041238:	10c5c83a 	sub	r2,r2,r3
 204123c:	e0bff915 	stw	r2,-28(fp)
 2041240:	00001806 	br	20412a4 <Fat_FileRead+0x15c>
    }else if (BytesPerCluster == 2048){
 2041244:	e0bff517 	ldw	r2,-44(fp)
 2041248:	10820018 	cmpnei	r2,r2,2048
 204124c:	10000a1e 	bne	r2,zero,2041278 <Fat_FileRead+0x130>
        nClusterSeq = Pos >> 11;
 2041250:	e0bff917 	ldw	r2,-28(fp)
 2041254:	1004d2fa 	srli	r2,r2,11
 2041258:	e0bff315 	stw	r2,-52(fp)
        Pos -= (f->ClusterSeq << 11);
 204125c:	e0bffb17 	ldw	r2,-20(fp)
 2041260:	10800417 	ldw	r2,16(r2)
 2041264:	100692fa 	slli	r3,r2,11
 2041268:	e0bff917 	ldw	r2,-28(fp)
 204126c:	10c5c83a 	sub	r2,r2,r3
 2041270:	e0bff915 	stw	r2,-28(fp)
 2041274:	00000b06 	br	20412a4 <Fat_FileRead+0x15c>
    }else{        
        nClusterSeq = Pos/BytesPerCluster;
 2041278:	e13ff917 	ldw	r4,-28(fp)
 204127c:	e17ff517 	ldw	r5,-44(fp)
 2041280:	2045ca40 	call	2045ca4 <__udivsi3>
 2041284:	e0bff315 	stw	r2,-52(fp)
        Pos -= f->ClusterSeq*BytesPerCluster;
 2041288:	e0bffb17 	ldw	r2,-20(fp)
 204128c:	10c00417 	ldw	r3,16(r2)
 2041290:	e0bff517 	ldw	r2,-44(fp)
 2041294:	1887383a 	mul	r3,r3,r2
 2041298:	e0bff917 	ldw	r2,-28(fp)
 204129c:	10c5c83a 	sub	r2,r2,r3
 20412a0:	e0bff915 	stw	r2,-28(fp)
    }    
        
       
    Cluster = f->Cluster;
 20412a4:	e0bffb17 	ldw	r2,-20(fp)
 20412a8:	10800317 	ldw	r2,12(r2)
 20412ac:	e0bff615 	stw	r2,-40(fp)
    if (nClusterSeq != f->ClusterSeq){
 20412b0:	e0bffb17 	ldw	r2,-20(fp)
 20412b4:	10c00417 	ldw	r3,16(r2)
 20412b8:	e0bff317 	ldw	r2,-52(fp)
 20412bc:	1880b726 	beq	r3,r2,204159c <Fat_FileRead+0x454>
        Cluster = f->Cluster;  //11/20/2007, richard
 20412c0:	e0bffb17 	ldw	r2,-20(fp)
 20412c4:	10800317 	ldw	r2,12(r2)
 20412c8:	e0bff615 	stw	r2,-40(fp)
        // move to first clustor for reading
        while (Pos >= BytesPerCluster && bSuccess){
 20412cc:	00001706 	br	204132c <Fat_FileRead+0x1e4>
            // go to next cluster
            NextCluster = fatNextCluster(pVol, Cluster); 
 20412d0:	e13ffa17 	ldw	r4,-24(fp)
 20412d4:	e17ff617 	ldw	r5,-40(fp)
 20412d8:	2041adc0 	call	2041adc <fatNextCluster>
 20412dc:	e0bff715 	stw	r2,-36(fp)
            if (NextCluster == 0){
 20412e0:	e0bff717 	ldw	r2,-36(fp)
 20412e4:	1004c03a 	cmpne	r2,r2,zero
 20412e8:	1000021e 	bne	r2,zero,20412f4 <Fat_FileRead+0x1ac>
                bSuccess = FALSE;
 20412ec:	e03ff115 	stw	zero,-60(fp)
 20412f0:	00000206 	br	20412fc <Fat_FileRead+0x1b4>
                FAT_DEBUG(("[FAT] Fat_FileRead, no next Cluster, current Cluster=%d\r\n", Cluster));
            }else{
                Cluster = NextCluster;
 20412f4:	e0bff717 	ldw	r2,-36(fp)
 20412f8:	e0bff615 	stw	r2,-40(fp)
            }        
            Pos -= BytesPerCluster;
 20412fc:	e0fff917 	ldw	r3,-28(fp)
 2041300:	e0bff517 	ldw	r2,-44(fp)
 2041304:	1885c83a 	sub	r2,r3,r2
 2041308:	e0bff915 	stw	r2,-28(fp)
            f->Cluster = Cluster;
 204130c:	e0fffb17 	ldw	r3,-20(fp)
 2041310:	e0bff617 	ldw	r2,-40(fp)
 2041314:	18800315 	stw	r2,12(r3)
            f->ClusterSeq++; 
 2041318:	e0bffb17 	ldw	r2,-20(fp)
 204131c:	10800417 	ldw	r2,16(r2)
 2041320:	10c00044 	addi	r3,r2,1
 2041324:	e0bffb17 	ldw	r2,-20(fp)
 2041328:	10c00415 	stw	r3,16(r2)
       
    Cluster = f->Cluster;
    if (nClusterSeq != f->ClusterSeq){
        Cluster = f->Cluster;  //11/20/2007, richard
        // move to first clustor for reading
        while (Pos >= BytesPerCluster && bSuccess){
 204132c:	e0fff917 	ldw	r3,-28(fp)
 2041330:	e0bff517 	ldw	r2,-44(fp)
 2041334:	18809936 	bltu	r3,r2,204159c <Fat_FileRead+0x454>
 2041338:	e0bff117 	ldw	r2,-60(fp)
 204133c:	1004c03a 	cmpne	r2,r2,zero
 2041340:	103fe31e 	bne	r2,zero,20412d0 <Fat_FileRead+0x188>
            f->ClusterSeq++; 
        }
    }            
    
    // reading
    while(nReadCount < nBufferSize && bSuccess){
 2041344:	00009506 	br	204159c <Fat_FileRead+0x454>
        if (pVol->BPB_SecPerCluster == 32)
 2041348:	e0bffa17 	ldw	r2,-24(fp)
 204134c:	10800717 	ldw	r2,28(r2)
 2041350:	10800818 	cmpnei	r2,r2,32
 2041354:	1000081e 	bne	r2,zero,2041378 <Fat_FileRead+0x230>
            PhysicalSecter = ((Cluster-2) << 5) + pVol->DataEntrySecter; // -2: FAT0 & FAT1 are reserved
 2041358:	e0bff617 	ldw	r2,-40(fp)
 204135c:	10bfff84 	addi	r2,r2,-2
 2041360:	1006917a 	slli	r3,r2,5
 2041364:	e0bffa17 	ldw	r2,-24(fp)
 2041368:	10800f17 	ldw	r2,60(r2)
 204136c:	1885883a 	add	r2,r3,r2
 2041370:	e0bff815 	stw	r2,-32(fp)
 2041374:	00001506 	br	20413cc <Fat_FileRead+0x284>
        else if (pVol->BPB_SecPerCluster == 64)
 2041378:	e0bffa17 	ldw	r2,-24(fp)
 204137c:	10800717 	ldw	r2,28(r2)
 2041380:	10801018 	cmpnei	r2,r2,64
 2041384:	1000081e 	bne	r2,zero,20413a8 <Fat_FileRead+0x260>
            PhysicalSecter = ((Cluster-2) << 6) + pVol->DataEntrySecter; // -2: FAT0 & FAT1 are reserved
 2041388:	e0bff617 	ldw	r2,-40(fp)
 204138c:	10bfff84 	addi	r2,r2,-2
 2041390:	100691ba 	slli	r3,r2,6
 2041394:	e0bffa17 	ldw	r2,-24(fp)
 2041398:	10800f17 	ldw	r2,60(r2)
 204139c:	1885883a 	add	r2,r3,r2
 20413a0:	e0bff815 	stw	r2,-32(fp)
 20413a4:	00000906 	br	20413cc <Fat_FileRead+0x284>
        else
            PhysicalSecter = (Cluster-2)*pVol->BPB_SecPerCluster + pVol->DataEntrySecter; // -2: FAT0 & FAT1 are reserved
 20413a8:	e0bff617 	ldw	r2,-40(fp)
 20413ac:	10ffff84 	addi	r3,r2,-2
 20413b0:	e0bffa17 	ldw	r2,-24(fp)
 20413b4:	10800717 	ldw	r2,28(r2)
 20413b8:	1887383a 	mul	r3,r3,r2
 20413bc:	e0bffa17 	ldw	r2,-24(fp)
 20413c0:	10800f17 	ldw	r2,60(r2)
 20413c4:	1885883a 	add	r2,r3,r2
 20413c8:	e0bff815 	stw	r2,-32(fp)
        for(s=0;s<pVol->BPB_SecPerCluster && nReadCount < nBufferSize && bSuccess;s++){
 20413cc:	e03ff215 	stw	zero,-56(fp)
 20413d0:	00005206 	br	204151c <Fat_FileRead+0x3d4>
            if (Pos >= pVol->BPB_BytsPerSec){
 20413d4:	e0bffa17 	ldw	r2,-24(fp)
 20413d8:	10c00617 	ldw	r3,24(r2)
 20413dc:	e0bff917 	ldw	r2,-28(fp)
 20413e0:	10c00636 	bltu	r2,r3,20413fc <Fat_FileRead+0x2b4>
                Pos -= pVol->BPB_BytsPerSec;
 20413e4:	e0bffa17 	ldw	r2,-24(fp)
 20413e8:	10c00617 	ldw	r3,24(r2)
 20413ec:	e0bff917 	ldw	r2,-28(fp)
 20413f0:	10c5c83a 	sub	r2,r2,r3
 20413f4:	e0bff915 	stw	r2,-28(fp)
 20413f8:	00004206 	br	2041504 <Fat_FileRead+0x3bc>
            }else{
                // read secter data
                bSuccess = fatReadSecter(pVol, PhysicalSecter);
 20413fc:	e13ffa17 	ldw	r4,-24(fp)
 2041400:	e17ff817 	ldw	r5,-32(fp)
 2041404:	20423880 	call	2042388 <fatReadSecter>
 2041408:	e0bff115 	stw	r2,-60(fp)
                
                if (bSuccess){
 204140c:	e0bff117 	ldw	r2,-60(fp)
 2041410:	1005003a 	cmpeq	r2,r2,zero
 2041414:	10003b1e 	bne	r2,zero,2041504 <Fat_FileRead+0x3bc>
                    // copy data to user buffer
                
                    int nCopyCount;
                    nCopyCount = pVol->BPB_BytsPerSec;
 2041418:	e0bffa17 	ldw	r2,-24(fp)
 204141c:	10800617 	ldw	r2,24(r2)
 2041420:	e0bff015 	stw	r2,-64(fp)
                    if (Pos)
 2041424:	e0bff917 	ldw	r2,-28(fp)
 2041428:	1005003a 	cmpeq	r2,r2,zero
 204142c:	1000041e 	bne	r2,zero,2041440 <Fat_FileRead+0x2f8>
                        nCopyCount -= Pos;
 2041430:	e0bff017 	ldw	r2,-64(fp)
 2041434:	e0fff917 	ldw	r3,-28(fp)
 2041438:	10c5c83a 	sub	r2,r2,r3
 204143c:	e0bff015 	stw	r2,-64(fp)
                    if (nCopyCount > (nBufferSize-nReadCount))
 2041440:	e13ff017 	ldw	r4,-64(fp)
 2041444:	e0fffe17 	ldw	r3,-8(fp)
 2041448:	e0bff417 	ldw	r2,-48(fp)
 204144c:	1885c83a 	sub	r2,r3,r2
 2041450:	1100042e 	bgeu	r2,r4,2041464 <Fat_FileRead+0x31c>
                        nCopyCount = nBufferSize-nReadCount;
 2041454:	e0bffe17 	ldw	r2,-8(fp)
 2041458:	e0fff417 	ldw	r3,-48(fp)
 204145c:	10c5c83a 	sub	r2,r2,r3
 2041460:	e0bff015 	stw	r2,-64(fp)
                    if (nCopyCount == 512){
 2041464:	e0bff017 	ldw	r2,-64(fp)
 2041468:	10808018 	cmpnei	r2,r2,512
 204146c:	1000121e 	bne	r2,zero,20414b8 <Fat_FileRead+0x370>
                        memcpy((char *)pBuffer+nReadCount, pVol->Secter_Data, 512);
 2041470:	e0fffd17 	ldw	r3,-12(fp)
 2041474:	e0bff417 	ldw	r2,-48(fp)
 2041478:	1887883a 	add	r3,r3,r2
 204147c:	e0bffa17 	ldw	r2,-24(fp)
 2041480:	10801004 	addi	r2,r2,64
 2041484:	1809883a 	mov	r4,r3
 2041488:	100b883a 	mov	r5,r2
 204148c:	01808004 	movi	r6,512
 2041490:	2046bd40 	call	2046bd4 <memcpy>
                        nReadCount += nCopyCount;
 2041494:	e0fff017 	ldw	r3,-64(fp)
 2041498:	e0bff417 	ldw	r2,-48(fp)
 204149c:	10c5883a 	add	r2,r2,r3
 20414a0:	e0bff415 	stw	r2,-48(fp)
                        if (Pos > 0)
 20414a4:	e0bff917 	ldw	r2,-28(fp)
 20414a8:	1005003a 	cmpeq	r2,r2,zero
 20414ac:	1000151e 	bne	r2,zero,2041504 <Fat_FileRead+0x3bc>
                            Pos = 0;
 20414b0:	e03ff915 	stw	zero,-28(fp)
 20414b4:	00001306 	br	2041504 <Fat_FileRead+0x3bc>
                    }else{
                        memcpy((void *)((char *)pBuffer+nReadCount), pVol->Secter_Data+Pos,nCopyCount);
 20414b8:	e0fffd17 	ldw	r3,-12(fp)
 20414bc:	e0bff417 	ldw	r2,-48(fp)
 20414c0:	1889883a 	add	r4,r3,r2
 20414c4:	e0bffa17 	ldw	r2,-24(fp)
 20414c8:	10c01004 	addi	r3,r2,64
 20414cc:	e0bff917 	ldw	r2,-28(fp)
 20414d0:	1885883a 	add	r2,r3,r2
 20414d4:	e0fff017 	ldw	r3,-64(fp)
 20414d8:	100b883a 	mov	r5,r2
 20414dc:	180d883a 	mov	r6,r3
 20414e0:	2046bd40 	call	2046bd4 <memcpy>
                        nReadCount += nCopyCount;
 20414e4:	e0fff017 	ldw	r3,-64(fp)
 20414e8:	e0bff417 	ldw	r2,-48(fp)
 20414ec:	10c5883a 	add	r2,r2,r3
 20414f0:	e0bff415 	stw	r2,-48(fp)
                        if (Pos > 0)
 20414f4:	e0bff917 	ldw	r2,-28(fp)
 20414f8:	1005003a 	cmpeq	r2,r2,zero
 20414fc:	1000011e 	bne	r2,zero,2041504 <Fat_FileRead+0x3bc>
                            Pos = 0;
 2041500:	e03ff915 	stw	zero,-28(fp)
                    }         
                }    // if bSuccess
                    
            }
            PhysicalSecter++;
 2041504:	e0bff817 	ldw	r2,-32(fp)
 2041508:	10800044 	addi	r2,r2,1
 204150c:	e0bff815 	stw	r2,-32(fp)
            PhysicalSecter = ((Cluster-2) << 5) + pVol->DataEntrySecter; // -2: FAT0 & FAT1 are reserved
        else if (pVol->BPB_SecPerCluster == 64)
            PhysicalSecter = ((Cluster-2) << 6) + pVol->DataEntrySecter; // -2: FAT0 & FAT1 are reserved
        else
            PhysicalSecter = (Cluster-2)*pVol->BPB_SecPerCluster + pVol->DataEntrySecter; // -2: FAT0 & FAT1 are reserved
        for(s=0;s<pVol->BPB_SecPerCluster && nReadCount < nBufferSize && bSuccess;s++){
 2041510:	e0bff217 	ldw	r2,-56(fp)
 2041514:	10800044 	addi	r2,r2,1
 2041518:	e0bff215 	stw	r2,-56(fp)
 204151c:	e0bff217 	ldw	r2,-56(fp)
 2041520:	e0fffa17 	ldw	r3,-24(fp)
 2041524:	18c00717 	ldw	r3,28(r3)
 2041528:	10c0062e 	bgeu	r2,r3,2041544 <Fat_FileRead+0x3fc>
 204152c:	e0fffe17 	ldw	r3,-8(fp)
 2041530:	e0bff417 	ldw	r2,-48(fp)
 2041534:	10c0032e 	bgeu	r2,r3,2041544 <Fat_FileRead+0x3fc>
 2041538:	e0bff117 	ldw	r2,-60(fp)
 204153c:	1004c03a 	cmpne	r2,r2,zero
 2041540:	103fa41e 	bne	r2,zero,20413d4 <Fat_FileRead+0x28c>
            }
            PhysicalSecter++;
        }    
            
        // next cluster
        if (nReadCount < nBufferSize){
 2041544:	e0fffe17 	ldw	r3,-8(fp)
 2041548:	e0bff417 	ldw	r2,-48(fp)
 204154c:	10c0132e 	bgeu	r2,r3,204159c <Fat_FileRead+0x454>
            NextCluster = fatNextCluster(pVol, Cluster); 
 2041550:	e13ffa17 	ldw	r4,-24(fp)
 2041554:	e17ff617 	ldw	r5,-40(fp)
 2041558:	2041adc0 	call	2041adc <fatNextCluster>
 204155c:	e0bff715 	stw	r2,-36(fp)
            if (NextCluster == 0){
 2041560:	e0bff717 	ldw	r2,-36(fp)
 2041564:	1004c03a 	cmpne	r2,r2,zero
 2041568:	1000021e 	bne	r2,zero,2041574 <Fat_FileRead+0x42c>
                bSuccess = FALSE;
 204156c:	e03ff115 	stw	zero,-60(fp)
 2041570:	00000206 	br	204157c <Fat_FileRead+0x434>
                FAT_DEBUG(("[FAT] Fat_FileRead, no next cluster\r\n"));
            }else{
                Cluster = NextCluster;
 2041574:	e0bff717 	ldw	r2,-36(fp)
 2041578:	e0bff615 	stw	r2,-40(fp)
            }    
            //    
            f->ClusterSeq++; 
 204157c:	e0bffb17 	ldw	r2,-20(fp)
 2041580:	10800417 	ldw	r2,16(r2)
 2041584:	10c00044 	addi	r3,r2,1
 2041588:	e0bffb17 	ldw	r2,-20(fp)
 204158c:	10c00415 	stw	r3,16(r2)
            f->Cluster = Cluster;
 2041590:	e0fffb17 	ldw	r3,-20(fp)
 2041594:	e0bff617 	ldw	r2,-40(fp)
 2041598:	18800315 	stw	r2,12(r3)
            f->ClusterSeq++; 
        }
    }            
    
    // reading
    while(nReadCount < nBufferSize && bSuccess){
 204159c:	e0fffe17 	ldw	r3,-8(fp)
 20415a0:	e0bff417 	ldw	r2,-48(fp)
 20415a4:	10c0032e 	bgeu	r2,r3,20415b4 <Fat_FileRead+0x46c>
 20415a8:	e0bff117 	ldw	r2,-60(fp)
 20415ac:	1004c03a 	cmpne	r2,r2,zero
 20415b0:	103f651e 	bne	r2,zero,2041348 <Fat_FileRead+0x200>
            f->ClusterSeq++; 
            f->Cluster = Cluster;
        }                    
    }
    
    if (bSuccess){
 20415b4:	e0bff117 	ldw	r2,-60(fp)
 20415b8:	1005003a 	cmpeq	r2,r2,zero
 20415bc:	1000061e 	bne	r2,zero,20415d8 <Fat_FileRead+0x490>
        f->SeekPos += nBufferSize;
 20415c0:	e0bffb17 	ldw	r2,-20(fp)
 20415c4:	10c00217 	ldw	r3,8(r2)
 20415c8:	e0bffe17 	ldw	r2,-8(fp)
 20415cc:	1887883a 	add	r3,r3,r2
 20415d0:	e0bffb17 	ldw	r2,-20(fp)
 20415d4:	10c00215 	stw	r3,8(r2)
    }        
        
    
    return bSuccess;
 20415d8:	e0bff117 	ldw	r2,-60(fp)
 20415dc:	e0bfff15 	stw	r2,-4(fp)
 20415e0:	e0bfff17 	ldw	r2,-4(fp)
}
 20415e4:	e037883a 	mov	sp,fp
 20415e8:	dfc00117 	ldw	ra,4(sp)
 20415ec:	df000017 	ldw	fp,0(sp)
 20415f0:	dec00204 	addi	sp,sp,8
 20415f4:	f800283a 	ret

020415f8 <Fat_FileSeek>:


bool Fat_FileSeek(FAT_FILE_HANDLE hFileHandle, const FAT_SEEK_POS SeekPos, const int nOffset){
 20415f8:	defff704 	addi	sp,sp,-36
 20415fc:	df000815 	stw	fp,32(sp)
 2041600:	df000804 	addi	fp,sp,32
 2041604:	e13ffb15 	stw	r4,-20(fp)
 2041608:	e17ffc15 	stw	r5,-16(fp)
 204160c:	e1bffd15 	stw	r6,-12(fp)
    FAT_FILE_INFO *f = (FAT_FILE_INFO *)hFileHandle;
 2041610:	e0bffb17 	ldw	r2,-20(fp)
 2041614:	e0bffa15 	stw	r2,-24(fp)
    VOLUME_INFO *pVol;
    bool bSuccess= TRUE;
 2041618:	00800044 	movi	r2,1
 204161c:	e0bff815 	stw	r2,-32(fp)

    if (!f || !f->Fat)
 2041620:	e0bffa17 	ldw	r2,-24(fp)
 2041624:	1005003a 	cmpeq	r2,r2,zero
 2041628:	1000041e 	bne	r2,zero,204163c <Fat_FileSeek+0x44>
 204162c:	e0bffa17 	ldw	r2,-24(fp)
 2041630:	10804f17 	ldw	r2,316(r2)
 2041634:	1004c03a 	cmpne	r2,r2,zero
 2041638:	1000021e 	bne	r2,zero,2041644 <Fat_FileSeek+0x4c>
        return FALSE;
 204163c:	e03ffe15 	stw	zero,-8(fp)
 2041640:	00003106 	br	2041708 <Fat_FileSeek+0x110>
    pVol = (VOLUME_INFO *)f->Fat;        
 2041644:	e0bffa17 	ldw	r2,-24(fp)
 2041648:	10804f17 	ldw	r2,316(r2)
 204164c:	e0bff915 	stw	r2,-28(fp)
    
    if (!f->IsOpened)
 2041650:	e0bffa17 	ldw	r2,-24(fp)
 2041654:	10800017 	ldw	r2,0(r2)
 2041658:	1004c03a 	cmpne	r2,r2,zero
 204165c:	1000021e 	bne	r2,zero,2041668 <Fat_FileSeek+0x70>
        return FALSE;
 2041660:	e03ffe15 	stw	zero,-8(fp)
 2041664:	00002806 	br	2041708 <Fat_FileSeek+0x110>
        
    switch(SeekPos){
 2041668:	e0bffc17 	ldw	r2,-16(fp)
 204166c:	e0bfff15 	stw	r2,-4(fp)
 2041670:	e0ffff17 	ldw	r3,-4(fp)
 2041674:	18800060 	cmpeqi	r2,r3,1
 2041678:	10000b1e 	bne	r2,zero,20416a8 <Fat_FileSeek+0xb0>
 204167c:	e0ffff17 	ldw	r3,-4(fp)
 2041680:	18800070 	cmpltui	r2,r3,1
 2041684:	1000041e 	bne	r2,zero,2041698 <Fat_FileSeek+0xa0>
 2041688:	e0ffff17 	ldw	r3,-4(fp)
 204168c:	188000a0 	cmpeqi	r2,r3,2
 2041690:	10000c1e 	bne	r2,zero,20416c4 <Fat_FileSeek+0xcc>
 2041694:	00001206 	br	20416e0 <Fat_FileSeek+0xe8>
        case FILE_SEEK_BEGIN: 
            f->SeekPos = nOffset; 
 2041698:	e0fffd17 	ldw	r3,-12(fp)
 204169c:	e0bffa17 	ldw	r2,-24(fp)
 20416a0:	10c00215 	stw	r3,8(r2)
            break;
 20416a4:	00000f06 	br	20416e4 <Fat_FileSeek+0xec>
        case FILE_SEEK_CURRENT: 
            f->SeekPos += nOffset; 
 20416a8:	e0bffa17 	ldw	r2,-24(fp)
 20416ac:	10c00217 	ldw	r3,8(r2)
 20416b0:	e0bffd17 	ldw	r2,-12(fp)
 20416b4:	1887883a 	add	r3,r3,r2
 20416b8:	e0bffa17 	ldw	r2,-24(fp)
 20416bc:	10c00215 	stw	r3,8(r2)
            break;
 20416c0:	00000806 	br	20416e4 <Fat_FileSeek+0xec>
        case FILE_SEEK_END: 
            f->SeekPos = f->Directory.FileSize+nOffset; 
 20416c4:	e0bffa17 	ldw	r2,-24(fp)
 20416c8:	10c04e17 	ldw	r3,312(r2)
 20416cc:	e0bffd17 	ldw	r2,-12(fp)
 20416d0:	1887883a 	add	r3,r3,r2
 20416d4:	e0bffa17 	ldw	r2,-24(fp)
 20416d8:	10c00215 	stw	r3,8(r2)
            break;
 20416dc:	00000106 	br	20416e4 <Fat_FileSeek+0xec>
        default:
            bSuccess = FALSE;
 20416e0:	e03ff815 	stw	zero,-32(fp)
            break;    
              
    }
    f->Cluster = f->Directory.FirstLogicalCluster;
 20416e4:	e0bffa17 	ldw	r2,-24(fp)
 20416e8:	10804d8b 	ldhu	r2,310(r2)
 20416ec:	10ffffcc 	andi	r3,r2,65535
 20416f0:	e0bffa17 	ldw	r2,-24(fp)
 20416f4:	10c00315 	stw	r3,12(r2)
    f->ClusterSeq = 0;
 20416f8:	e0bffa17 	ldw	r2,-24(fp)
 20416fc:	10000415 	stw	zero,16(r2)
    
    return bSuccess;
 2041700:	e0bff817 	ldw	r2,-32(fp)
 2041704:	e0bffe15 	stw	r2,-8(fp)
 2041708:	e0bffe17 	ldw	r2,-8(fp)
    
}
 204170c:	e037883a 	mov	sp,fp
 2041710:	df000017 	ldw	fp,0(sp)
 2041714:	dec00104 	addi	sp,sp,4
 2041718:	f800283a 	ret

0204171c <Fat_FileClose>:

void Fat_FileClose(FAT_FILE_HANDLE hFileHandle){
 204171c:	defffc04 	addi	sp,sp,-16
 2041720:	dfc00315 	stw	ra,12(sp)
 2041724:	df000215 	stw	fp,8(sp)
 2041728:	df000204 	addi	fp,sp,8
 204172c:	e13fff15 	stw	r4,-4(fp)
    FAT_FILE_INFO *f = (FAT_FILE_INFO *)hFileHandle;
 2041730:	e0bfff17 	ldw	r2,-4(fp)
 2041734:	e0bffe15 	stw	r2,-8(fp)
    if (!f)
 2041738:	e0bffe17 	ldw	r2,-8(fp)
 204173c:	1005003a 	cmpeq	r2,r2,zero
 2041740:	1000021e 	bne	r2,zero,204174c <Fat_FileClose+0x30>
        return;
        
    free(f);        
 2041744:	e13ffe17 	ldw	r4,-8(fp)
 2041748:	204646c0 	call	204646c <free>
}
 204174c:	e037883a 	mov	sp,fp
 2041750:	dfc00117 	ldw	ra,4(sp)
 2041754:	df000017 	ldw	fp,0(sp)
 2041758:	dec00204 	addi	sp,sp,8
 204175c:	f800283a 	ret

02041760 <Fat_SpeedTest>:



float Fat_SpeedTest(FAT_HANDLE hFat, alt_u32 TestDurInMs){
 2041760:	deff7204 	addi	sp,sp,-568
 2041764:	dfc08d15 	stw	ra,564(sp)
 2041768:	df008c15 	stw	fp,560(sp)
 204176c:	dc008b15 	stw	r16,556(sp)
 2041770:	df008b04 	addi	fp,sp,556
 2041774:	e13ffd15 	stw	r4,-12(fp)
 2041778:	e17ffe15 	stw	r5,-8(fp)
    bool bSuccess = TRUE;
 204177c:	00800044 	movi	r2,1
 2041780:	e0bf7c15 	stw	r2,-528(fp)
    alt_u32 time_start, time_finish, time_elapsed, TotalReadBytes=0;
 2041784:	e03f7815 	stw	zero,-544(fp)
    int nSecter = 0;
 2041788:	e03f7715 	stw	zero,-548(fp)
    float fMegaBytePerSec = 0;
 204178c:	e03f7615 	stw	zero,-552(fp)
    char szBlock[512];
    VOLUME_INFO *pVol = (VOLUME_INFO *)hFat;
 2041790:	e0bffd17 	ldw	r2,-12(fp)
 2041794:	e0bf7515 	stw	r2,-556(fp)
    if (!pVol)
 2041798:	e0bf7517 	ldw	r2,-556(fp)
 204179c:	1004c03a 	cmpne	r2,r2,zero
 20417a0:	1000031e 	bne	r2,zero,20417b0 <Fat_SpeedTest+0x50>
        return 0;
 20417a4:	0005883a 	mov	r2,zero
 20417a8:	e0bfff15 	stw	r2,-4(fp)
 20417ac:	00006006 	br	2041930 <Fat_SpeedTest+0x1d0>
 * alt_nticks() returns the elapsed number of system clock ticks since reset.
 */

static ALT_INLINE alt_u32 ALT_ALWAYS_INLINE alt_nticks (void)
{
  return _alt_nticks;
 20417b0:	008081b4 	movhi	r2,518
 20417b4:	10aa9b04 	addi	r2,r2,-21908
 20417b8:	10800017 	ldw	r2,0(r2)
    time_start = alt_nticks();
 20417bc:	e0bf7b15 	stw	r2,-532(fp)
 20417c0:	008081b4 	movhi	r2,518
 20417c4:	10aa9b04 	addi	r2,r2,-21908
 20417c8:	10800017 	ldw	r2,0(r2)
 20417cc:	1021883a 	mov	r16,r2
    time_finish = alt_nticks() + TestDurInMs * 1000 / alt_ticks_per_second();
 20417d0:	e0bffe17 	ldw	r2,-8(fp)
 20417d4:	1100fa24 	muli	r4,r2,1000
 * Obtain the system clock rate in ticks/s. 
 */

static ALT_INLINE alt_u32 ALT_ALWAYS_INLINE alt_ticks_per_second (void)
{
  return _alt_tick_rate;
 20417d8:	008081b4 	movhi	r2,518
 20417dc:	10aa9a04 	addi	r2,r2,-21912
 20417e0:	10800017 	ldw	r2,0(r2)
 20417e4:	100b883a 	mov	r5,r2
 20417e8:	2045ca40 	call	2045ca4 <__udivsi3>
 20417ec:	8085883a 	add	r2,r16,r2
 20417f0:	e0bf7a15 	stw	r2,-536(fp)
    while(alt_nticks() < time_finish && bSuccess){
 20417f4:	00000e06 	br	2041830 <Fat_SpeedTest+0xd0>
        bSuccess = pVol->ReadBlock512(pVol->DiskHandle, nSecter, szBlock);
 20417f8:	e0bf7517 	ldw	r2,-556(fp)
 20417fc:	10c00117 	ldw	r3,4(r2)
 2041800:	e0bf7517 	ldw	r2,-556(fp)
 2041804:	11000017 	ldw	r4,0(r2)
 2041808:	e17f7717 	ldw	r5,-548(fp)
 204180c:	e1bf7d04 	addi	r6,fp,-524
 2041810:	183ee83a 	callr	r3
 2041814:	e0bf7c15 	stw	r2,-528(fp)
        nSecter++;
 2041818:	e0bf7717 	ldw	r2,-548(fp)
 204181c:	10800044 	addi	r2,r2,1
 2041820:	e0bf7715 	stw	r2,-548(fp)
        TotalReadBytes += sizeof(szBlock);
 2041824:	e0bf7817 	ldw	r2,-544(fp)
 2041828:	10808004 	addi	r2,r2,512
 204182c:	e0bf7815 	stw	r2,-544(fp)
 * alt_nticks() returns the elapsed number of system clock ticks since reset.
 */

static ALT_INLINE alt_u32 ALT_ALWAYS_INLINE alt_nticks (void)
{
  return _alt_nticks;
 2041830:	008081b4 	movhi	r2,518
 2041834:	10aa9b04 	addi	r2,r2,-21908
 2041838:	10800017 	ldw	r2,0(r2)
 204183c:	1007883a 	mov	r3,r2
    VOLUME_INFO *pVol = (VOLUME_INFO *)hFat;
    if (!pVol)
        return 0;
    time_start = alt_nticks();
    time_finish = alt_nticks() + TestDurInMs * 1000 / alt_ticks_per_second();
    while(alt_nticks() < time_finish && bSuccess){
 2041840:	e0bf7a17 	ldw	r2,-536(fp)
 2041844:	1880032e 	bgeu	r3,r2,2041854 <Fat_SpeedTest+0xf4>
 2041848:	e0bf7c17 	ldw	r2,-528(fp)
 204184c:	1004c03a 	cmpne	r2,r2,zero
 2041850:	103fe91e 	bne	r2,zero,20417f8 <Fat_SpeedTest+0x98>
        bSuccess = pVol->ReadBlock512(pVol->DiskHandle, nSecter, szBlock);
        nSecter++;
        TotalReadBytes += sizeof(szBlock);
        
    }        
    if (bSuccess){
 2041854:	e0bf7c17 	ldw	r2,-528(fp)
 2041858:	1005003a 	cmpeq	r2,r2,zero
 204185c:	1000321e 	bne	r2,zero,2041928 <Fat_SpeedTest+0x1c8>
 2041860:	008081b4 	movhi	r2,518
 2041864:	10aa9b04 	addi	r2,r2,-21908
 2041868:	10800017 	ldw	r2,0(r2)
 204186c:	1007883a 	mov	r3,r2
        time_elapsed = alt_nticks() - time_start;
 2041870:	e0bf7b17 	ldw	r2,-532(fp)
 2041874:	1885c83a 	sub	r2,r3,r2
 2041878:	e0bf7915 	stw	r2,-540(fp)
        fMegaBytePerSec = (float)TotalReadBytes * (float)alt_ticks_per_second() / (float)time_elapsed / 1024.0 / 1024.0;
 204187c:	e13f7817 	ldw	r4,-544(fp)
 2041880:	20457a40 	call	20457a4 <__floatunsisf>
 2041884:	1021883a 	mov	r16,r2
 * Obtain the system clock rate in ticks/s. 
 */

static ALT_INLINE alt_u32 ALT_ALWAYS_INLINE alt_ticks_per_second (void)
{
  return _alt_tick_rate;
 2041888:	008081b4 	movhi	r2,518
 204188c:	10aa9a04 	addi	r2,r2,-21912
 2041890:	10800017 	ldw	r2,0(r2)
 2041894:	1009883a 	mov	r4,r2
 2041898:	20457a40 	call	20457a4 <__floatunsisf>
 204189c:	8009883a 	mov	r4,r16
 20418a0:	100b883a 	mov	r5,r2
 20418a4:	20453fc0 	call	20453fc <__mulsf3>
 20418a8:	1021883a 	mov	r16,r2
 20418ac:	e13f7917 	ldw	r4,-540(fp)
 20418b0:	20457a40 	call	20457a4 <__floatunsisf>
 20418b4:	8009883a 	mov	r4,r16
 20418b8:	100b883a 	mov	r5,r2
 20418bc:	20455dc0 	call	20455dc <__divsf3>
 20418c0:	1009883a 	mov	r4,r2
 20418c4:	20457500 	call	2045750 <__extendsfdf2>
 20418c8:	100b883a 	mov	r5,r2
 20418cc:	180d883a 	mov	r6,r3
 20418d0:	2809883a 	mov	r4,r5
 20418d4:	300b883a 	mov	r5,r6
 20418d8:	000d883a 	mov	r6,zero
 20418dc:	01d02434 	movhi	r7,16528
 20418e0:	20458640 	call	2045864 <__divdf3>
 20418e4:	1009883a 	mov	r4,r2
 20418e8:	180b883a 	mov	r5,r3
 20418ec:	2005883a 	mov	r2,r4
 20418f0:	2807883a 	mov	r3,r5
 20418f4:	1009883a 	mov	r4,r2
 20418f8:	180b883a 	mov	r5,r3
 20418fc:	000d883a 	mov	r6,zero
 2041900:	01d02434 	movhi	r7,16528
 2041904:	20458640 	call	2045864 <__divdf3>
 2041908:	1009883a 	mov	r4,r2
 204190c:	180b883a 	mov	r5,r3
 2041910:	2005883a 	mov	r2,r4
 2041914:	2807883a 	mov	r3,r5
 2041918:	1009883a 	mov	r4,r2
 204191c:	180b883a 	mov	r5,r3
 2041920:	2045af40 	call	2045af4 <__truncdfsf2>
 2041924:	e0bf7615 	stw	r2,-552(fp)
    }        
    return fMegaBytePerSec;
 2041928:	e0ff7617 	ldw	r3,-552(fp)
 204192c:	e0ffff15 	stw	r3,-4(fp)
 2041930:	e0ffff17 	ldw	r3,-4(fp)
 2041934:	1805883a 	mov	r2,r3
    
   
}
 2041938:	e037883a 	mov	sp,fp
 204193c:	dfc00217 	ldw	ra,8(sp)
 2041940:	df000117 	ldw	fp,4(sp)
 2041944:	dc000017 	ldw	r16,0(sp)
 2041948:	dec00304 	addi	sp,sp,12
 204194c:	f800283a 	ret

02041950 <fat16ClusterType>:
//extern VOLUME_INFO gVolumeInfo;




CLUSTER_TYPE fat16ClusterType(alt_u32 Fat){
 2041950:	defffd04 	addi	sp,sp,-12
 2041954:	df000215 	stw	fp,8(sp)
 2041958:	df000204 	addi	fp,sp,8
 204195c:	e13fff15 	stw	r4,-4(fp)
    CLUSTER_TYPE Type;
    Fat = Fat & 0xFFFF; // 16 bits
 2041960:	e0bfff17 	ldw	r2,-4(fp)
 2041964:	10bfffcc 	andi	r2,r2,65535
 2041968:	e0bfff15 	stw	r2,-4(fp)
    
    if (Fat > 0 && Fat < 0xFFF0)
 204196c:	e0bfff17 	ldw	r2,-4(fp)
 2041970:	1005003a 	cmpeq	r2,r2,zero
 2041974:	1000061e 	bne	r2,zero,2041990 <fat16ClusterType+0x40>
 2041978:	e0ffff17 	ldw	r3,-4(fp)
 204197c:	00bffbd4 	movui	r2,65519
 2041980:	10c00336 	bltu	r2,r3,2041990 <fat16ClusterType+0x40>
        Type = CLUSTER_NEXT_INFILE;
 2041984:	00800104 	movi	r2,4
 2041988:	e0bffe15 	stw	r2,-8(fp)

CLUSTER_TYPE fat16ClusterType(alt_u32 Fat){
    CLUSTER_TYPE Type;
    Fat = Fat & 0xFFFF; // 16 bits
    
    if (Fat > 0 && Fat < 0xFFF0)
 204198c:	00001906 	br	20419f4 <fat16ClusterType+0xa4>
        Type = CLUSTER_NEXT_INFILE;
    else if (Fat >= 0xFFF8) // && Fat <= (unsigned short)0xFFFF)
 2041990:	e0ffff17 	ldw	r3,-4(fp)
 2041994:	00bffdd4 	movui	r2,65527
 2041998:	10c0032e 	bgeu	r2,r3,20419a8 <fat16ClusterType+0x58>
        Type = CLUSTER_LAST_INFILE;
 204199c:	008000c4 	movi	r2,3
 20419a0:	e0bffe15 	stw	r2,-8(fp)
 20419a4:	00001306 	br	20419f4 <fat16ClusterType+0xa4>
    else if (Fat == (alt_u16)0x00)
 20419a8:	e0bfff17 	ldw	r2,-4(fp)
 20419ac:	1004c03a 	cmpne	r2,r2,zero
 20419b0:	1000021e 	bne	r2,zero,20419bc <fat16ClusterType+0x6c>
        Type = CLUSTER_UNUSED;
 20419b4:	e03ffe15 	stw	zero,-8(fp)
 20419b8:	00000e06 	br	20419f4 <fat16ClusterType+0xa4>
    else if (Fat >= 0xFFF0 && Fat <= 0xFFF6)
 20419bc:	e0ffff17 	ldw	r3,-4(fp)
 20419c0:	00bffbd4 	movui	r2,65519
 20419c4:	10c0062e 	bgeu	r2,r3,20419e0 <fat16ClusterType+0x90>
 20419c8:	e0ffff17 	ldw	r3,-4(fp)
 20419cc:	00bffd94 	movui	r2,65526
 20419d0:	10c00336 	bltu	r2,r3,20419e0 <fat16ClusterType+0x90>
        Type = CLUSTER_RESERVED;
 20419d4:	00800044 	movi	r2,1
 20419d8:	e0bffe15 	stw	r2,-8(fp)
        Type = CLUSTER_NEXT_INFILE;
    else if (Fat >= 0xFFF8) // && Fat <= (unsigned short)0xFFFF)
        Type = CLUSTER_LAST_INFILE;
    else if (Fat == (alt_u16)0x00)
        Type = CLUSTER_UNUSED;
    else if (Fat >= 0xFFF0 && Fat <= 0xFFF6)
 20419dc:	00000506 	br	20419f4 <fat16ClusterType+0xa4>
        Type = CLUSTER_RESERVED;
    else if (Fat == 0xFFF7)
 20419e0:	e0ffff17 	ldw	r3,-4(fp)
 20419e4:	00bffdd4 	movui	r2,65527
 20419e8:	1880021e 	bne	r3,r2,20419f4 <fat16ClusterType+0xa4>
        Type = CLUSTER_BAD;
 20419ec:	00800084 	movi	r2,2
 20419f0:	e0bffe15 	stw	r2,-8(fp)
        
    return Type;        
 20419f4:	e0bffe17 	ldw	r2,-8(fp)
         
}
 20419f8:	e037883a 	mov	sp,fp
 20419fc:	df000017 	ldw	fp,0(sp)
 2041a00:	dec00104 	addi	sp,sp,4
 2041a04:	f800283a 	ret

02041a08 <fat32ClusterType>:

CLUSTER_TYPE fat32ClusterType(alt_u32 Fat){
 2041a08:	defffd04 	addi	sp,sp,-12
 2041a0c:	df000215 	stw	fp,8(sp)
 2041a10:	df000204 	addi	fp,sp,8
 2041a14:	e13fff15 	stw	r4,-4(fp)
    CLUSTER_TYPE Type;
    Fat = Fat & 0xFFFFFFF; // 28 bits
 2041a18:	e0ffff17 	ldw	r3,-4(fp)
 2041a1c:	00840034 	movhi	r2,4096
 2041a20:	10bfffc4 	addi	r2,r2,-1
 2041a24:	1884703a 	and	r2,r3,r2
 2041a28:	e0bfff15 	stw	r2,-4(fp)
    
    if (Fat > 0 && Fat < 0xFFFFFF0)
 2041a2c:	e0bfff17 	ldw	r2,-4(fp)
 2041a30:	1005003a 	cmpeq	r2,r2,zero
 2041a34:	1000071e 	bne	r2,zero,2041a54 <fat32ClusterType+0x4c>
 2041a38:	e0ffff17 	ldw	r3,-4(fp)
 2041a3c:	00840034 	movhi	r2,4096
 2041a40:	10bffbc4 	addi	r2,r2,-17
 2041a44:	10c00336 	bltu	r2,r3,2041a54 <fat32ClusterType+0x4c>
        Type = CLUSTER_NEXT_INFILE;
 2041a48:	00800104 	movi	r2,4
 2041a4c:	e0bffe15 	stw	r2,-8(fp)

CLUSTER_TYPE fat32ClusterType(alt_u32 Fat){
    CLUSTER_TYPE Type;
    Fat = Fat & 0xFFFFFFF; // 28 bits
    
    if (Fat > 0 && Fat < 0xFFFFFF0)
 2041a50:	00001d06 	br	2041ac8 <fat32ClusterType+0xc0>
        Type = CLUSTER_NEXT_INFILE;
    else if (Fat >= 0xFFFFFF8) // && Fat <= (unsigned short)0xFFFF)
 2041a54:	e0ffff17 	ldw	r3,-4(fp)
 2041a58:	00840034 	movhi	r2,4096
 2041a5c:	10bffdc4 	addi	r2,r2,-9
 2041a60:	10c0032e 	bgeu	r2,r3,2041a70 <fat32ClusterType+0x68>
        Type = CLUSTER_LAST_INFILE;
 2041a64:	008000c4 	movi	r2,3
 2041a68:	e0bffe15 	stw	r2,-8(fp)
 2041a6c:	00001606 	br	2041ac8 <fat32ClusterType+0xc0>
    else if (Fat == (alt_u32)0x00)
 2041a70:	e0bfff17 	ldw	r2,-4(fp)
 2041a74:	1004c03a 	cmpne	r2,r2,zero
 2041a78:	1000021e 	bne	r2,zero,2041a84 <fat32ClusterType+0x7c>
        Type = CLUSTER_UNUSED;
 2041a7c:	e03ffe15 	stw	zero,-8(fp)
 2041a80:	00001106 	br	2041ac8 <fat32ClusterType+0xc0>
    else if (Fat >= 0xFFFFFF0 && Fat <= 0xFFFFFF6)
 2041a84:	e0ffff17 	ldw	r3,-4(fp)
 2041a88:	00840034 	movhi	r2,4096
 2041a8c:	10bffbc4 	addi	r2,r2,-17
 2041a90:	10c0072e 	bgeu	r2,r3,2041ab0 <fat32ClusterType+0xa8>
 2041a94:	e0ffff17 	ldw	r3,-4(fp)
 2041a98:	00840034 	movhi	r2,4096
 2041a9c:	10bffd84 	addi	r2,r2,-10
 2041aa0:	10c00336 	bltu	r2,r3,2041ab0 <fat32ClusterType+0xa8>
        Type = CLUSTER_RESERVED;
 2041aa4:	00800044 	movi	r2,1
 2041aa8:	e0bffe15 	stw	r2,-8(fp)
        Type = CLUSTER_NEXT_INFILE;
    else if (Fat >= 0xFFFFFF8) // && Fat <= (unsigned short)0xFFFF)
        Type = CLUSTER_LAST_INFILE;
    else if (Fat == (alt_u32)0x00)
        Type = CLUSTER_UNUSED;
    else if (Fat >= 0xFFFFFF0 && Fat <= 0xFFFFFF6)
 2041aac:	00000606 	br	2041ac8 <fat32ClusterType+0xc0>
        Type = CLUSTER_RESERVED;
    else if (Fat == 0xFFFFFF7)
 2041ab0:	e0ffff17 	ldw	r3,-4(fp)
 2041ab4:	00840034 	movhi	r2,4096
 2041ab8:	10bffdc4 	addi	r2,r2,-9
 2041abc:	1880021e 	bne	r3,r2,2041ac8 <fat32ClusterType+0xc0>
        Type = CLUSTER_BAD;
 2041ac0:	00800084 	movi	r2,2
 2041ac4:	e0bffe15 	stw	r2,-8(fp)
        
    return Type;        
 2041ac8:	e0bffe17 	ldw	r2,-8(fp)
         
}
 2041acc:	e037883a 	mov	sp,fp
 2041ad0:	df000017 	ldw	fp,0(sp)
 2041ad4:	dec00104 	addi	sp,sp,4
 2041ad8:	f800283a 	ret

02041adc <fatNextCluster>:

alt_u32 fatNextCluster(VOLUME_INFO *pVol, alt_u32 ThisCluster){
 2041adc:	defff504 	addi	sp,sp,-44
 2041ae0:	dfc00a15 	stw	ra,40(sp)
 2041ae4:	df000915 	stw	fp,36(sp)
 2041ae8:	dc000815 	stw	r16,32(sp)
 2041aec:	df000804 	addi	fp,sp,32
 2041af0:	e13ffd15 	stw	r4,-12(fp)
 2041af4:	e17ffe15 	stw	r5,-8(fp)
    if (ClusterType != CLUSTER_NEXT_INFILE && ClusterType != CLUSTER_LAST_INFILE){
        NextCluster = 0;  // invalid cluster
    }        
#else
    alt_32 nFatEntryPerSecter;
    const alt_32 nFatEntrySize = (pVol->Partition_Type == PARTITION_FAT32)?4:2; // 2 byte for FAT16
 2041af8:	e0bffd17 	ldw	r2,-12(fp)
 2041afc:	10800317 	ldw	r2,12(r2)
 2041b00:	108002d8 	cmpnei	r2,r2,11
 2041b04:	1000031e 	bne	r2,zero,2041b14 <fatNextCluster+0x38>
 2041b08:	00800104 	movi	r2,4
 2041b0c:	e0bfff15 	stw	r2,-4(fp)
 2041b10:	00000206 	br	2041b1c <fatNextCluster+0x40>
 2041b14:	00800084 	movi	r2,2
 2041b18:	e0bfff15 	stw	r2,-4(fp)
 2041b1c:	e0bfff17 	ldw	r2,-4(fp)
 2041b20:	e0bff915 	stw	r2,-28(fp)
    alt_u32 Secter;
   // char szBlock[512];
    nFatEntryPerSecter = pVol->BPB_BytsPerSec/nFatEntrySize; 
 2041b24:	e0bffd17 	ldw	r2,-12(fp)
 2041b28:	11000617 	ldw	r4,24(r2)
 2041b2c:	e17ff917 	ldw	r5,-28(fp)
 2041b30:	2045ca40 	call	2045ca4 <__udivsi3>
 2041b34:	e0bffa15 	stw	r2,-24(fp)
    Secter = pVol->FatEntrySecter + (ThisCluster*nFatEntrySize)/pVol->BPB_BytsPerSec;
 2041b38:	e0bffd17 	ldw	r2,-12(fp)
 2041b3c:	14000d17 	ldw	r16,52(r2)
 2041b40:	e0fff917 	ldw	r3,-28(fp)
 2041b44:	e0bffe17 	ldw	r2,-8(fp)
 2041b48:	1889383a 	mul	r4,r3,r2
 2041b4c:	e0bffd17 	ldw	r2,-12(fp)
 2041b50:	11400617 	ldw	r5,24(r2)
 2041b54:	2045ca40 	call	2045ca4 <__udivsi3>
 2041b58:	8085883a 	add	r2,r16,r2
 2041b5c:	e0bff815 	stw	r2,-32(fp)
    //if (pVol->ReadBlock512(pVol->DiskHandle, Secter,szBlock)){
    if (fatReadSecter(pVol, Secter)){
 2041b60:	e13ffd17 	ldw	r4,-12(fp)
 2041b64:	e17ff817 	ldw	r5,-32(fp)
 2041b68:	20423880 	call	2042388 <fatReadSecter>
 2041b6c:	1005003a 	cmpeq	r2,r2,zero
 2041b70:	1000291e 	bne	r2,zero,2041c18 <fatNextCluster+0x13c>
        if (pVol->Partition_Type == PARTITION_FAT32){
 2041b74:	e0bffd17 	ldw	r2,-12(fp)
 2041b78:	10800317 	ldw	r2,12(r2)
 2041b7c:	108002d8 	cmpnei	r2,r2,11
 2041b80:	10000f1e 	bne	r2,zero,2041bc0 <fatNextCluster+0xe4>
            NextCluster = *(alt_u32*)(pVol->Secter_Data + (ThisCluster%nFatEntryPerSecter)*nFatEntrySize); 
 2041b84:	e0bffd17 	ldw	r2,-12(fp)
 2041b88:	14001004 	addi	r16,r2,64
 2041b8c:	e17ffa17 	ldw	r5,-24(fp)
 2041b90:	e13ffe17 	ldw	r4,-8(fp)
 2041b94:	2045cac0 	call	2045cac <__umodsi3>
 2041b98:	1007883a 	mov	r3,r2
 2041b9c:	e0bff917 	ldw	r2,-28(fp)
 2041ba0:	1885383a 	mul	r2,r3,r2
 2041ba4:	8085883a 	add	r2,r16,r2
 2041ba8:	10800017 	ldw	r2,0(r2)
 2041bac:	e0bffb15 	stw	r2,-20(fp)
            ClusterType = fat32ClusterType(NextCluster);
 2041bb0:	e13ffb17 	ldw	r4,-20(fp)
 2041bb4:	2041a080 	call	2041a08 <fat32ClusterType>
 2041bb8:	e0bffc15 	stw	r2,-16(fp)
 2041bbc:	00000f06 	br	2041bfc <fatNextCluster+0x120>
        }else{
            NextCluster = *(alt_u16 *)(pVol->Secter_Data + (ThisCluster%nFatEntryPerSecter)*nFatEntrySize); 
 2041bc0:	e0bffd17 	ldw	r2,-12(fp)
 2041bc4:	14001004 	addi	r16,r2,64
 2041bc8:	e17ffa17 	ldw	r5,-24(fp)
 2041bcc:	e13ffe17 	ldw	r4,-8(fp)
 2041bd0:	2045cac0 	call	2045cac <__umodsi3>
 2041bd4:	1007883a 	mov	r3,r2
 2041bd8:	e0bff917 	ldw	r2,-28(fp)
 2041bdc:	1885383a 	mul	r2,r3,r2
 2041be0:	8085883a 	add	r2,r16,r2
 2041be4:	1080000b 	ldhu	r2,0(r2)
 2041be8:	10bfffcc 	andi	r2,r2,65535
 2041bec:	e0bffb15 	stw	r2,-20(fp)
            ClusterType = fat16ClusterType(NextCluster);
 2041bf0:	e13ffb17 	ldw	r4,-20(fp)
 2041bf4:	20419500 	call	2041950 <fat16ClusterType>
 2041bf8:	e0bffc15 	stw	r2,-16(fp)
        }    
        if (ClusterType != CLUSTER_NEXT_INFILE && ClusterType != CLUSTER_LAST_INFILE)
 2041bfc:	e0bffc17 	ldw	r2,-16(fp)
 2041c00:	10800120 	cmpeqi	r2,r2,4
 2041c04:	1000041e 	bne	r2,zero,2041c18 <fatNextCluster+0x13c>
 2041c08:	e0bffc17 	ldw	r2,-16(fp)
 2041c0c:	108000e0 	cmpeqi	r2,r2,3
 2041c10:	1000011e 	bne	r2,zero,2041c18 <fatNextCluster+0x13c>
            NextCluster = 0;  // invalid cluster
 2041c14:	e03ffb15 	stw	zero,-20(fp)
    }                
    
    
    return NextCluster;
 2041c18:	e0bffb17 	ldw	r2,-20(fp)

#endif    
    
    return NextCluster;
}
 2041c1c:	e037883a 	mov	sp,fp
 2041c20:	dfc00217 	ldw	ra,8(sp)
 2041c24:	df000117 	ldw	fp,4(sp)
 2041c28:	dc000017 	ldw	r16,0(sp)
 2041c2c:	dec00304 	addi	sp,sp,12
 2041c30:	f800283a 	ret

02041c34 <fatFindUnusedCluster>:

alt_u32 fatFindUnusedCluster(VOLUME_INFO *pVol){
 2041c34:	defff204 	addi	sp,sp,-56
 2041c38:	dfc00d15 	stw	ra,52(sp)
 2041c3c:	df000c15 	stw	fp,48(sp)
 2041c40:	dc000b15 	stw	r16,44(sp)
 2041c44:	df000b04 	addi	fp,sp,44
 2041c48:	e13ffe15 	stw	r4,-8(fp)
    CLUSTER_TYPE ClusterType;
    alt_u32 UnusedCluster=-1, ThisCluster = 2, ClusterEntryValue;
 2041c4c:	00bfffc4 	movi	r2,-1
 2041c50:	e0bffc15 	stw	r2,-16(fp)
 2041c54:	00800084 	movi	r2,2
 2041c58:	e0bffb15 	stw	r2,-20(fp)
    void *pFatEntry;

    const alt_32 nFatEntrySize = (pVol->Partition_Type == PARTITION_FAT32)?4:2; // 2 byte for FAT16
 2041c5c:	e0bffe17 	ldw	r2,-8(fp)
 2041c60:	10800317 	ldw	r2,12(r2)
 2041c64:	108002d8 	cmpnei	r2,r2,11
 2041c68:	1000031e 	bne	r2,zero,2041c78 <fatFindUnusedCluster+0x44>
 2041c6c:	00800104 	movi	r2,4
 2041c70:	e0bfff15 	stw	r2,-4(fp)
 2041c74:	00000206 	br	2041c80 <fatFindUnusedCluster+0x4c>
 2041c78:	00800084 	movi	r2,2
 2041c7c:	e0bfff15 	stw	r2,-4(fp)
 2041c80:	e0bfff17 	ldw	r2,-4(fp)
 2041c84:	e0bff815 	stw	r2,-32(fp)
    const alt_32 nFatEntryPerSecter = pVol->BPB_BytsPerSec/nFatEntrySize;
 2041c88:	e0bffe17 	ldw	r2,-8(fp)
 2041c8c:	11000617 	ldw	r4,24(r2)
 2041c90:	e17ff817 	ldw	r5,-32(fp)
 2041c94:	2045ca40 	call	2045ca4 <__udivsi3>
 2041c98:	e0bff715 	stw	r2,-36(fp)
    alt_u32 Secter;
    bool bDone = FALSE;
 2041c9c:	e03ff515 	stw	zero,-44(fp)

    while(!bDone){     
 2041ca0:	00003806 	br	2041d84 <fatFindUnusedCluster+0x150>
        Secter = pVol->FatEntrySecter + (ThisCluster*nFatEntrySize)/pVol->BPB_BytsPerSec;
 2041ca4:	e0bffe17 	ldw	r2,-8(fp)
 2041ca8:	14000d17 	ldw	r16,52(r2)
 2041cac:	e0fff817 	ldw	r3,-32(fp)
 2041cb0:	e0bffb17 	ldw	r2,-20(fp)
 2041cb4:	1889383a 	mul	r4,r3,r2
 2041cb8:	e0bffe17 	ldw	r2,-8(fp)
 2041cbc:	11400617 	ldw	r5,24(r2)
 2041cc0:	2045ca40 	call	2045ca4 <__udivsi3>
 2041cc4:	8085883a 	add	r2,r16,r2
 2041cc8:	e0bff615 	stw	r2,-40(fp)
        if (fatReadSecter(pVol, Secter)){
 2041ccc:	e13ffe17 	ldw	r4,-8(fp)
 2041cd0:	e17ff617 	ldw	r5,-40(fp)
 2041cd4:	20423880 	call	2042388 <fatReadSecter>
 2041cd8:	1005003a 	cmpeq	r2,r2,zero
 2041cdc:	1000241e 	bne	r2,zero,2041d70 <fatFindUnusedCluster+0x13c>
            pFatEntry = (pVol->Secter_Data + (ThisCluster%nFatEntryPerSecter)*nFatEntrySize);
 2041ce0:	e0bffe17 	ldw	r2,-8(fp)
 2041ce4:	14001004 	addi	r16,r2,64
 2041ce8:	e17ff717 	ldw	r5,-36(fp)
 2041cec:	e13ffb17 	ldw	r4,-20(fp)
 2041cf0:	2045cac0 	call	2045cac <__umodsi3>
 2041cf4:	1007883a 	mov	r3,r2
 2041cf8:	e0bff817 	ldw	r2,-32(fp)
 2041cfc:	1885383a 	mul	r2,r3,r2
 2041d00:	8085883a 	add	r2,r16,r2
 2041d04:	e0bff915 	stw	r2,-28(fp)
            if (pVol->Partition_Type == PARTITION_FAT32){
 2041d08:	e0bffe17 	ldw	r2,-8(fp)
 2041d0c:	10800317 	ldw	r2,12(r2)
 2041d10:	108002d8 	cmpnei	r2,r2,11
 2041d14:	1000071e 	bne	r2,zero,2041d34 <fatFindUnusedCluster+0x100>
                ClusterEntryValue = *(alt_u32*)pFatEntry; 
 2041d18:	e0bff917 	ldw	r2,-28(fp)
 2041d1c:	10800017 	ldw	r2,0(r2)
 2041d20:	e0bffa15 	stw	r2,-24(fp)
                ClusterType = fat32ClusterType(ClusterEntryValue);
 2041d24:	e13ffa17 	ldw	r4,-24(fp)
 2041d28:	2041a080 	call	2041a08 <fat32ClusterType>
 2041d2c:	e0bffd15 	stw	r2,-12(fp)
 2041d30:	00000706 	br	2041d50 <fatFindUnusedCluster+0x11c>
            }else{
                ClusterEntryValue = *(alt_u16 *)pFatEntry; 
 2041d34:	e0bff917 	ldw	r2,-28(fp)
 2041d38:	1080000b 	ldhu	r2,0(r2)
 2041d3c:	10bfffcc 	andi	r2,r2,65535
 2041d40:	e0bffa15 	stw	r2,-24(fp)
                ClusterType = fat16ClusterType(ClusterEntryValue);
 2041d44:	e13ffa17 	ldw	r4,-24(fp)
 2041d48:	20419500 	call	2041950 <fat16ClusterType>
 2041d4c:	e0bffd15 	stw	r2,-12(fp)
            }    
            if (ClusterType == CLUSTER_UNUSED){
 2041d50:	e0bffd17 	ldw	r2,-12(fp)
 2041d54:	1004c03a 	cmpne	r2,r2,zero
 2041d58:	1000071e 	bne	r2,zero,2041d78 <fatFindUnusedCluster+0x144>
                UnusedCluster = ThisCluster;  // invalid cluster
 2041d5c:	e0bffb17 	ldw	r2,-20(fp)
 2041d60:	e0bffc15 	stw	r2,-16(fp)
                bDone = TRUE;
 2041d64:	00800044 	movi	r2,1
 2041d68:	e0bff515 	stw	r2,-44(fp)
 2041d6c:	00000206 	br	2041d78 <fatFindUnusedCluster+0x144>
            }    
        }else{
            bDone = TRUE;
 2041d70:	00800044 	movi	r2,1
 2041d74:	e0bff515 	stw	r2,-44(fp)
        }     
        ThisCluster++;           
 2041d78:	e0bffb17 	ldw	r2,-20(fp)
 2041d7c:	10800044 	addi	r2,r2,1
 2041d80:	e0bffb15 	stw	r2,-20(fp)
    const alt_32 nFatEntrySize = (pVol->Partition_Type == PARTITION_FAT32)?4:2; // 2 byte for FAT16
    const alt_32 nFatEntryPerSecter = pVol->BPB_BytsPerSec/nFatEntrySize;
    alt_u32 Secter;
    bool bDone = FALSE;

    while(!bDone){     
 2041d84:	e0bff517 	ldw	r2,-44(fp)
 2041d88:	1005003a 	cmpeq	r2,r2,zero
 2041d8c:	103fc51e 	bne	r2,zero,2041ca4 <fatFindUnusedCluster+0x70>
            bDone = TRUE;
        }     
        ThisCluster++;           
    }                
    
    return UnusedCluster;
 2041d90:	e0bffc17 	ldw	r2,-16(fp)

}
 2041d94:	e037883a 	mov	sp,fp
 2041d98:	dfc00217 	ldw	ra,8(sp)
 2041d9c:	df000117 	ldw	fp,4(sp)
 2041da0:	dc000017 	ldw	r16,0(sp)
 2041da4:	dec00304 	addi	sp,sp,12
 2041da8:	f800283a 	ret

02041dac <fatDelClusterList>:


bool fatDelClusterList(VOLUME_INFO *pVol, alt_u32 StartCluster){
 2041dac:	defff104 	addi	sp,sp,-60
 2041db0:	dfc00e15 	stw	ra,56(sp)
 2041db4:	df000d15 	stw	fp,52(sp)
 2041db8:	dc000c15 	stw	r16,48(sp)
 2041dbc:	df000c04 	addi	fp,sp,48
 2041dc0:	e13ffd15 	stw	r4,-12(fp)
 2041dc4:	e17ffe15 	stw	r5,-8(fp)
    CLUSTER_TYPE ClusterType;
    bool bSuccess = TRUE;
 2041dc8:	00800044 	movi	r2,1
 2041dcc:	e0bffb15 	stw	r2,-20(fp)
    bool bDone = FALSE;
 2041dd0:	e03ffa15 	stw	zero,-24(fp)
    alt_u32 ClusterIndex, Secter, ClusterEntryValue;
    void *pFatEntryValue;
    
    
    const int nFatEntrySize = (pVol->Partition_Type == PARTITION_FAT32)?4:2; // 2 byte for FAT16
 2041dd4:	e0bffd17 	ldw	r2,-12(fp)
 2041dd8:	10800317 	ldw	r2,12(r2)
 2041ddc:	108002d8 	cmpnei	r2,r2,11
 2041de0:	1000031e 	bne	r2,zero,2041df0 <fatDelClusterList+0x44>
 2041de4:	00800104 	movi	r2,4
 2041de8:	e0bfff15 	stw	r2,-4(fp)
 2041dec:	00000206 	br	2041df8 <fatDelClusterList+0x4c>
 2041df0:	00800084 	movi	r2,2
 2041df4:	e0bfff15 	stw	r2,-4(fp)
 2041df8:	e0bfff17 	ldw	r2,-4(fp)
 2041dfc:	e0bff515 	stw	r2,-44(fp)
    const int nFatEntryPerSecter = pVol->BPB_BytsPerSec/nFatEntrySize;
 2041e00:	e0bffd17 	ldw	r2,-12(fp)
 2041e04:	11000617 	ldw	r4,24(r2)
 2041e08:	e17ff517 	ldw	r5,-44(fp)
 2041e0c:	2045ca40 	call	2045ca4 <__udivsi3>
 2041e10:	e0bff415 	stw	r2,-48(fp)
     
    ClusterIndex = StartCluster;
 2041e14:	e0bffe17 	ldw	r2,-8(fp)
 2041e18:	e0bff915 	stw	r2,-28(fp)
    while(bSuccess && !bDone){
 2041e1c:	00004f06 	br	2041f5c <fatDelClusterList+0x1b0>
        // read FAT Table
        Secter = pVol->FatEntrySecter + (ClusterIndex*nFatEntrySize)/pVol->BPB_BytsPerSec;
 2041e20:	e0bffd17 	ldw	r2,-12(fp)
 2041e24:	14000d17 	ldw	r16,52(r2)
 2041e28:	e0fff517 	ldw	r3,-44(fp)
 2041e2c:	e0bff917 	ldw	r2,-28(fp)
 2041e30:	1889383a 	mul	r4,r3,r2
 2041e34:	e0bffd17 	ldw	r2,-12(fp)
 2041e38:	11400617 	ldw	r5,24(r2)
 2041e3c:	2045ca40 	call	2045ca4 <__udivsi3>
 2041e40:	8085883a 	add	r2,r16,r2
 2041e44:	e0bff815 	stw	r2,-32(fp)
        bSuccess = fatReadSecter(pVol, Secter);
 2041e48:	e13ffd17 	ldw	r4,-12(fp)
 2041e4c:	e17ff817 	ldw	r5,-32(fp)
 2041e50:	20423880 	call	2042388 <fatReadSecter>
 2041e54:	e0bffb15 	stw	r2,-20(fp)
        if (bSuccess){
 2041e58:	e0bffb17 	ldw	r2,-20(fp)
 2041e5c:	1005003a 	cmpeq	r2,r2,zero
 2041e60:	10003e1e 	bne	r2,zero,2041f5c <fatDelClusterList+0x1b0>
            // get the value of FAT entry
            pFatEntryValue = (pVol->Secter_Data + (ClusterIndex%nFatEntryPerSecter)*nFatEntrySize);
 2041e64:	e0bffd17 	ldw	r2,-12(fp)
 2041e68:	14001004 	addi	r16,r2,64
 2041e6c:	e17ff417 	ldw	r5,-48(fp)
 2041e70:	e13ff917 	ldw	r4,-28(fp)
 2041e74:	2045cac0 	call	2045cac <__umodsi3>
 2041e78:	1007883a 	mov	r3,r2
 2041e7c:	e0bff517 	ldw	r2,-44(fp)
 2041e80:	1885383a 	mul	r2,r3,r2
 2041e84:	8085883a 	add	r2,r16,r2
 2041e88:	e0bff615 	stw	r2,-40(fp)
            if (pVol->Partition_Type == PARTITION_FAT32){
 2041e8c:	e0bffd17 	ldw	r2,-12(fp)
 2041e90:	10800317 	ldw	r2,12(r2)
 2041e94:	108002d8 	cmpnei	r2,r2,11
 2041e98:	1000071e 	bne	r2,zero,2041eb8 <fatDelClusterList+0x10c>
                ClusterEntryValue = *(alt_u32 *)pFatEntryValue; 
 2041e9c:	e0bff617 	ldw	r2,-40(fp)
 2041ea0:	10800017 	ldw	r2,0(r2)
 2041ea4:	e0bff715 	stw	r2,-36(fp)
                ClusterType = fat32ClusterType(ClusterEntryValue);
 2041ea8:	e13ff717 	ldw	r4,-36(fp)
 2041eac:	2041a080 	call	2041a08 <fat32ClusterType>
 2041eb0:	e0bffc15 	stw	r2,-16(fp)
 2041eb4:	00000706 	br	2041ed4 <fatDelClusterList+0x128>
            }else{
                ClusterEntryValue = *(alt_u16 *)pFatEntryValue; //(pVol->Secter_Data + (ThisCluster%nFatEntryPerSecter)*nFatEntrySize); 
 2041eb8:	e0bff617 	ldw	r2,-40(fp)
 2041ebc:	1080000b 	ldhu	r2,0(r2)
 2041ec0:	10bfffcc 	andi	r2,r2,65535
 2041ec4:	e0bff715 	stw	r2,-36(fp)
                ClusterType = fat16ClusterType(ClusterEntryValue);
 2041ec8:	e13ff717 	ldw	r4,-36(fp)
 2041ecc:	20419500 	call	2041950 <fat16ClusterType>
 2041ed0:	e0bffc15 	stw	r2,-16(fp)
            }
                
            if (ClusterType != CLUSTER_NEXT_INFILE && ClusterType != CLUSTER_LAST_INFILE){
 2041ed4:	e0bffc17 	ldw	r2,-16(fp)
 2041ed8:	10800120 	cmpeqi	r2,r2,4
 2041edc:	1000071e 	bne	r2,zero,2041efc <fatDelClusterList+0x150>
 2041ee0:	e0bffc17 	ldw	r2,-16(fp)
 2041ee4:	108000e0 	cmpeqi	r2,r2,3
 2041ee8:	1000041e 	bne	r2,zero,2041efc <fatDelClusterList+0x150>
                bDone = TRUE;
 2041eec:	00800044 	movi	r2,1
 2041ef0:	e0bffa15 	stw	r2,-24(fp)
                bSuccess = FALSE;
 2041ef4:	e03ffb15 	stw	zero,-20(fp)
            }else{
                ClusterEntryValue = *(alt_u16 *)pFatEntryValue; //(pVol->Secter_Data + (ThisCluster%nFatEntryPerSecter)*nFatEntrySize); 
                ClusterType = fat16ClusterType(ClusterEntryValue);
            }
                
            if (ClusterType != CLUSTER_NEXT_INFILE && ClusterType != CLUSTER_LAST_INFILE){
 2041ef8:	00001806 	br	2041f5c <fatDelClusterList+0x1b0>
                bDone = TRUE;
                bSuccess = FALSE;
            }else{
                if (ClusterType == CLUSTER_LAST_INFILE)
 2041efc:	e0bffc17 	ldw	r2,-16(fp)
 2041f00:	108000d8 	cmpnei	r2,r2,3
 2041f04:	1000021e 	bne	r2,zero,2041f10 <fatDelClusterList+0x164>
                    bDone = TRUE; // the last cluster
 2041f08:	00800044 	movi	r2,1
 2041f0c:	e0bffa15 	stw	r2,-24(fp)
                // update
                if (pVol->Partition_Type == PARTITION_FAT32)
 2041f10:	e0bffd17 	ldw	r2,-12(fp)
 2041f14:	10800317 	ldw	r2,12(r2)
 2041f18:	108002d8 	cmpnei	r2,r2,11
 2041f1c:	1000031e 	bne	r2,zero,2041f2c <fatDelClusterList+0x180>
                    *(alt_u32 *)pFatEntryValue = CLUSTER_UNUSED;
 2041f20:	e0bff617 	ldw	r2,-40(fp)
 2041f24:	10000015 	stw	zero,0(r2)
 2041f28:	00000206 	br	2041f34 <fatDelClusterList+0x188>
                else 
                    *(alt_u16 *)pFatEntryValue = CLUSTER_UNUSED;
 2041f2c:	e0bff617 	ldw	r2,-40(fp)
 2041f30:	1000000d 	sth	zero,0(r2)
                //write back FAT Table
                bSuccess = pVol->WriteBlock512(pVol->DiskHandle, pVol->Secter_Index, pVol->Secter_Data);
 2041f34:	e0bffd17 	ldw	r2,-12(fp)
 2041f38:	10c00217 	ldw	r3,8(r2)
 2041f3c:	e0bffd17 	ldw	r2,-12(fp)
 2041f40:	11000017 	ldw	r4,0(r2)
 2041f44:	e0bffd17 	ldw	r2,-12(fp)
 2041f48:	11409017 	ldw	r5,576(r2)
 2041f4c:	e0bffd17 	ldw	r2,-12(fp)
 2041f50:	11801004 	addi	r6,r2,64
 2041f54:	183ee83a 	callr	r3
 2041f58:	e0bffb15 	stw	r2,-20(fp)
    
    const int nFatEntrySize = (pVol->Partition_Type == PARTITION_FAT32)?4:2; // 2 byte for FAT16
    const int nFatEntryPerSecter = pVol->BPB_BytsPerSec/nFatEntrySize;
     
    ClusterIndex = StartCluster;
    while(bSuccess && !bDone){
 2041f5c:	e0bffb17 	ldw	r2,-20(fp)
 2041f60:	1005003a 	cmpeq	r2,r2,zero
 2041f64:	1000031e 	bne	r2,zero,2041f74 <fatDelClusterList+0x1c8>
 2041f68:	e0bffa17 	ldw	r2,-24(fp)
 2041f6c:	1005003a 	cmpeq	r2,r2,zero
 2041f70:	103fab1e 	bne	r2,zero,2041e20 <fatDelClusterList+0x74>
            }    
        }                
    }  // while                
    
    
    return bSuccess;
 2041f74:	e0bffb17 	ldw	r2,-20(fp)

}
 2041f78:	e037883a 	mov	sp,fp
 2041f7c:	dfc00217 	ldw	ra,8(sp)
 2041f80:	df000117 	ldw	fp,4(sp)
 2041f84:	dc000017 	ldw	r16,0(sp)
 2041f88:	dec00304 	addi	sp,sp,12
 2041f8c:	f800283a 	ret

02041f90 <fatDumpDate>:


void fatDumpDate(unsigned short Date){
 2041f90:	defffb04 	addi	sp,sp,-20
 2041f94:	df000415 	stw	fp,16(sp)
 2041f98:	df000404 	addi	fp,sp,16
 2041f9c:	e13fff0d 	sth	r4,-4(fp)
    int Year, Month, Day;
    Year = ((Date >> 9) & 0x1F) + 1980;
 2041fa0:	e0bfff0b 	ldhu	r2,-4(fp)
 2041fa4:	1004d27a 	srli	r2,r2,9
 2041fa8:	10bfffcc 	andi	r2,r2,65535
 2041fac:	108007cc 	andi	r2,r2,31
 2041fb0:	1081ef04 	addi	r2,r2,1980
 2041fb4:	e0bffe15 	stw	r2,-8(fp)
    Month = ((Date >> 5) & 0xF);
 2041fb8:	e0bfff0b 	ldhu	r2,-4(fp)
 2041fbc:	1004d17a 	srli	r2,r2,5
 2041fc0:	10bfffcc 	andi	r2,r2,65535
 2041fc4:	108003cc 	andi	r2,r2,15
 2041fc8:	e0bffd15 	stw	r2,-12(fp)
    Day = ((Date >> 0) & 0x1F);
 2041fcc:	e0bfff0b 	ldhu	r2,-4(fp)
 2041fd0:	108007cc 	andi	r2,r2,31
 2041fd4:	e0bffc15 	stw	r2,-16(fp)
    FAT_DEBUG(("%d,%d,%d", Year, Month, Day)); 
}
 2041fd8:	e037883a 	mov	sp,fp
 2041fdc:	df000017 	ldw	fp,0(sp)
 2041fe0:	dec00104 	addi	sp,sp,4
 2041fe4:	f800283a 	ret

02041fe8 <fatDumpTime>:

void fatDumpTime(unsigned short Date){
 2041fe8:	defffb04 	addi	sp,sp,-20
 2041fec:	df000415 	stw	fp,16(sp)
 2041ff0:	df000404 	addi	fp,sp,16
 2041ff4:	e13fff0d 	sth	r4,-4(fp)
    int H,M,S;
    H = ((Date >> 9) & 0x1F);
 2041ff8:	e0bfff0b 	ldhu	r2,-4(fp)
 2041ffc:	1004d27a 	srli	r2,r2,9
 2042000:	10bfffcc 	andi	r2,r2,65535
 2042004:	108007cc 	andi	r2,r2,31
 2042008:	e0bffe15 	stw	r2,-8(fp)
    M = ((Date >> 5) & 0x3F);
 204200c:	e0bfff0b 	ldhu	r2,-4(fp)
 2042010:	1004d17a 	srli	r2,r2,5
 2042014:	10bfffcc 	andi	r2,r2,65535
 2042018:	10800fcc 	andi	r2,r2,63
 204201c:	e0bffd15 	stw	r2,-12(fp)
    S = ((Date >> 0) & 0x1F)*2;
 2042020:	e0bfff0b 	ldhu	r2,-4(fp)
 2042024:	108007cc 	andi	r2,r2,31
 2042028:	1085883a 	add	r2,r2,r2
 204202c:	e0bffc15 	stw	r2,-16(fp)
    FAT_DEBUG(("%d:%d:%d", H, M, S));     
}
 2042030:	e037883a 	mov	sp,fp
 2042034:	df000017 	ldw	fp,0(sp)
 2042038:	dec00104 	addi	sp,sp,4
 204203c:	f800283a 	ret

02042040 <fatIsLastDir>:

bool fatIsLastDir(FAT_DIRECTORY *pDir){
 2042040:	defffd04 	addi	sp,sp,-12
 2042044:	df000215 	stw	fp,8(sp)
 2042048:	df000204 	addi	fp,sp,8
 204204c:	e13ffe15 	stw	r4,-8(fp)
    if (pDir->Name[0] == REMAINED_UNUSED_DIR_ENTRY)  // 0x00
 2042050:	e0bffe17 	ldw	r2,-8(fp)
 2042054:	10800003 	ldbu	r2,0(r2)
 2042058:	10803fcc 	andi	r2,r2,255
 204205c:	1080201c 	xori	r2,r2,128
 2042060:	10bfe004 	addi	r2,r2,-128
 2042064:	1004c03a 	cmpne	r2,r2,zero
 2042068:	1000031e 	bne	r2,zero,2042078 <fatIsLastDir+0x38>
        return TRUE;
 204206c:	00800044 	movi	r2,1
 2042070:	e0bfff15 	stw	r2,-4(fp)
 2042074:	00000106 	br	204207c <fatIsLastDir+0x3c>
    return FALSE;        
 2042078:	e03fff15 	stw	zero,-4(fp)
 204207c:	e0bfff17 	ldw	r2,-4(fp)
}
 2042080:	e037883a 	mov	sp,fp
 2042084:	df000017 	ldw	fp,0(sp)
 2042088:	dec00104 	addi	sp,sp,4
 204208c:	f800283a 	ret

02042090 <fatIsValidDir>:


bool fatIsValidDir(FAT_DIRECTORY *pDir){
 2042090:	defff604 	addi	sp,sp,-40
 2042094:	dfc00915 	stw	ra,36(sp)
 2042098:	df000815 	stw	fp,32(sp)
 204209c:	df000804 	addi	fp,sp,32
 20420a0:	e13ffe15 	stw	r4,-8(fp)
    char szTest[] = {0x00, 0xE5, 0x22, 0x2A, 0x2B, 0x2C, 0x2E, 0x2F, 0x3A, 0x3B, 0x3C, 0x3E, 0x3F, 0x5B, 0x5C, 0x5D, 0x7C};
 20420a4:	00808174 	movhi	r2,517
 20420a8:	1099b304 	addi	r2,r2,26316
 20420ac:	e13ff904 	addi	r4,fp,-28
 20420b0:	100b883a 	mov	r5,r2
 20420b4:	01800444 	movi	r6,17
 20420b8:	2046bd40 	call	2046bd4 <memcpy>
    int i;
    
    for(i=0;i<sizeof(szTest)/sizeof(szTest[0]);i++){
 20420bc:	e03ff815 	stw	zero,-32(fp)
 20420c0:	00001206 	br	204210c <fatIsValidDir+0x7c>
        if (pDir->Name[0] == szTest[i]){
 20420c4:	e0bffe17 	ldw	r2,-8(fp)
 20420c8:	11000003 	ldbu	r4,0(r2)
 20420cc:	e0fff817 	ldw	r3,-32(fp)
 20420d0:	e0bff904 	addi	r2,fp,-28
 20420d4:	10c5883a 	add	r2,r2,r3
 20420d8:	10800003 	ldbu	r2,0(r2)
 20420dc:	20c03fcc 	andi	r3,r4,255
 20420e0:	18c0201c 	xori	r3,r3,128
 20420e4:	18ffe004 	addi	r3,r3,-128
 20420e8:	10803fcc 	andi	r2,r2,255
 20420ec:	1080201c 	xori	r2,r2,128
 20420f0:	10bfe004 	addi	r2,r2,-128
 20420f4:	1880021e 	bne	r3,r2,2042100 <fatIsValidDir+0x70>
            return FALSE;
 20420f8:	e03fff15 	stw	zero,-4(fp)
 20420fc:	00000806 	br	2042120 <fatIsValidDir+0x90>

bool fatIsValidDir(FAT_DIRECTORY *pDir){
    char szTest[] = {0x00, 0xE5, 0x22, 0x2A, 0x2B, 0x2C, 0x2E, 0x2F, 0x3A, 0x3B, 0x3C, 0x3E, 0x3F, 0x5B, 0x5C, 0x5D, 0x7C};
    int i;
    
    for(i=0;i<sizeof(szTest)/sizeof(szTest[0]);i++){
 2042100:	e0bff817 	ldw	r2,-32(fp)
 2042104:	10800044 	addi	r2,r2,1
 2042108:	e0bff815 	stw	r2,-32(fp)
 204210c:	e0bff817 	ldw	r2,-32(fp)
 2042110:	10800470 	cmpltui	r2,r2,17
 2042114:	103feb1e 	bne	r2,zero,20420c4 <fatIsValidDir+0x34>
        if (pDir->Name[0] == szTest[i]){
            return FALSE;
        }
    }    
    return TRUE;
 2042118:	00800044 	movi	r2,1
 204211c:	e0bfff15 	stw	r2,-4(fp)
 2042120:	e0bfff17 	ldw	r2,-4(fp)
    
}
 2042124:	e037883a 	mov	sp,fp
 2042128:	dfc00117 	ldw	ra,4(sp)
 204212c:	df000017 	ldw	fp,0(sp)
 2042130:	dec00204 	addi	sp,sp,8
 2042134:	f800283a 	ret

02042138 <fatIsUnusedDir>:

bool fatIsUnusedDir(FAT_DIRECTORY *pDir){
 2042138:	defffd04 	addi	sp,sp,-12
 204213c:	df000215 	stw	fp,8(sp)
 2042140:	df000204 	addi	fp,sp,8
 2042144:	e13ffe15 	stw	r4,-8(fp)
    if (pDir->Name[0] == (alt_8)UNUSED_DIR_ENTRY)
 2042148:	e0bffe17 	ldw	r2,-8(fp)
 204214c:	10800003 	ldbu	r2,0(r2)
 2042150:	10803fcc 	andi	r2,r2,255
 2042154:	1080201c 	xori	r2,r2,128
 2042158:	10bfe004 	addi	r2,r2,-128
 204215c:	10bff958 	cmpnei	r2,r2,-27
 2042160:	1000031e 	bne	r2,zero,2042170 <fatIsUnusedDir+0x38>
        return TRUE;
 2042164:	00800044 	movi	r2,1
 2042168:	e0bfff15 	stw	r2,-4(fp)
 204216c:	00000106 	br	2042174 <fatIsUnusedDir+0x3c>
    return FALSE; 
 2042170:	e03fff15 	stw	zero,-4(fp)
 2042174:	e0bfff17 	ldw	r2,-4(fp)
}
 2042178:	e037883a 	mov	sp,fp
 204217c:	df000017 	ldw	fp,0(sp)
 2042180:	dec00104 	addi	sp,sp,4
 2042184:	f800283a 	ret

02042188 <fatDump>:

// debug
void fatDump(FAT_DIRECTORY *pDir){
 2042188:	defff804 	addi	sp,sp,-32
 204218c:	dfc00715 	stw	ra,28(sp)
 2042190:	df000615 	stw	fp,24(sp)
 2042194:	df000604 	addi	fp,sp,24
 2042198:	e13fff15 	stw	r4,-4(fp)
    char szInvalidName[] = {0x22, 0x2A, 0x2B, 0x2C, 0x2E, 0x2F, 0x3A, 0x3B, 0x3C, 0x3E, 0x3F, 0x5B, 0x5C, 0x5D, 0x7C};
 204219c:	00808174 	movhi	r2,517
 20421a0:	1099b744 	addi	r2,r2,26333
 20421a4:	e13ffb04 	addi	r4,fp,-20
 20421a8:	100b883a 	mov	r5,r2
 20421ac:	018003c4 	movi	r6,15
 20421b0:	2046bd40 	call	2046bd4 <memcpy>
    int i;
    if (pDir->Name[0] == (char)0xE5){
 20421b4:	e0bfff17 	ldw	r2,-4(fp)
 20421b8:	10800003 	ldbu	r2,0(r2)
 20421bc:	10803fcc 	andi	r2,r2,255
 20421c0:	1080201c 	xori	r2,r2,128
 20421c4:	10bfe004 	addi	r2,r2,-128
 20421c8:	10bff960 	cmpeqi	r2,r2,-27
 20421cc:	1000461e 	bne	r2,zero,20422e8 <fatDump+0x160>
        FAT_DEBUG(("the directory entry is free.\n"));
        return;
    }
    if (pDir->Name[0] == 0x00){
 20421d0:	e0bfff17 	ldw	r2,-4(fp)
 20421d4:	10800003 	ldbu	r2,0(r2)
 20421d8:	10803fcc 	andi	r2,r2,255
 20421dc:	1080201c 	xori	r2,r2,128
 20421e0:	10bfe004 	addi	r2,r2,-128
 20421e4:	1005003a 	cmpeq	r2,r2,zero
 20421e8:	10003f1e 	bne	r2,zero,20422e8 <fatDump+0x160>
        FAT_DEBUG(("the directory entry is free, and there are no allocated directory entries after tis one.\n"));
        return;
    }
    
    if (pDir->Name[0] <= 0x20 && pDir->Name[0] != 0x05){
 20421ec:	e0bfff17 	ldw	r2,-4(fp)
 20421f0:	10800003 	ldbu	r2,0(r2)
 20421f4:	10803fcc 	andi	r2,r2,255
 20421f8:	1080201c 	xori	r2,r2,128
 20421fc:	10bfe004 	addi	r2,r2,-128
 2042200:	10800848 	cmpgei	r2,r2,33
 2042204:	1000071e 	bne	r2,zero,2042224 <fatDump+0x9c>
 2042208:	e0bfff17 	ldw	r2,-4(fp)
 204220c:	10800003 	ldbu	r2,0(r2)
 2042210:	10803fcc 	andi	r2,r2,255
 2042214:	1080201c 	xori	r2,r2,128
 2042218:	10bfe004 	addi	r2,r2,-128
 204221c:	10800158 	cmpnei	r2,r2,5
 2042220:	1000311e 	bne	r2,zero,20422e8 <fatDump+0x160>
        FAT_DEBUG(("Invalid file name.\n"));
        return;
    }
    
    for(i=0;i<sizeof(szInvalidName)/sizeof(szInvalidName[0]);i++){
 2042224:	e03ffa15 	stw	zero,-24(fp)
 2042228:	00001006 	br	204226c <fatDump+0xe4>
        if (pDir->Name[0] == szInvalidName[i]){
 204222c:	e0bfff17 	ldw	r2,-4(fp)
 2042230:	11000003 	ldbu	r4,0(r2)
 2042234:	e0fffa17 	ldw	r3,-24(fp)
 2042238:	e0bffb04 	addi	r2,fp,-20
 204223c:	10c5883a 	add	r2,r2,r3
 2042240:	10800003 	ldbu	r2,0(r2)
 2042244:	20c03fcc 	andi	r3,r4,255
 2042248:	18c0201c 	xori	r3,r3,128
 204224c:	18ffe004 	addi	r3,r3,-128
 2042250:	10803fcc 	andi	r2,r2,255
 2042254:	1080201c 	xori	r2,r2,128
 2042258:	10bfe004 	addi	r2,r2,-128
 204225c:	18802226 	beq	r3,r2,20422e8 <fatDump+0x160>
    if (pDir->Name[0] <= 0x20 && pDir->Name[0] != 0x05){
        FAT_DEBUG(("Invalid file name.\n"));
        return;
    }
    
    for(i=0;i<sizeof(szInvalidName)/sizeof(szInvalidName[0]);i++){
 2042260:	e0bffa17 	ldw	r2,-24(fp)
 2042264:	10800044 	addi	r2,r2,1
 2042268:	e0bffa15 	stw	r2,-24(fp)
 204226c:	e0bffa17 	ldw	r2,-24(fp)
 2042270:	108003f0 	cmpltui	r2,r2,15
 2042274:	103fed1e 	bne	r2,zero,204222c <fatDump+0xa4>
        FAT_DEBUG(("  Directory\n"));
    if (pDir->Attribute & ATTR_ARCHIVE)
        FAT_DEBUG(("  Archive\n"));
    if (pDir->Attribute & ATTR_LONG_NAME)
        FAT_DEBUG(("  Long Name\n"));
    FAT_DEBUG(("CreateTime:")); fatDumpTime(pDir->CreateTime);FAT_DEBUG(("\n"));
 2042278:	e0bfff17 	ldw	r2,-4(fp)
 204227c:	10c00383 	ldbu	r3,14(r2)
 2042280:	108003c3 	ldbu	r2,15(r2)
 2042284:	1004923a 	slli	r2,r2,8
 2042288:	10c4b03a 	or	r2,r2,r3
 204228c:	113fffcc 	andi	r4,r2,65535
 2042290:	2041fe80 	call	2041fe8 <fatDumpTime>
    FAT_DEBUG(("CreateDate:")); fatDumpDate(pDir->LastAccessDate);FAT_DEBUG(("\n"));
 2042294:	e0bfff17 	ldw	r2,-4(fp)
 2042298:	10c00483 	ldbu	r3,18(r2)
 204229c:	108004c3 	ldbu	r2,19(r2)
 20422a0:	1004923a 	slli	r2,r2,8
 20422a4:	10c4b03a 	or	r2,r2,r3
 20422a8:	113fffcc 	andi	r4,r2,65535
 20422ac:	2041f900 	call	2041f90 <fatDumpDate>
    FAT_DEBUG(("ClusterHi:%04Xh\n", pDir->FirstLogicalClusterHi));
    FAT_DEBUG(("LastWriteTime:")); fatDumpTime(pDir->LastWriteTime);FAT_DEBUG(("\n"));
 20422b0:	e0bfff17 	ldw	r2,-4(fp)
 20422b4:	10c00583 	ldbu	r3,22(r2)
 20422b8:	108005c3 	ldbu	r2,23(r2)
 20422bc:	1004923a 	slli	r2,r2,8
 20422c0:	10c4b03a 	or	r2,r2,r3
 20422c4:	113fffcc 	andi	r4,r2,65535
 20422c8:	2041fe80 	call	2041fe8 <fatDumpTime>
    FAT_DEBUG(("LastWriteDate:")); fatDumpDate(pDir->LastWriteDate);FAT_DEBUG(("\n"));
 20422cc:	e0bfff17 	ldw	r2,-4(fp)
 20422d0:	10c00603 	ldbu	r3,24(r2)
 20422d4:	10800643 	ldbu	r2,25(r2)
 20422d8:	1004923a 	slli	r2,r2,8
 20422dc:	10c4b03a 	or	r2,r2,r3
 20422e0:	113fffcc 	andi	r4,r2,65535
 20422e4:	2041f900 	call	2041f90 <fatDumpDate>
    FAT_DEBUG(("Cluster:%04Xh(%d)\n", pDir->FirstLogicalCluster,pDir->FirstLogicalCluster));
    FAT_DEBUG(("File Size:%08Xh(%ld)\n", pDir->FileSize, (long)pDir->FileSize));
}
 20422e8:	e037883a 	mov	sp,fp
 20422ec:	dfc00117 	ldw	ra,4(sp)
 20422f0:	df000017 	ldw	fp,0(sp)
 20422f4:	dec00204 	addi	sp,sp,8
 20422f8:	f800283a 	ret

020422fc <fatArray2Value>:


unsigned int fatArray2Value(unsigned char *pValue, unsigned int nNum){
 20422fc:	defffa04 	addi	sp,sp,-24
 2042300:	df000515 	stw	fp,20(sp)
 2042304:	df000504 	addi	fp,sp,20
 2042308:	e13ffe15 	stw	r4,-8(fp)
 204230c:	e17fff15 	stw	r5,-4(fp)
    alt_u8 *pMSB = (pValue + nNum - 1);
 2042310:	e0ffff17 	ldw	r3,-4(fp)
 2042314:	e0bffe17 	ldw	r2,-8(fp)
 2042318:	1885883a 	add	r2,r3,r2
 204231c:	10bfffc4 	addi	r2,r2,-1
 2042320:	e0bffd15 	stw	r2,-12(fp)
    alt_u32 nValue;
    int i;
    for(i=0;i<nNum;i++){
 2042324:	e03ffb15 	stw	zero,-20(fp)
 2042328:	00000f06 	br	2042368 <fatArray2Value+0x6c>
        nValue <<= 8;
 204232c:	e0bffc17 	ldw	r2,-16(fp)
 2042330:	1004923a 	slli	r2,r2,8
 2042334:	e0bffc15 	stw	r2,-16(fp)
        nValue |= *pMSB--;
 2042338:	e0bffd17 	ldw	r2,-12(fp)
 204233c:	10800003 	ldbu	r2,0(r2)
 2042340:	10c03fcc 	andi	r3,r2,255
 2042344:	e0bffc17 	ldw	r2,-16(fp)
 2042348:	10c4b03a 	or	r2,r2,r3
 204234c:	e0bffc15 	stw	r2,-16(fp)
 2042350:	e0bffd17 	ldw	r2,-12(fp)
 2042354:	10bfffc4 	addi	r2,r2,-1
 2042358:	e0bffd15 	stw	r2,-12(fp)

unsigned int fatArray2Value(unsigned char *pValue, unsigned int nNum){
    alt_u8 *pMSB = (pValue + nNum - 1);
    alt_u32 nValue;
    int i;
    for(i=0;i<nNum;i++){
 204235c:	e0bffb17 	ldw	r2,-20(fp)
 2042360:	10800044 	addi	r2,r2,1
 2042364:	e0bffb15 	stw	r2,-20(fp)
 2042368:	e0fffb17 	ldw	r3,-20(fp)
 204236c:	e0bfff17 	ldw	r2,-4(fp)
 2042370:	18bfee36 	bltu	r3,r2,204232c <fatArray2Value+0x30>
        nValue <<= 8;
        nValue |= *pMSB--;
        
    }
    
    return nValue;
 2042374:	e0bffc17 	ldw	r2,-16(fp)
}
 2042378:	e037883a 	mov	sp,fp
 204237c:	df000017 	ldw	fp,0(sp)
 2042380:	dec00104 	addi	sp,sp,4
 2042384:	f800283a 	ret

02042388 <fatReadSecter>:

//=================================================================================
//// add in v2.0
bool fatReadSecter(VOLUME_INFO *pVol, alt_u32 nSecter){
 2042388:	defffb04 	addi	sp,sp,-20
 204238c:	dfc00415 	stw	ra,16(sp)
 2042390:	df000315 	stw	fp,12(sp)
 2042394:	df000304 	addi	fp,sp,12
 2042398:	e13ffe15 	stw	r4,-8(fp)
 204239c:	e17fff15 	stw	r5,-4(fp)
    bool bSuccess = TRUE;
 20423a0:	00800044 	movi	r2,1
 20423a4:	e0bffd15 	stw	r2,-12(fp)
    if (nSecter != pVol->Secter_Index){
 20423a8:	e0bffe17 	ldw	r2,-8(fp)
 20423ac:	10c09017 	ldw	r3,576(r2)
 20423b0:	e0bfff17 	ldw	r2,-4(fp)
 20423b4:	18801226 	beq	r3,r2,2042400 <fatReadSecter+0x78>
        if (!pVol->ReadBlock512(pVol->DiskHandle, nSecter, pVol->Secter_Data)){
 20423b8:	e0bffe17 	ldw	r2,-8(fp)
 20423bc:	10c00117 	ldw	r3,4(r2)
 20423c0:	e0bffe17 	ldw	r2,-8(fp)
 20423c4:	11000017 	ldw	r4,0(r2)
 20423c8:	e0bffe17 	ldw	r2,-8(fp)
 20423cc:	11801004 	addi	r6,r2,64
 20423d0:	e17fff17 	ldw	r5,-4(fp)
 20423d4:	183ee83a 	callr	r3
 20423d8:	1004c03a 	cmpne	r2,r2,zero
 20423dc:	1000051e 	bne	r2,zero,20423f4 <fatReadSecter+0x6c>
            pVol->Secter_Index = -1;
 20423e0:	e0fffe17 	ldw	r3,-8(fp)
 20423e4:	00bfffc4 	movi	r2,-1
 20423e8:	18809015 	stw	r2,576(r3)
            bSuccess = FALSE;
 20423ec:	e03ffd15 	stw	zero,-12(fp)
 20423f0:	00000306 	br	2042400 <fatReadSecter+0x78>
        }else{
            pVol->Secter_Index = nSecter;
 20423f4:	e0fffe17 	ldw	r3,-8(fp)
 20423f8:	e0bfff17 	ldw	r2,-4(fp)
 20423fc:	18809015 	stw	r2,576(r3)
        }
    }
    return bSuccess;          
 2042400:	e0bffd17 	ldw	r2,-12(fp)
}     
 2042404:	e037883a 	mov	sp,fp
 2042408:	dfc00117 	ldw	ra,4(sp)
 204240c:	df000017 	ldw	fp,0(sp)
 2042410:	dec00204 	addi	sp,sp,8
 2042414:	f800283a 	ret

02042418 <fatFindDirectory>:

//=================================================================================
//// add in v2.0
FAT_DIRECTORY* fatFindDirectory(VOLUME_INFO *pVol, alt_u32 nDirectoryIndex){
 2042418:	defff804 	addi	sp,sp,-32
 204241c:	dfc00715 	stw	ra,28(sp)
 2042420:	df000615 	stw	fp,24(sp)
 2042424:	df000604 	addi	fp,sp,24
 2042428:	e13ffe15 	stw	r4,-8(fp)
 204242c:	e17fff15 	stw	r5,-4(fp)
    FAT_DIRECTORY *pDir=NULL;
 2042430:	e03ffd15 	stw	zero,-12(fp)
    alt_u32 nSecterOffset, nSecter, nByteOffset;
             
    nSecterOffset = (sizeof(FAT_DIRECTORY)*nDirectoryIndex)/pVol->BPB_BytsPerSec;
 2042434:	e0bfff17 	ldw	r2,-4(fp)
 2042438:	1008917a 	slli	r4,r2,5
 204243c:	e0bffe17 	ldw	r2,-8(fp)
 2042440:	11400617 	ldw	r5,24(r2)
 2042444:	2045ca40 	call	2045ca4 <__udivsi3>
 2042448:	e0bffc15 	stw	r2,-16(fp)
    nSecter = pVol->RootDirectoryEntrySecter + nSecterOffset;
 204244c:	e0bffe17 	ldw	r2,-8(fp)
 2042450:	10c00e17 	ldw	r3,56(r2)
 2042454:	e0bffc17 	ldw	r2,-16(fp)
 2042458:	1885883a 	add	r2,r3,r2
 204245c:	e0bffb15 	stw	r2,-20(fp)
        // read sector
    if (fatReadSecter(pVol, nSecter)){
 2042460:	e13ffe17 	ldw	r4,-8(fp)
 2042464:	e17ffb17 	ldw	r5,-20(fp)
 2042468:	20423880 	call	2042388 <fatReadSecter>
 204246c:	1005003a 	cmpeq	r2,r2,zero
 2042470:	10000b1e 	bne	r2,zero,20424a0 <fatFindDirectory+0x88>
        nByteOffset = (sizeof(FAT_DIRECTORY)*nDirectoryIndex)%pVol->BPB_BytsPerSec; 
 2042474:	e0bfff17 	ldw	r2,-4(fp)
 2042478:	1008917a 	slli	r4,r2,5
 204247c:	e0bffe17 	ldw	r2,-8(fp)
 2042480:	11400617 	ldw	r5,24(r2)
 2042484:	2045cac0 	call	2045cac <__umodsi3>
 2042488:	e0bffa15 	stw	r2,-24(fp)
        pDir = (FAT_DIRECTORY *)(pVol->Secter_Data + nByteOffset);
 204248c:	e0bffe17 	ldw	r2,-8(fp)
 2042490:	10c01004 	addi	r3,r2,64
 2042494:	e0bffa17 	ldw	r2,-24(fp)
 2042498:	1885883a 	add	r2,r3,r2
 204249c:	e0bffd15 	stw	r2,-12(fp)
    }        
        
    return pDir;        
 20424a0:	e0bffd17 	ldw	r2,-12(fp)
}
 20424a4:	e037883a 	mov	sp,fp
 20424a8:	dfc00117 	ldw	ra,4(sp)
 20424ac:	df000017 	ldw	fp,0(sp)
 20424b0:	dec00204 	addi	sp,sp,8
 20424b4:	f800283a 	ret

020424b8 <fatFindUnusedDirectory>:

//=================================================================================
//// add in v2.0
alt_u32 fatFindUnusedDirectory(VOLUME_INFO *pVol){
 20424b8:	defff604 	addi	sp,sp,-40
 20424bc:	dfc00915 	stw	ra,36(sp)
 20424c0:	df000815 	stw	fp,32(sp)
 20424c4:	df000804 	addi	fp,sp,32
 20424c8:	e13fff15 	stw	r4,-4(fp)
    alt_u32 Dir = -1;
 20424cc:	00bfffc4 	movi	r2,-1
 20424d0:	e0bffe15 	stw	r2,-8(fp)
    FAT_DIRECTORY *pDir=NULL;
 20424d4:	e03ffd15 	stw	zero,-12(fp)
    alt_u32 nSecterOffset, nSecter, nByteOffset;
    alt_u32 nDirectoryIndex = 2; //??? start from ?
 20424d8:	00800084 	movi	r2,2
 20424dc:	e0bff915 	stw	r2,-28(fp)
    bool bDone = FALSE;
 20424e0:	e03ff815 	stw	zero,-32(fp)
             
    while(!bDone){             
 20424e4:	00003006 	br	20425a8 <fatFindUnusedDirectory+0xf0>
        nSecterOffset = (sizeof(FAT_DIRECTORY)*nDirectoryIndex)/pVol->BPB_BytsPerSec;
 20424e8:	e0bff917 	ldw	r2,-28(fp)
 20424ec:	1008917a 	slli	r4,r2,5
 20424f0:	e0bfff17 	ldw	r2,-4(fp)
 20424f4:	11400617 	ldw	r5,24(r2)
 20424f8:	2045ca40 	call	2045ca4 <__udivsi3>
 20424fc:	e0bffc15 	stw	r2,-16(fp)
        nSecter = pVol->RootDirectoryEntrySecter + nSecterOffset;
 2042500:	e0bfff17 	ldw	r2,-4(fp)
 2042504:	10c00e17 	ldw	r3,56(r2)
 2042508:	e0bffc17 	ldw	r2,-16(fp)
 204250c:	1885883a 	add	r2,r3,r2
 2042510:	e0bffb15 	stw	r2,-20(fp)
            // read sector
        if (fatReadSecter(pVol, nSecter)){
 2042514:	e13fff17 	ldw	r4,-4(fp)
 2042518:	e17ffb17 	ldw	r5,-20(fp)
 204251c:	20423880 	call	2042388 <fatReadSecter>
 2042520:	1005003a 	cmpeq	r2,r2,zero
 2042524:	10001f1e 	bne	r2,zero,20425a4 <fatFindUnusedDirectory+0xec>
            nByteOffset = (sizeof(FAT_DIRECTORY)*nDirectoryIndex)%pVol->BPB_BytsPerSec; 
 2042528:	e0bff917 	ldw	r2,-28(fp)
 204252c:	1008917a 	slli	r4,r2,5
 2042530:	e0bfff17 	ldw	r2,-4(fp)
 2042534:	11400617 	ldw	r5,24(r2)
 2042538:	2045cac0 	call	2045cac <__umodsi3>
 204253c:	e0bffa15 	stw	r2,-24(fp)
            pDir = (FAT_DIRECTORY *)(pVol->Secter_Data + nByteOffset);
 2042540:	e0bfff17 	ldw	r2,-4(fp)
 2042544:	10c01004 	addi	r3,r2,64
 2042548:	e0bffa17 	ldw	r2,-24(fp)
 204254c:	1885883a 	add	r2,r3,r2
 2042550:	e0bffd15 	stw	r2,-12(fp)
            if (fatIsLastDir(pDir) || fatIsUnusedDir(pDir)){
 2042554:	e13ffd17 	ldw	r4,-12(fp)
 2042558:	20420400 	call	2042040 <fatIsLastDir>
 204255c:	1004c03a 	cmpne	r2,r2,zero
 2042560:	1000041e 	bne	r2,zero,2042574 <fatFindUnusedDirectory+0xbc>
 2042564:	e13ffd17 	ldw	r4,-12(fp)
 2042568:	20421380 	call	2042138 <fatIsUnusedDir>
 204256c:	1005003a 	cmpeq	r2,r2,zero
 2042570:	1000081e 	bne	r2,zero,2042594 <fatFindUnusedDirectory+0xdc>
                bDone = TRUE;
 2042574:	00800044 	movi	r2,1
 2042578:	e0bff815 	stw	r2,-32(fp)
                if (fatIsUnusedDir(pDir))
 204257c:	e13ffd17 	ldw	r4,-12(fp)
 2042580:	20421380 	call	2042138 <fatIsUnusedDir>
 2042584:	1005003a 	cmpeq	r2,r2,zero
 2042588:	1000021e 	bne	r2,zero,2042594 <fatFindUnusedDirectory+0xdc>
                    Dir = nDirectoryIndex;
 204258c:	e0bff917 	ldw	r2,-28(fp)
 2042590:	e0bffe15 	stw	r2,-8(fp)
            }
            nDirectoryIndex++;        
 2042594:	e0bff917 	ldw	r2,-28(fp)
 2042598:	10800044 	addi	r2,r2,1
 204259c:	e0bff915 	stw	r2,-28(fp)
 20425a0:	00000106 	br	20425a8 <fatFindUnusedDirectory+0xf0>
        }else{
                bDone = FALSE;
 20425a4:	e03ff815 	stw	zero,-32(fp)
    FAT_DIRECTORY *pDir=NULL;
    alt_u32 nSecterOffset, nSecter, nByteOffset;
    alt_u32 nDirectoryIndex = 2; //??? start from ?
    bool bDone = FALSE;
             
    while(!bDone){             
 20425a8:	e0bff817 	ldw	r2,-32(fp)
 20425ac:	1005003a 	cmpeq	r2,r2,zero
 20425b0:	103fcd1e 	bne	r2,zero,20424e8 <fatFindUnusedDirectory+0x30>
        }else{
                bDone = FALSE;
        }
    }             
    
    return Dir;      
 20425b4:	e0bffe17 	ldw	r2,-8(fp)
}
 20425b8:	e037883a 	mov	sp,fp
 20425bc:	dfc00117 	ldw	ra,4(sp)
 20425c0:	df000017 	ldw	fp,0(sp)
 20425c4:	dec00204 	addi	sp,sp,8
 20425c8:	f800283a 	ret

020425cc <fatMount>:

//=================================================================================
bool fatMount(VOLUME_INFO *pVol){
 20425cc:	deff7504 	addi	sp,sp,-556
 20425d0:	dfc08a15 	stw	ra,552(sp)
 20425d4:	df008915 	stw	fp,548(sp)
 20425d8:	dc008815 	stw	r16,544(sp)
 20425dc:	df008804 	addi	fp,sp,544
 20425e0:	e13ffe15 	stw	r4,-8(fp)
    bool bSuccess = TRUE;
 20425e4:	00800044 	movi	r2,1
 20425e8:	e0bf7d15 	stw	r2,-524(fp)
    // 1DEh( 16 bytes): 3nd Partition Entry
    // 1EEh( 16 bytes): 4nd Partition Entry
    // 1FEh(  2 bytes): Executable Maker (55h AAh)
    
    // read first block (secotor 0), BPB(BIOS Parameter Block) or called as boot sector or reserved sector
    if (!pVol->ReadBlock512(pVol->DiskHandle, 0, szBlock)){
 20425ec:	e0bffe17 	ldw	r2,-8(fp)
 20425f0:	10c00117 	ldw	r3,4(r2)
 20425f4:	e0bffe17 	ldw	r2,-8(fp)
 20425f8:	11000017 	ldw	r4,0(r2)
 20425fc:	e1bf7e04 	addi	r6,fp,-520
 2042600:	000b883a 	mov	r5,zero
 2042604:	183ee83a 	callr	r3
 2042608:	1004c03a 	cmpne	r2,r2,zero
 204260c:	1000021e 	bne	r2,zero,2042618 <fatMount+0x4c>
        FAT_DEBUG(("Read section 0 error.\n"));
        return FALSE;
 2042610:	e03fff15 	stw	zero,-4(fp)
 2042614:	0000a606 	br	20428b0 <fatMount+0x2e4>
        return FALSE;
    }
    */
        
    // check file system 
    FirstPartitionEntry = 0x1BE;
 2042618:	00806f84 	movi	r2,446
 204261c:	e0bf7c15 	stw	r2,-528(fp)
    PartitionType = szBlock[FirstPartitionEntry + 4];
 2042620:	e0bf7c17 	ldw	r2,-528(fp)
 2042624:	10c00104 	addi	r3,r2,4
 2042628:	e0bf7e04 	addi	r2,fp,-520
 204262c:	10c5883a 	add	r2,r2,r3
 2042630:	10800003 	ldbu	r2,0(r2)
 2042634:	10803fcc 	andi	r2,r2,255
 2042638:	e0bf7b15 	stw	r2,-532(fp)
    if (PartitionType == PARTITION_FAT16){
 204263c:	e0bf7b17 	ldw	r2,-532(fp)
 2042640:	108001a0 	cmpeqi	r2,r2,6
 2042644:	1000051e 	bne	r2,zero,204265c <fatMount+0x90>
        FAT_DEBUG(("FAT16\n"));
    }else if (PartitionType == PARTITION_FAT32){
 2042648:	e0bf7b17 	ldw	r2,-532(fp)
 204264c:	108002e0 	cmpeqi	r2,r2,11
 2042650:	1000021e 	bne	r2,zero,204265c <fatMount+0x90>
        FAT_DEBUG(("FAT32\n"));
    }else{        
        FAT_DEBUG(("the partition type(%d) is not supported.\n", PartitionType));
        return FALSE; // only support FAT16 in this example
 2042654:	e03fff15 	stw	zero,-4(fp)
 2042658:	00009506 	br	20428b0 <fatMount+0x2e4>
    }       
    pVol->Partition_Type = PartitionType; 
 204265c:	e0ff7b17 	ldw	r3,-532(fp)
 2042660:	e0bffe17 	ldw	r2,-8(fp)
 2042664:	10c00315 	stw	r3,12(r2)
    // 2.2 Find the first section of partition 1                    
    FirstSectionInVolume1 = fatArray2Value(&szBlock[FirstPartitionEntry + 8],4);
 2042668:	e0ff7c17 	ldw	r3,-528(fp)
 204266c:	e0bf7e04 	addi	r2,fp,-520
 2042670:	10c5883a 	add	r2,r2,r3
 2042674:	11000204 	addi	r4,r2,8
 2042678:	01400104 	movi	r5,4
 204267c:	20422fc0 	call	20422fc <fatArray2Value>
 2042680:	e0bf7a15 	stw	r2,-536(fp)
                            //szBlock[FirstPartitionEntry + 8 + 1]*256 + 
                            //szBlock[FirstPartitionEntry + 8];        
    
    //3 Parsing the Volume Boot Record(BR)
    //3.1  Read the Volume Boot Record(BR)
    if (!pVol->ReadBlock512(pVol->DiskHandle, FirstSectionInVolume1, szBlock)){
 2042684:	e0bffe17 	ldw	r2,-8(fp)
 2042688:	10c00117 	ldw	r3,4(r2)
 204268c:	e0bffe17 	ldw	r2,-8(fp)
 2042690:	11000017 	ldw	r4,0(r2)
 2042694:	e17f7a17 	ldw	r5,-536(fp)
 2042698:	e1bf7e04 	addi	r6,fp,-520
 204269c:	183ee83a 	callr	r3
 20426a0:	1004c03a 	cmpne	r2,r2,zero
 20426a4:	1000021e 	bne	r2,zero,20426b0 <fatMount+0xe4>
        FAT_DEBUG(("Read first sector in volume one fail.\n"));
        return FALSE;
 20426a8:	e03fff15 	stw	zero,-4(fp)
 20426ac:	00008006 	br	20428b0 <fatMount+0x2e4>
    }        
    pVol->PartitionStartSecter = FirstSectionInVolume1;     
 20426b0:	e0ff7a17 	ldw	r3,-536(fp)
 20426b4:	e0bffe17 	ldw	r2,-8(fp)
 20426b8:	10c00515 	stw	r3,20(r2)
    pVol->BPB_BytsPerSec = szBlock[0x0B+1]*256 + szBlock[0x0B];
 20426bc:	e0bf8103 	ldbu	r2,-508(fp)
 20426c0:	10803fcc 	andi	r2,r2,255
 20426c4:	1006923a 	slli	r3,r2,8
 20426c8:	e0bf80c3 	ldbu	r2,-509(fp)
 20426cc:	10803fcc 	andi	r2,r2,255
 20426d0:	1885883a 	add	r2,r3,r2
 20426d4:	1007883a 	mov	r3,r2
 20426d8:	e0bffe17 	ldw	r2,-8(fp)
 20426dc:	10c00615 	stw	r3,24(r2)
    pVol->BPB_SecPerCluster = szBlock[0x0D];
 20426e0:	e0bf8143 	ldbu	r2,-507(fp)
 20426e4:	10c03fcc 	andi	r3,r2,255
 20426e8:	e0bffe17 	ldw	r2,-8(fp)
 20426ec:	10c00715 	stw	r3,28(r2)
    pVol->BPB_RsvdSecCnt = szBlock[0x0E + 1]*256 + szBlock[0x0E]; 
 20426f0:	e0bf81c3 	ldbu	r2,-505(fp)
 20426f4:	10803fcc 	andi	r2,r2,255
 20426f8:	1006923a 	slli	r3,r2,8
 20426fc:	e0bf8183 	ldbu	r2,-506(fp)
 2042700:	10803fcc 	andi	r2,r2,255
 2042704:	1885883a 	add	r2,r3,r2
 2042708:	1007883a 	mov	r3,r2
 204270c:	e0bffe17 	ldw	r2,-8(fp)
 2042710:	10c00815 	stw	r3,32(r2)
    pVol->BPB_NumFATs = szBlock[0x10];
 2042714:	e0bf8203 	ldbu	r2,-504(fp)
 2042718:	10c03fcc 	andi	r3,r2,255
 204271c:	e0bffe17 	ldw	r2,-8(fp)
 2042720:	10c00915 	stw	r3,36(r2)
    pVol->BPB_RootEntCnt = szBlock[0x11+1]*256 + szBlock[0x11]; 
 2042724:	e0bf8283 	ldbu	r2,-502(fp)
 2042728:	10803fcc 	andi	r2,r2,255
 204272c:	1006923a 	slli	r3,r2,8
 2042730:	e0bf8243 	ldbu	r2,-503(fp)
 2042734:	10803fcc 	andi	r2,r2,255
 2042738:	1885883a 	add	r2,r3,r2
 204273c:	1007883a 	mov	r3,r2
 2042740:	e0bffe17 	ldw	r2,-8(fp)
 2042744:	10c00a15 	stw	r3,40(r2)
    pVol->BPB_FATSz = szBlock[0x16+1]*256 + szBlock[0x16];
 2042748:	e0bf83c3 	ldbu	r2,-497(fp)
 204274c:	10803fcc 	andi	r2,r2,255
 2042750:	1006923a 	slli	r3,r2,8
 2042754:	e0bf8383 	ldbu	r2,-498(fp)
 2042758:	10803fcc 	andi	r2,r2,255
 204275c:	1885883a 	add	r2,r3,r2
 2042760:	1007883a 	mov	r3,r2
 2042764:	e0bffe17 	ldw	r2,-8(fp)
 2042768:	10c00b15 	stw	r3,44(r2)
    
    // add for v2.0
    pVol->Secter_Index = -1;
 204276c:	e0fffe17 	ldw	r3,-8(fp)
 2042770:	00bfffc4 	movi	r2,-1
 2042774:	18809015 	stw	r2,576(r3)
    memset(pVol->Secter_Data, 0, MY_SECTER_SIZE); // 512 bytes
 2042778:	e0bffe17 	ldw	r2,-8(fp)
 204277c:	10801004 	addi	r2,r2,64
 2042780:	1009883a 	mov	r4,r2
 2042784:	01808004 	movi	r6,512
 2042788:	000b883a 	mov	r5,zero
 204278c:	2046c740 	call	2046c74 <memset>
    
    if (pVol->Partition_Type == PARTITION_FAT32){
 2042790:	e0bffe17 	ldw	r2,-8(fp)
 2042794:	10800317 	ldw	r2,12(r2)
 2042798:	108002d8 	cmpnei	r2,r2,11
 204279c:	1000071e 	bne	r2,zero,20427bc <fatMount+0x1f0>
        pVol->BPB_FATSz = fatArray2Value(&szBlock[0x24], 4);  // BPB_FATSz32
 20427a0:	e0bf7e04 	addi	r2,fp,-520
 20427a4:	11000904 	addi	r4,r2,36
 20427a8:	01400104 	movi	r5,4
 20427ac:	20422fc0 	call	20422fc <fatArray2Value>
 20427b0:	1007883a 	mov	r3,r2
 20427b4:	e0bffe17 	ldw	r2,-8(fp)
 20427b8:	10c00b15 	stw	r3,44(r2)
        //pVol->BPB_RootEntCnt = fatArray2Value(&szBlock[0x2C], 4);  // BPB_RootClus            
    }
    
    if (pVol->BPB_BytsPerSec != MY_SECTER_SIZE){
 20427bc:	e0bffe17 	ldw	r2,-8(fp)
 20427c0:	10800617 	ldw	r2,24(r2)
 20427c4:	10808020 	cmpeqi	r2,r2,512
 20427c8:	1000021e 	bne	r2,zero,20427d4 <fatMount+0x208>
        FAT_DEBUG(("This program only supports FAT BPB_BytsPerSec == %d\n", MY_SECTER_SIZE));
        return FALSE; // only support FAT16 in this example
 20427cc:	e03fff15 	stw	zero,-4(fp)
 20427d0:	00003706 	br	20428b0 <fatMount+0x2e4>
    FAT_DEBUG(("Number of Copyies of FAT: %02Xh(%d)\n", gVolumeInfo.BPB_NumFATs, gVolumeInfo.BPB_NumFATs));
    FAT_DEBUG(("Maxmun Root Directory Entries: %04Xh(%d)\n", gVolumeInfo.BPB_RootEntCnt, gVolumeInfo.BPB_RootEntCnt));
    FAT_DEBUG(("Sectors Per FAT: %04Xh(%d)\n", gVolumeInfo.BPB_FATSz, gVolumeInfo.BPB_FATSz));
#endif    
    //
    pVol->FatEntrySecter = pVol->PartitionStartSecter + pVol->BPB_RsvdSecCnt;
 20427d4:	e0bffe17 	ldw	r2,-8(fp)
 20427d8:	10c00517 	ldw	r3,20(r2)
 20427dc:	e0bffe17 	ldw	r2,-8(fp)
 20427e0:	10800817 	ldw	r2,32(r2)
 20427e4:	1887883a 	add	r3,r3,r2
 20427e8:	e0bffe17 	ldw	r2,-8(fp)
 20427ec:	10c00d15 	stw	r3,52(r2)
    pVol->RootDirectoryEntrySecter = pVol->FatEntrySecter + pVol->BPB_NumFATs * pVol->BPB_FATSz;
 20427f0:	e0bffe17 	ldw	r2,-8(fp)
 20427f4:	11000d17 	ldw	r4,52(r2)
 20427f8:	e0bffe17 	ldw	r2,-8(fp)
 20427fc:	10c00917 	ldw	r3,36(r2)
 2042800:	e0bffe17 	ldw	r2,-8(fp)
 2042804:	10800b17 	ldw	r2,44(r2)
 2042808:	1885383a 	mul	r2,r3,r2
 204280c:	2087883a 	add	r3,r4,r2
 2042810:	e0bffe17 	ldw	r2,-8(fp)
 2042814:	10c00e15 	stw	r3,56(r2)
    pVol->DataEntrySecter = pVol->RootDirectoryEntrySecter + ((pVol->BPB_RootEntCnt*32)+(pVol->BPB_BytsPerSec-1))/pVol->BPB_BytsPerSec;
 2042818:	e0bffe17 	ldw	r2,-8(fp)
 204281c:	14000e17 	ldw	r16,56(r2)
 2042820:	e0bffe17 	ldw	r2,-8(fp)
 2042824:	10800a17 	ldw	r2,40(r2)
 2042828:	1006917a 	slli	r3,r2,5
 204282c:	e0bffe17 	ldw	r2,-8(fp)
 2042830:	10800617 	ldw	r2,24(r2)
 2042834:	1885883a 	add	r2,r3,r2
 2042838:	113fffc4 	addi	r4,r2,-1
 204283c:	e0bffe17 	ldw	r2,-8(fp)
 2042840:	11400617 	ldw	r5,24(r2)
 2042844:	2045ca40 	call	2045ca4 <__udivsi3>
 2042848:	8087883a 	add	r3,r16,r2
 204284c:	e0bffe17 	ldw	r2,-8(fp)
 2042850:	10c00f15 	stw	r3,60(r2)
    
    // read FAT table into memory
    pVol->nBytesPerCluster = pVol->BPB_BytsPerSec * pVol->BPB_SecPerCluster;
 2042854:	e0bffe17 	ldw	r2,-8(fp)
 2042858:	10c00617 	ldw	r3,24(r2)
 204285c:	e0bffe17 	ldw	r2,-8(fp)
 2042860:	10800717 	ldw	r2,28(r2)
 2042864:	1887383a 	mul	r3,r3,r2
 2042868:	e0bffe17 	ldw	r2,-8(fp)
 204286c:	10c00c15 	stw	r3,48(r2)
    nFatTableSecterNum = pVol->BPB_NumFATs * pVol->BPB_FATSz;
 2042870:	e0bffe17 	ldw	r2,-8(fp)
 2042874:	10c00917 	ldw	r3,36(r2)
 2042878:	e0bffe17 	ldw	r2,-8(fp)
 204287c:	10800b17 	ldw	r2,44(r2)
 2042880:	1885383a 	mul	r2,r3,r2
 2042884:	e0bf7815 	stw	r2,-544(fp)
    nFatTableSize = nFatTableSecterNum * pVol->BPB_BytsPerSec;
 2042888:	e0bffe17 	ldw	r2,-8(fp)
 204288c:	10c00617 	ldw	r3,24(r2)
 2042890:	e0bf7817 	ldw	r2,-544(fp)
 2042894:	1885383a 	mul	r2,r3,r2
 2042898:	e0bf7915 	stw	r2,-540(fp)
    if (bSuccess){
        FAT_DEBUG(("Fat_Mount success\n"));
    }else{        
        FAT_DEBUG(("Fat_Mount fail\n"));
    }        
    pVol->bMount = bSuccess;
 204289c:	e0fffe17 	ldw	r3,-8(fp)
 20428a0:	e0bf7d17 	ldw	r2,-524(fp)
 20428a4:	18800415 	stw	r2,16(r3)
    return bSuccess;   
 20428a8:	e0bf7d17 	ldw	r2,-524(fp)
 20428ac:	e0bfff15 	stw	r2,-4(fp)
 20428b0:	e0bfff17 	ldw	r2,-4(fp)
    

}
 20428b4:	e037883a 	mov	sp,fp
 20428b8:	dfc00217 	ldw	ra,8(sp)
 20428bc:	df000117 	ldw	fp,4(sp)
 20428c0:	dc000017 	ldw	r16,0(sp)
 20428c4:	dec00304 	addi	sp,sp,12
 20428c8:	f800283a 	ret

020428cc <SD_ReadBlock512>:

//===================== SUPPORT_SD_CARD =================================================
#ifdef SUPPORT_SD_CARD

bool SD_ReadBlock512(DISK_HANDLE DiskHandle, alt_u32 PysicalSelector, alt_u8 szBuf[512]){
 20428cc:	defffb04 	addi	sp,sp,-20
 20428d0:	dfc00415 	stw	ra,16(sp)
 20428d4:	df000315 	stw	fp,12(sp)
 20428d8:	df000304 	addi	fp,sp,12
 20428dc:	e13ffd15 	stw	r4,-12(fp)
 20428e0:	e17ffe15 	stw	r5,-8(fp)
 20428e4:	e1bfff15 	stw	r6,-4(fp)
    return SDLIB_ReadBlock512(PysicalSelector, szBuf);
 20428e8:	e13ffe17 	ldw	r4,-8(fp)
 20428ec:	e17fff17 	ldw	r5,-4(fp)
 20428f0:	2043be80 	call	2043be8 <SDLIB_ReadBlock512>
}
 20428f4:	e037883a 	mov	sp,fp
 20428f8:	dfc00117 	ldw	ra,4(sp)
 20428fc:	df000017 	ldw	fp,0(sp)
 2042900:	dec00204 	addi	sp,sp,8
 2042904:	f800283a 	ret

02042908 <SD_WriteBlock512>:

bool SD_WriteBlock512(DISK_HANDLE DiskHandle, alt_u32 PysicalSelector, alt_u8 szBuf[512]){
 2042908:	defffb04 	addi	sp,sp,-20
 204290c:	dfc00415 	stw	ra,16(sp)
 2042910:	df000315 	stw	fp,12(sp)
 2042914:	df000304 	addi	fp,sp,12
 2042918:	e13ffd15 	stw	r4,-12(fp)
 204291c:	e17ffe15 	stw	r5,-8(fp)
 2042920:	e1bfff15 	stw	r6,-4(fp)
    return SDLIB_WriteBlock512(PysicalSelector, szBuf);
 2042924:	e13ffe17 	ldw	r4,-8(fp)
 2042928:	e17fff17 	ldw	r5,-4(fp)
 204292c:	2043c780 	call	2043c78 <SDLIB_WriteBlock512>
}
 2042930:	e037883a 	mov	sp,fp
 2042934:	dfc00117 	ldw	ra,4(sp)
 2042938:	df000017 	ldw	fp,0(sp)
 204293c:	dec00204 	addi	sp,sp,8
 2042940:	f800283a 	ret

02042944 <fatMountSdcard>:

FAT_HANDLE fatMountSdcard(void){
 2042944:	defff704 	addi	sp,sp,-36
 2042948:	dfc00815 	stw	ra,32(sp)
 204294c:	df000715 	stw	fp,28(sp)
 2042950:	df000704 	addi	fp,sp,28
    FAT_HANDLE hFat = 0;
 2042954:	e03ffe15 	stw	zero,-8(fp)
    VOLUME_INFO *pVol;
    const int nMaxTry=10;
 2042958:	00800284 	movi	r2,10
 204295c:	e0bffc15 	stw	r2,-16(fp)
    bool bFind = FALSE;
 2042960:	e03ffb15 	stw	zero,-20(fp)
    int nTry=0;
 2042964:	e03ffa15 	stw	zero,-24(fp)
    bool bSuccess = TRUE;
 2042968:	00800044 	movi	r2,1
 204296c:	e0bff915 	stw	r2,-28(fp)
    
        
    //1. chek whether SD Card existed. Init SD card if it is present.
    while(!bFind && nTry++ < nMaxTry){
 2042970:	00000806 	br	2042994 <fatMountSdcard+0x50>
        bFind = SDLIB_Init();
 2042974:	204384c0 	call	204384c <SDLIB_Init>
 2042978:	e0bffb15 	stw	r2,-20(fp)
        if (!bFind)
 204297c:	e0bffb17 	ldw	r2,-20(fp)
 2042980:	1004c03a 	cmpne	r2,r2,zero
 2042984:	1000031e 	bne	r2,zero,2042994 <fatMountSdcard+0x50>
            usleep(100*1000);
 2042988:	010000b4 	movhi	r4,2
 204298c:	2121a804 	addi	r4,r4,-31072
 2042990:	20503a80 	call	20503a8 <usleep>
    int nTry=0;
    bool bSuccess = TRUE;
    
        
    //1. chek whether SD Card existed. Init SD card if it is present.
    while(!bFind && nTry++ < nMaxTry){
 2042994:	e0bffb17 	ldw	r2,-20(fp)
 2042998:	1004c03a 	cmpne	r2,r2,zero
 204299c:	10000a1e 	bne	r2,zero,20429c8 <fatMountSdcard+0x84>
 20429a0:	e0fffa17 	ldw	r3,-24(fp)
 20429a4:	e0bffc17 	ldw	r2,-16(fp)
 20429a8:	1884803a 	cmplt	r2,r3,r2
 20429ac:	1007883a 	mov	r3,r2
 20429b0:	e0bffa17 	ldw	r2,-24(fp)
 20429b4:	10800044 	addi	r2,r2,1
 20429b8:	e0bffa15 	stw	r2,-24(fp)
 20429bc:	18803fcc 	andi	r2,r3,255
 20429c0:	1004c03a 	cmpne	r2,r2,zero
 20429c4:	103feb1e 	bne	r2,zero,2042974 <fatMountSdcard+0x30>
        bFind = SDLIB_Init();
        if (!bFind)
            usleep(100*1000);
    }
    if (!bFind){
 20429c8:	e0bffb17 	ldw	r2,-20(fp)
 20429cc:	1004c03a 	cmpne	r2,r2,zero
 20429d0:	1000031e 	bne	r2,zero,20429e0 <fatMountSdcard+0x9c>
        FAT_DEBUG(("Cannot find SD card.\n"));
        return hFat;
 20429d4:	e0bffe17 	ldw	r2,-8(fp)
 20429d8:	e0bfff15 	stw	r2,-4(fp)
 20429dc:	00001c06 	br	2042a50 <fatMountSdcard+0x10c>
    }    
    
    hFat = malloc(sizeof(VOLUME_INFO));
 20429e0:	01009104 	movi	r4,580
 20429e4:	20464800 	call	2046480 <malloc>
 20429e8:	e0bffe15 	stw	r2,-8(fp)
    pVol = (VOLUME_INFO *)hFat;
 20429ec:	e0bffe17 	ldw	r2,-8(fp)
 20429f0:	e0bffd15 	stw	r2,-12(fp)
    pVol->ReadBlock512 = SD_ReadBlock512;
 20429f4:	e0fffd17 	ldw	r3,-12(fp)
 20429f8:	00808134 	movhi	r2,516
 20429fc:	108a3304 	addi	r2,r2,10444
 2042a00:	18800115 	stw	r2,4(r3)
    pVol->WriteBlock512 = SD_WriteBlock512;
 2042a04:	e0fffd17 	ldw	r3,-12(fp)
 2042a08:	00808134 	movhi	r2,516
 2042a0c:	108a4204 	addi	r2,r2,10504
 2042a10:	18800215 	stw	r2,8(r3)
    bSuccess = fatMount(pVol);
 2042a14:	e13ffd17 	ldw	r4,-12(fp)
 2042a18:	20425cc0 	call	20425cc <fatMount>
 2042a1c:	e0bff915 	stw	r2,-28(fp)
        
    
  
    if (bSuccess){
 2042a20:	e0bff917 	ldw	r2,-28(fp)
 2042a24:	1005003a 	cmpeq	r2,r2,zero
 2042a28:	1000041e 	bne	r2,zero,2042a3c <fatMountSdcard+0xf8>
        FAT_DEBUG(("Fat_Mount success\n"));
        pVol->bMount = TRUE;
 2042a2c:	e0fffd17 	ldw	r3,-12(fp)
 2042a30:	00800044 	movi	r2,1
 2042a34:	18800415 	stw	r2,16(r3)
 2042a38:	00000306 	br	2042a48 <fatMountSdcard+0x104>
    }else{        
        FAT_DEBUG(("Fat_Mount fail\n"));
        free((void *)hFat);
 2042a3c:	e13ffe17 	ldw	r4,-8(fp)
 2042a40:	204646c0 	call	204646c <free>
        hFat = 0;
 2042a44:	e03ffe15 	stw	zero,-8(fp)
    }        

    return hFat;   
 2042a48:	e0bffe17 	ldw	r2,-8(fp)
 2042a4c:	e0bfff15 	stw	r2,-4(fp)
 2042a50:	e0bfff17 	ldw	r2,-4(fp)
}
 2042a54:	e037883a 	mov	sp,fp
 2042a58:	dfc00117 	ldw	ra,4(sp)
 2042a5c:	df000017 	ldw	fp,0(sp)
 2042a60:	dec00204 	addi	sp,sp,8
 2042a64:	f800283a 	ret

02042a68 <debug_output>:
    UART_WriteString(pMessage);  // UART debug
}

#else

void debug_output(char *pMessage){
 2042a68:	defffd04 	addi	sp,sp,-12
 2042a6c:	dfc00215 	stw	ra,8(sp)
 2042a70:	df000115 	stw	fp,4(sp)
 2042a74:	df000104 	addi	fp,sp,4
 2042a78:	e13fff15 	stw	r4,-4(fp)
    
    printf(pMessage);
 2042a7c:	e13fff17 	ldw	r4,-4(fp)
 2042a80:	2046d0c0 	call	2046d0c <printf>
}
 2042a84:	e037883a 	mov	sp,fp
 2042a88:	dfc00117 	ldw	ra,4(sp)
 2042a8c:	df000017 	ldw	fp,0(sp)
 2042a90:	dec00204 	addi	sp,sp,8
 2042a94:	f800283a 	ret

02042a98 <myprintf>:





int myprintf(char *format, ...){
 2042a98:	deff7804 	addi	sp,sp,-544
 2042a9c:	dfc08415 	stw	ra,528(sp)
 2042aa0:	df008315 	stw	fp,524(sp)
 2042aa4:	df008304 	addi	fp,sp,524
 2042aa8:	e1400215 	stw	r5,8(fp)
 2042aac:	e1800315 	stw	r6,12(fp)
 2042ab0:	e1c00415 	stw	r7,16(fp)
 2042ab4:	e13fff15 	stw	r4,-4(fp)
    int rc;
    char szText[512];
    
    va_list paramList;
    va_start(paramList, format);
 2042ab8:	e0800204 	addi	r2,fp,8
 2042abc:	e0bffe15 	stw	r2,-8(fp)
    rc = vsnprintf(szText, 512, format, paramList);
 2042ac0:	e1fffe17 	ldw	r7,-8(fp)
 2042ac4:	e13f7e04 	addi	r4,fp,-520
 2042ac8:	01408004 	movi	r5,512
 2042acc:	e1bfff17 	ldw	r6,-4(fp)
 2042ad0:	20490a00 	call	20490a0 <vsnprintf>
 2042ad4:	e0bf7d15 	stw	r2,-524(fp)
    va_end(paramList);
    
    debug_output(szText);
 2042ad8:	e13f7e04 	addi	r4,fp,-520
 2042adc:	2042a680 	call	2042a68 <debug_output>

    return rc;    
 2042ae0:	e0bf7d17 	ldw	r2,-524(fp)
}
 2042ae4:	e037883a 	mov	sp,fp
 2042ae8:	dfc00117 	ldw	ra,4(sp)
 2042aec:	df000017 	ldw	fp,0(sp)
 2042af0:	dec00504 	addi	sp,sp,20
 2042af4:	f800283a 	ret

02042af8 <myprintf_hexarray>:


int myprintf_hexarray(unsigned char *pHex, int len){
 2042af8:	defff704 	addi	sp,sp,-36
 2042afc:	dfc00815 	stw	ra,32(sp)
 2042b00:	df000715 	stw	fp,28(sp)
 2042b04:	df000704 	addi	fp,sp,28
 2042b08:	e13ffe15 	stw	r4,-8(fp)
 2042b0c:	e17fff15 	stw	r5,-4(fp)
    int i;
    unsigned char szText[16];
    for(i=0;i<len;i++){
 2042b10:	e03ff915 	stw	zero,-28(fp)
 2042b14:	00000f06 	br	2042b54 <myprintf_hexarray+0x5c>
        sprintf(szText, "[%02X]", *(pHex+i));
 2042b18:	e13ffa04 	addi	r4,fp,-24
 2042b1c:	e0bff917 	ldw	r2,-28(fp)
 2042b20:	1007883a 	mov	r3,r2
 2042b24:	e0bffe17 	ldw	r2,-8(fp)
 2042b28:	1885883a 	add	r2,r3,r2
 2042b2c:	10800003 	ldbu	r2,0(r2)
 2042b30:	11803fcc 	andi	r6,r2,255
 2042b34:	01408174 	movhi	r5,517
 2042b38:	2959bb04 	addi	r5,r5,26348
 2042b3c:	2046ecc0 	call	2046ecc <sprintf>
        DEBUG((szText));
 2042b40:	e13ffa04 	addi	r4,fp,-24
 2042b44:	2042a980 	call	2042a98 <myprintf>


int myprintf_hexarray(unsigned char *pHex, int len){
    int i;
    unsigned char szText[16];
    for(i=0;i<len;i++){
 2042b48:	e0bff917 	ldw	r2,-28(fp)
 2042b4c:	10800044 	addi	r2,r2,1
 2042b50:	e0bff915 	stw	r2,-28(fp)
 2042b54:	e0fff917 	ldw	r3,-28(fp)
 2042b58:	e0bfff17 	ldw	r2,-4(fp)
 2042b5c:	18bfee16 	blt	r3,r2,2042b18 <myprintf_hexarray+0x20>
        sprintf(szText, "[%02X]", *(pHex+i));
        DEBUG((szText));
    }
    return len;
 2042b60:	e0bfff17 	ldw	r2,-4(fp)
}
 2042b64:	e037883a 	mov	sp,fp
 2042b68:	dfc00117 	ldw	ra,4(sp)
 2042b6c:	df000017 	ldw	fp,0(sp)
 2042b70:	dec00204 	addi	sp,sp,8
 2042b74:	f800283a 	ret

02042b78 <myprintf_dwordarray>:

int  myprintf_dwordarray(unsigned int *pArray, int nElementCount){
 2042b78:	defff704 	addi	sp,sp,-36
 2042b7c:	dfc00815 	stw	ra,32(sp)
 2042b80:	df000715 	stw	fp,28(sp)
 2042b84:	df000704 	addi	fp,sp,28
 2042b88:	e13ffe15 	stw	r4,-8(fp)
 2042b8c:	e17fff15 	stw	r5,-4(fp)
    int i;
    char szText[16];
    for(i=0;i<nElementCount;i++){
 2042b90:	e03ff915 	stw	zero,-28(fp)
 2042b94:	00001006 	br	2042bd8 <myprintf_dwordarray+0x60>
        sprintf(szText, "[%08X]", *(pArray+i));
 2042b98:	e0bff917 	ldw	r2,-28(fp)
 2042b9c:	1085883a 	add	r2,r2,r2
 2042ba0:	1085883a 	add	r2,r2,r2
 2042ba4:	1007883a 	mov	r3,r2
 2042ba8:	e0bffe17 	ldw	r2,-8(fp)
 2042bac:	1885883a 	add	r2,r3,r2
 2042bb0:	11800017 	ldw	r6,0(r2)
 2042bb4:	e13ffa04 	addi	r4,fp,-24
 2042bb8:	01408174 	movhi	r5,517
 2042bbc:	2959bd04 	addi	r5,r5,26356
 2042bc0:	2046ecc0 	call	2046ecc <sprintf>
        DEBUG((szText));
 2042bc4:	e13ffa04 	addi	r4,fp,-24
 2042bc8:	2042a980 	call	2042a98 <myprintf>
}

int  myprintf_dwordarray(unsigned int *pArray, int nElementCount){
    int i;
    char szText[16];
    for(i=0;i<nElementCount;i++){
 2042bcc:	e0bff917 	ldw	r2,-28(fp)
 2042bd0:	10800044 	addi	r2,r2,1
 2042bd4:	e0bff915 	stw	r2,-28(fp)
 2042bd8:	e0fff917 	ldw	r3,-28(fp)
 2042bdc:	e0bfff17 	ldw	r2,-4(fp)
 2042be0:	18bfed16 	blt	r3,r2,2042b98 <myprintf_dwordarray+0x20>
        sprintf(szText, "[%08X]", *(pArray+i));
        DEBUG((szText));
    }
    return nElementCount;
 2042be4:	e0bfff17 	ldw	r2,-4(fp)
}
 2042be8:	e037883a 	mov	sp,fp
 2042bec:	dfc00117 	ldw	ra,4(sp)
 2042bf0:	df000017 	ldw	fp,0(sp)
 2042bf4:	dec00204 	addi	sp,sp,8
 2042bf8:	f800283a 	ret

02042bfc <crc16>:
    0x7c26,0x6c07,0x5c64,0x4c45,0x3ca2,0x2c83,0x1ce0,0x0cc1,
    0xef1f,0xff3e,0xcf5d,0xdf7c,0xaf9b,0xbfba,0x8fd9,0x9ff8,
    0x6e17,0x7e36,0x4e55,0x5e74,0x2e93,0x3eb2,0x0ed1,0x1ef0
};
  
alt_u16 crc16(const alt_u8 *buffer, int len){
 2042bfc:	defffb04 	addi	sp,sp,-20
 2042c00:	df000415 	stw	fp,16(sp)
 2042c04:	df000404 	addi	fp,sp,16
 2042c08:	e13ffe15 	stw	r4,-8(fp)
 2042c0c:	e17fff15 	stw	r5,-4(fp)

    int counter;
    alt_u16 crc = 0;
 2042c10:	e03ffc0d 	sth	zero,-16(fp)
    for( counter = 0; counter < len; counter++)
 2042c14:	e03ffd15 	stw	zero,-12(fp)
 2042c18:	00001a06 	br	2042c84 <crc16+0x88>
        crc = (crc<<8) ^ crc16tab[((crc>>8) ^ *(char *)buffer++)&0x00FF];
 2042c1c:	e0bffc0b 	ldhu	r2,-16(fp)
 2042c20:	1004923a 	slli	r2,r2,8
 2042c24:	1009883a 	mov	r4,r2
 2042c28:	e0bffc0b 	ldhu	r2,-16(fp)
 2042c2c:	1004d23a 	srli	r2,r2,8
 2042c30:	10ffffcc 	andi	r3,r2,65535
 2042c34:	e0bffe17 	ldw	r2,-8(fp)
 2042c38:	10800003 	ldbu	r2,0(r2)
 2042c3c:	10803fcc 	andi	r2,r2,255
 2042c40:	1080201c 	xori	r2,r2,128
 2042c44:	10bfe004 	addi	r2,r2,-128
 2042c48:	1884f03a 	xor	r2,r3,r2
 2042c4c:	10803fcc 	andi	r2,r2,255
 2042c50:	00c08174 	movhi	r3,517
 2042c54:	18d9bf04 	addi	r3,r3,26364
 2042c58:	1085883a 	add	r2,r2,r2
 2042c5c:	10c5883a 	add	r2,r2,r3
 2042c60:	1080000b 	ldhu	r2,0(r2)
 2042c64:	2084f03a 	xor	r2,r4,r2
 2042c68:	e0bffc0d 	sth	r2,-16(fp)
 2042c6c:	e0bffe17 	ldw	r2,-8(fp)
 2042c70:	10800044 	addi	r2,r2,1
 2042c74:	e0bffe15 	stw	r2,-8(fp)
  
alt_u16 crc16(const alt_u8 *buffer, int len){

    int counter;
    alt_u16 crc = 0;
    for( counter = 0; counter < len; counter++)
 2042c78:	e0bffd17 	ldw	r2,-12(fp)
 2042c7c:	10800044 	addi	r2,r2,1
 2042c80:	e0bffd15 	stw	r2,-12(fp)
 2042c84:	e0fffd17 	ldw	r3,-12(fp)
 2042c88:	e0bfff17 	ldw	r2,-4(fp)
 2042c8c:	18bfe316 	blt	r3,r2,2042c1c <crc16+0x20>
        crc = (crc<<8) ^ crc16tab[((crc>>8) ^ *(char *)buffer++)&0x00FF];
    return crc;
 2042c90:	e0bffc0b 	ldhu	r2,-16(fp)
}
 2042c94:	e037883a 	mov	sp,fp
 2042c98:	df000017 	ldw	fp,0(sp)
 2042c9c:	dec00104 	addi	sp,sp,4
 2042ca0:	f800283a 	ret

02042ca4 <crc7_byte>:
      0x0e, 0x07, 0x1c, 0x15, 0x2a, 0x23, 0x38, 0x31,
      0x46, 0x4f, 0x54, 0x5d, 0x62, 0x6b, 0x70, 0x79
};

alt_u8 crc7_byte(alt_u8 crc, alt_u8 data)
{
 2042ca4:	defffd04 	addi	sp,sp,-12
 2042ca8:	df000215 	stw	fp,8(sp)
 2042cac:	df000204 	addi	fp,sp,8
 2042cb0:	e13ffe05 	stb	r4,-8(fp)
 2042cb4:	e17fff05 	stb	r5,-4(fp)
        return crc7_syndrome_table[(crc << 1) ^ data];
 2042cb8:	e0bffe03 	ldbu	r2,-8(fp)
 2042cbc:	1085883a 	add	r2,r2,r2
 2042cc0:	1007883a 	mov	r3,r2
 2042cc4:	e0bfff03 	ldbu	r2,-4(fp)
 2042cc8:	1886f03a 	xor	r3,r3,r2
 2042ccc:	00808174 	movhi	r2,517
 2042cd0:	109a3f04 	addi	r2,r2,26876
 2042cd4:	10c5883a 	add	r2,r2,r3
 2042cd8:	10800003 	ldbu	r2,0(r2)
 2042cdc:	10803fcc 	andi	r2,r2,255
}
 2042ce0:	e037883a 	mov	sp,fp
 2042ce4:	df000017 	ldw	fp,0(sp)
 2042ce8:	dec00104 	addi	sp,sp,4
 2042cec:	f800283a 	ret

02042cf0 <crc7>:
 * Context: any
 *
 * Returns the updated CRC7 value.
 */
alt_u8 crc7(alt_u8 crc, const alt_u8 *buffer, int len)
{
 2042cf0:	defffb04 	addi	sp,sp,-20
 2042cf4:	dfc00415 	stw	ra,16(sp)
 2042cf8:	df000315 	stw	fp,12(sp)
 2042cfc:	df000304 	addi	fp,sp,12
 2042d00:	e17ffe15 	stw	r5,-8(fp)
 2042d04:	e1bfff15 	stw	r6,-4(fp)
 2042d08:	e13ffd05 	stb	r4,-12(fp)
      while (len--)
 2042d0c:	00000906 	br	2042d34 <crc7+0x44>
            crc = crc7_byte(crc, *buffer++);
 2042d10:	e13ffd03 	ldbu	r4,-12(fp)
 2042d14:	e0bffe17 	ldw	r2,-8(fp)
 2042d18:	10800003 	ldbu	r2,0(r2)
 2042d1c:	11403fcc 	andi	r5,r2,255
 2042d20:	e0bffe17 	ldw	r2,-8(fp)
 2042d24:	10800044 	addi	r2,r2,1
 2042d28:	e0bffe15 	stw	r2,-8(fp)
 2042d2c:	2042ca40 	call	2042ca4 <crc7_byte>
 2042d30:	e0bffd05 	stb	r2,-12(fp)
 *
 * Returns the updated CRC7 value.
 */
alt_u8 crc7(alt_u8 crc, const alt_u8 *buffer, int len)
{
      while (len--)
 2042d34:	e0bfff17 	ldw	r2,-4(fp)
 2042d38:	10bfffc4 	addi	r2,r2,-1
 2042d3c:	e0bfff15 	stw	r2,-4(fp)
 2042d40:	e0bfff17 	ldw	r2,-4(fp)
 2042d44:	10bfffd8 	cmpnei	r2,r2,-1
 2042d48:	103ff11e 	bne	r2,zero,2042d10 <crc7+0x20>
            crc = crc7_byte(crc, *buffer++);
      return crc;
 2042d4c:	e0bffd03 	ldbu	r2,-12(fp)
}
 2042d50:	e037883a 	mov	sp,fp
 2042d54:	dfc00117 	ldw	ra,4(sp)
 2042d58:	df000017 	ldw	fp,0(sp)
 2042d5c:	dec00204 	addi	sp,sp,8
 2042d60:	f800283a 	ret

02042d64 <SDHAL_IsSupport4Bits>:
#include "sd_hal.h"
#include "sd_hw.h"
#include "crc16.h"


bool SDHAL_IsSupport4Bits(void){
 2042d64:	defffe04 	addi	sp,sp,-8
 2042d68:	df000115 	stw	fp,4(sp)
 2042d6c:	df000104 	addi	fp,sp,4
    bool bYes = FALSE;
 2042d70:	e03fff15 	stw	zero,-4(fp)
#ifdef SD_4BIT_MODE
    bYes = TRUE;
 2042d74:	00800044 	movi	r2,1
 2042d78:	e0bfff15 	stw	r2,-4(fp)
#endif    
    return bYes;
 2042d7c:	e0bfff17 	ldw	r2,-4(fp)
}
 2042d80:	e037883a 	mov	sp,fp
 2042d84:	df000017 	ldw	fp,0(sp)
 2042d88:	dec00104 	addi	sp,sp,4
 2042d8c:	f800283a 	ret

02042d90 <SDHAL_Init>:

void SDHAL_Init(void){
 2042d90:	deffff04 	addi	sp,sp,-4
 2042d94:	df000015 	stw	fp,0(sp)
 2042d98:	d839883a 	mov	fp,sp
    SD_CMD_OUT;
 2042d9c:	00c02504 	movi	r3,148
 2042da0:	00800044 	movi	r2,1
 2042da4:	18800035 	stwio	r2,0(r3)
    SD_DAT_IN;
 2042da8:	00802904 	movi	r2,164
 2042dac:	10000035 	stwio	zero,0(r2)
    SD_CLK_HIGH;
 2042db0:	00c02004 	movi	r3,128
 2042db4:	00800044 	movi	r2,1
 2042db8:	18800035 	stwio	r2,0(r3)
    SD_CMD_HIGH;
 2042dbc:	00c02404 	movi	r3,144
 2042dc0:	00800044 	movi	r2,1
 2042dc4:	18800035 	stwio	r2,0(r3)
    SD_DAT_LOW;    
 2042dc8:	00802804 	movi	r2,160
 2042dcc:	10000035 	stwio	zero,0(r2)
}
 2042dd0:	e037883a 	mov	sp,fp
 2042dd4:	df000017 	ldw	fp,0(sp)
 2042dd8:	dec00104 	addi	sp,sp,4
 2042ddc:	f800283a 	ret

02042de0 <SDHAL_SendCmd>:

void SDHAL_SendCmd(alt_u8 szCommand[6], int nCmdLen){
 2042de0:	defffa04 	addi	sp,sp,-24
 2042de4:	df000515 	stw	fp,20(sp)
 2042de8:	df000504 	addi	fp,sp,20
 2042dec:	e13ffe15 	stw	r4,-8(fp)
 2042df0:	e17fff15 	stw	r5,-4(fp)

    int i, k;
    alt_u8 Mask, Data;
    
    SD_CMD_OUT;
 2042df4:	00c02504 	movi	r3,148
 2042df8:	00800044 	movi	r2,1
 2042dfc:	18800035 	stwio	r2,0(r3)
    for(i=0;i<nCmdLen;i++){
 2042e00:	e03ffd15 	stw	zero,-12(fp)
 2042e04:	00002706 	br	2042ea4 <SDHAL_SendCmd+0xc4>
        Mask = 0x80;
 2042e08:	00bfe004 	movi	r2,-128
 2042e0c:	e0bffb45 	stb	r2,-19(fp)
        Data = szCommand[i];
 2042e10:	e0bffd17 	ldw	r2,-12(fp)
 2042e14:	1007883a 	mov	r3,r2
 2042e18:	e0bffe17 	ldw	r2,-8(fp)
 2042e1c:	1885883a 	add	r2,r3,r2
 2042e20:	10800003 	ldbu	r2,0(r2)
 2042e24:	e0bffb05 	stb	r2,-20(fp)
        for(k=0;k<8;k++){
 2042e28:	e03ffc15 	stw	zero,-16(fp)
 2042e2c:	00001706 	br	2042e8c <SDHAL_SendCmd+0xac>
            SD_CLK_LOW;
 2042e30:	00802004 	movi	r2,128
 2042e34:	10000035 	stwio	zero,0(r2)
            if (Data & Mask)
 2042e38:	e0fffb03 	ldbu	r3,-20(fp)
 2042e3c:	e0bffb43 	ldbu	r2,-19(fp)
 2042e40:	1884703a 	and	r2,r3,r2
 2042e44:	10803fcc 	andi	r2,r2,255
 2042e48:	1005003a 	cmpeq	r2,r2,zero
 2042e4c:	1000041e 	bne	r2,zero,2042e60 <SDHAL_SendCmd+0x80>
                SD_CMD_HIGH;
 2042e50:	00c02404 	movi	r3,144
 2042e54:	00800044 	movi	r2,1
 2042e58:	18800035 	stwio	r2,0(r3)
 2042e5c:	00000206 	br	2042e68 <SDHAL_SendCmd+0x88>
            else
                SD_CMD_LOW;
 2042e60:	00802404 	movi	r2,144
 2042e64:	10000035 	stwio	zero,0(r2)
            SD_CLK_HIGH;    
 2042e68:	00c02004 	movi	r3,128
 2042e6c:	00800044 	movi	r2,1
 2042e70:	18800035 	stwio	r2,0(r3)
            //    
            Mask >>= 1;
 2042e74:	e0bffb43 	ldbu	r2,-19(fp)
 2042e78:	1004d07a 	srli	r2,r2,1
 2042e7c:	e0bffb45 	stb	r2,-19(fp)
    
    SD_CMD_OUT;
    for(i=0;i<nCmdLen;i++){
        Mask = 0x80;
        Data = szCommand[i];
        for(k=0;k<8;k++){
 2042e80:	e0bffc17 	ldw	r2,-16(fp)
 2042e84:	10800044 	addi	r2,r2,1
 2042e88:	e0bffc15 	stw	r2,-16(fp)
 2042e8c:	e0bffc17 	ldw	r2,-16(fp)
 2042e90:	10800210 	cmplti	r2,r2,8
 2042e94:	103fe61e 	bne	r2,zero,2042e30 <SDHAL_SendCmd+0x50>

    int i, k;
    alt_u8 Mask, Data;
    
    SD_CMD_OUT;
    for(i=0;i<nCmdLen;i++){
 2042e98:	e0bffd17 	ldw	r2,-12(fp)
 2042e9c:	10800044 	addi	r2,r2,1
 2042ea0:	e0bffd15 	stw	r2,-12(fp)
 2042ea4:	e0fffd17 	ldw	r3,-12(fp)
 2042ea8:	e0bfff17 	ldw	r2,-4(fp)
 2042eac:	18bfd616 	blt	r3,r2,2042e08 <SDHAL_SendCmd+0x28>
            //    
            Mask >>= 1;
           // usleep(1);
        }
    }
}
 2042eb0:	e037883a 	mov	sp,fp
 2042eb4:	df000017 	ldw	fp,0(sp)
 2042eb8:	dec00104 	addi	sp,sp,4
 2042ebc:	f800283a 	ret

02042ec0 <SDHAL_GetResponse>:




bool SDHAL_GetResponse(alt_u8 szResponse[], int nLen){
 2042ec0:	defff104 	addi	sp,sp,-60
 2042ec4:	dfc00e15 	stw	ra,56(sp)
 2042ec8:	df000d15 	stw	fp,52(sp)
 2042ecc:	df000d04 	addi	fp,sp,52
 2042ed0:	e13ffa15 	stw	r4,-24(fp)
 2042ed4:	e17ffb15 	stw	r5,-20(fp)
    bool bDone, bTimeout;
    const int nMaxCnt = 20; // !!!! Note. the value should be large than 8
 2042ed8:	00800504 	movi	r2,20
 2042edc:	e0bff715 	stw	r2,-36(fp)
    int nCnt, nBitCnt, nIndex;
    alt_u8 Value;
    

    SD_CMD_IN;
 2042ee0:	00802504 	movi	r2,148
 2042ee4:	10000035 	stwio	zero,0(r2)
    
    //===== check start bit == 0
    nCnt = 0;
 2042ee8:	e03ff615 	stw	zero,-40(fp)
    bDone = FALSE;
 2042eec:	e03ff915 	stw	zero,-28(fp)
    bTimeout = FALSE;
 2042ef0:	e03ff815 	stw	zero,-32(fp)
    while(!bDone && !bTimeout){
 2042ef4:	00001806 	br	2042f58 <SDHAL_GetResponse+0x98>
        SD_CLK_LOW;
 2042ef8:	00802004 	movi	r2,128
 2042efc:	10000035 	stwio	zero,0(r2)
        SD_CLK_HIGH;
 2042f00:	00c02004 	movi	r3,128
 2042f04:	00800044 	movi	r2,1
 2042f08:	18800035 	stwio	r2,0(r3)
        if(!(SD_TEST_CMD))
 2042f0c:	00802404 	movi	r2,144
 2042f10:	10800037 	ldwio	r2,0(r2)
 2042f14:	1004c03a 	cmpne	r2,r2,zero
 2042f18:	1000031e 	bne	r2,zero,2042f28 <SDHAL_GetResponse+0x68>
            bDone = TRUE;
 2042f1c:	00800044 	movi	r2,1
 2042f20:	e0bff915 	stw	r2,-28(fp)
 2042f24:	00000c06 	br	2042f58 <SDHAL_GetResponse+0x98>
        else if(nCnt++ > nMaxCnt)
 2042f28:	e0fff617 	ldw	r3,-40(fp)
 2042f2c:	e0bff717 	ldw	r2,-36(fp)
 2042f30:	10c4803a 	cmplt	r2,r2,r3
 2042f34:	1007883a 	mov	r3,r2
 2042f38:	e0bff617 	ldw	r2,-40(fp)
 2042f3c:	10800044 	addi	r2,r2,1
 2042f40:	e0bff615 	stw	r2,-40(fp)
 2042f44:	18803fcc 	andi	r2,r3,255
 2042f48:	1005003a 	cmpeq	r2,r2,zero
 2042f4c:	1000021e 	bne	r2,zero,2042f58 <SDHAL_GetResponse+0x98>
            bTimeout = TRUE;
 2042f50:	00800044 	movi	r2,1
 2042f54:	e0bff815 	stw	r2,-32(fp)
    
    //===== check start bit == 0
    nCnt = 0;
    bDone = FALSE;
    bTimeout = FALSE;
    while(!bDone && !bTimeout){
 2042f58:	e0bff917 	ldw	r2,-28(fp)
 2042f5c:	1004c03a 	cmpne	r2,r2,zero
 2042f60:	1000031e 	bne	r2,zero,2042f70 <SDHAL_GetResponse+0xb0>
 2042f64:	e0bff817 	ldw	r2,-32(fp)
 2042f68:	1005003a 	cmpeq	r2,r2,zero
 2042f6c:	103fe21e 	bne	r2,zero,2042ef8 <SDHAL_GetResponse+0x38>
            bDone = TRUE;
        else if(nCnt++ > nMaxCnt)
            bTimeout = TRUE;
    }
    
    if (!bDone || bTimeout)
 2042f70:	e0bff917 	ldw	r2,-28(fp)
 2042f74:	1005003a 	cmpeq	r2,r2,zero
 2042f78:	1000031e 	bne	r2,zero,2042f88 <SDHAL_GetResponse+0xc8>
 2042f7c:	e0bff817 	ldw	r2,-32(fp)
 2042f80:	1005003a 	cmpeq	r2,r2,zero
 2042f84:	1000021e 	bne	r2,zero,2042f90 <SDHAL_GetResponse+0xd0>
        return FALSE;
 2042f88:	e03ffc15 	stw	zero,-16(fp)
 2042f8c:	00006406 	br	2043120 <SDHAL_GetResponse+0x260>
  
    //===== check transmitter bit == 0

    SD_CLK_LOW;
 2042f90:	00802004 	movi	r2,128
 2042f94:	10000035 	stwio	zero,0(r2)
    SD_CLK_HIGH;
 2042f98:	00c02004 	movi	r3,128
 2042f9c:	00800044 	movi	r2,1
 2042fa0:	18800035 	stwio	r2,0(r3)
    if (SD_TEST_CMD)
 2042fa4:	00802404 	movi	r2,144
 2042fa8:	10800037 	ldwio	r2,0(r2)
 2042fac:	1005003a 	cmpeq	r2,r2,zero
 2042fb0:	1000021e 	bne	r2,zero,2042fbc <SDHAL_GetResponse+0xfc>
        return FALSE;   // 0 is expected
 2042fb4:	e03ffc15 	stw	zero,-16(fp)
 2042fb8:	00005906 	br	2043120 <SDHAL_GetResponse+0x260>

    
    //===== read content + CRC + end-bits ======
    nIndex = 2;
 2042fbc:	00800084 	movi	r2,2
 2042fc0:	e0bff415 	stw	r2,-48(fp)
    nBitCnt = nLen*8;
 2042fc4:	e0bffb17 	ldw	r2,-20(fp)
 2042fc8:	100490fa 	slli	r2,r2,3
 2042fcc:	e0bff515 	stw	r2,-44(fp)
    bDone = FALSE;
 2042fd0:	e03ff915 	stw	zero,-28(fp)
    Value = 0;
 2042fd4:	e03ff305 	stb	zero,-52(fp)
    while(nIndex < nBitCnt){
 2042fd8:	00004a06 	br	2043104 <SDHAL_GetResponse+0x244>
        SD_CLK_LOW;
 2042fdc:	00802004 	movi	r2,128
 2042fe0:	10000035 	stwio	zero,0(r2)
        SD_CLK_HIGH;
 2042fe4:	00c02004 	movi	r3,128
 2042fe8:	00800044 	movi	r2,1
 2042fec:	18800035 	stwio	r2,0(r3)
        if (SD_TEST_CMD){
 2042ff0:	00802404 	movi	r2,144
 2042ff4:	10800037 	ldwio	r2,0(r2)
 2042ff8:	1005003a 	cmpeq	r2,r2,zero
 2042ffc:	1000191e 	bne	r2,zero,2043064 <SDHAL_GetResponse+0x1a4>
            Value |= 0x80 >> (nIndex % 8);
 2043000:	e0bff417 	ldw	r2,-48(fp)
 2043004:	00e00034 	movhi	r3,32768
 2043008:	18c001c4 	addi	r3,r3,7
 204300c:	10c4703a 	and	r2,r2,r3
 2043010:	e0bffd15 	stw	r2,-12(fp)
 2043014:	e0fffd17 	ldw	r3,-12(fp)
 2043018:	1804403a 	cmpge	r2,r3,zero
 204301c:	10000a1e 	bne	r2,zero,2043048 <SDHAL_GetResponse+0x188>
 2043020:	e0bffd17 	ldw	r2,-12(fp)
 2043024:	10bfffc4 	addi	r2,r2,-1
 2043028:	e0bffd15 	stw	r2,-12(fp)
 204302c:	00bffe04 	movi	r2,-8
 2043030:	e0fffd17 	ldw	r3,-12(fp)
 2043034:	1886b03a 	or	r3,r3,r2
 2043038:	e0fffd15 	stw	r3,-12(fp)
 204303c:	e0bffd17 	ldw	r2,-12(fp)
 2043040:	10800044 	addi	r2,r2,1
 2043044:	e0bffd15 	stw	r2,-12(fp)
 2043048:	e0fffd17 	ldw	r3,-12(fp)
 204304c:	00802004 	movi	r2,128
 2043050:	10c5d83a 	sra	r2,r2,r3
 2043054:	1007883a 	mov	r3,r2
 2043058:	e0bff303 	ldbu	r2,-52(fp)
 204305c:	1884b03a 	or	r2,r3,r2
 2043060:	e0bff305 	stb	r2,-52(fp)
        }
        if (nIndex%8 == 7){
 2043064:	e0bff417 	ldw	r2,-48(fp)
 2043068:	00e00034 	movhi	r3,32768
 204306c:	18c001c4 	addi	r3,r3,7
 2043070:	10c4703a 	and	r2,r2,r3
 2043074:	e0bffe15 	stw	r2,-8(fp)
 2043078:	e0fffe17 	ldw	r3,-8(fp)
 204307c:	1804403a 	cmpge	r2,r3,zero
 2043080:	10000a1e 	bne	r2,zero,20430ac <SDHAL_GetResponse+0x1ec>
 2043084:	e0bffe17 	ldw	r2,-8(fp)
 2043088:	10bfffc4 	addi	r2,r2,-1
 204308c:	e0bffe15 	stw	r2,-8(fp)
 2043090:	00bffe04 	movi	r2,-8
 2043094:	e0fffe17 	ldw	r3,-8(fp)
 2043098:	1886b03a 	or	r3,r3,r2
 204309c:	e0fffe15 	stw	r3,-8(fp)
 20430a0:	e0bffe17 	ldw	r2,-8(fp)
 20430a4:	10800044 	addi	r2,r2,1
 20430a8:	e0bffe15 	stw	r2,-8(fp)
 20430ac:	e0bffe17 	ldw	r2,-8(fp)
 20430b0:	108001d8 	cmpnei	r2,r2,7
 20430b4:	1000101e 	bne	r2,zero,20430f8 <SDHAL_GetResponse+0x238>
            szResponse[nIndex/8] = Value;
 20430b8:	e0bff417 	ldw	r2,-48(fp)
 20430bc:	e0bfff15 	stw	r2,-4(fp)
 20430c0:	e0ffff17 	ldw	r3,-4(fp)
 20430c4:	1804403a 	cmpge	r2,r3,zero
 20430c8:	1000031e 	bne	r2,zero,20430d8 <SDHAL_GetResponse+0x218>
 20430cc:	e0bfff17 	ldw	r2,-4(fp)
 20430d0:	108001c4 	addi	r2,r2,7
 20430d4:	e0bfff15 	stw	r2,-4(fp)
 20430d8:	e0ffff17 	ldw	r3,-4(fp)
 20430dc:	1805d0fa 	srai	r2,r3,3
 20430e0:	1007883a 	mov	r3,r2
 20430e4:	e0bffa17 	ldw	r2,-24(fp)
 20430e8:	1887883a 	add	r3,r3,r2
 20430ec:	e0bff303 	ldbu	r2,-52(fp)
 20430f0:	18800005 	stb	r2,0(r3)
            Value = 0;
 20430f4:	e03ff305 	stb	zero,-52(fp)
        }
        nIndex++;
 20430f8:	e0bff417 	ldw	r2,-48(fp)
 20430fc:	10800044 	addi	r2,r2,1
 2043100:	e0bff415 	stw	r2,-48(fp)
    //===== read content + CRC + end-bits ======
    nIndex = 2;
    nBitCnt = nLen*8;
    bDone = FALSE;
    Value = 0;
    while(nIndex < nBitCnt){
 2043104:	e0fff417 	ldw	r3,-48(fp)
 2043108:	e0bff517 	ldw	r2,-44(fp)
 204310c:	18bfb316 	blt	r3,r2,2042fdc <SDHAL_GetResponse+0x11c>
        }
        nIndex++;
    } 
    
    // A command with response. 8 clocks after the card response end bit.
    SDHAL_DummyClock(8);
 2043110:	01000204 	movi	r4,8
 2043114:	20437f80 	call	20437f8 <SDHAL_DummyClock>
    
    return TRUE;
 2043118:	00800044 	movi	r2,1
 204311c:	e0bffc15 	stw	r2,-16(fp)
 2043120:	e0bffc17 	ldw	r2,-16(fp)
}
 2043124:	e037883a 	mov	sp,fp
 2043128:	dfc00117 	ldw	ra,4(sp)
 204312c:	df000017 	ldw	fp,0(sp)
 2043130:	dec00204 	addi	sp,sp,8
 2043134:	f800283a 	ret

02043138 <SDHAL_ReadData>:


bool SDHAL_ReadData(alt_u8 szBuf[], int nBufLen){
 2043138:	deff6904 	addi	sp,sp,-604
 204313c:	dfc09615 	stw	ra,600(sp)
 2043140:	df009515 	stw	fp,596(sp)
 2043144:	df009504 	addi	fp,sp,596
 2043148:	e13ff815 	stw	r4,-32(fp)
 204314c:	e17ff915 	stw	r5,-28(fp)
    bool bSuccess = TRUE;
 2043150:	00800044 	movi	r2,1
 2043154:	e0bf7715 	stw	r2,-548(fp)
    int nTry = 0;
 2043158:	e03f7615 	stw	zero,-552(fp)
    const int nMaxTry = 5000; 
 204315c:	0084e204 	movi	r2,5000
 2043160:	e0bf7515 	stw	r2,-556(fp)
    int i, j,k,n=0;   
 2043164:	e03f7115 	stw	zero,-572(fp)
    
    alt_u8 Data8_0,Data8_1,Data8_2,Data8_3;
    
#endif    
    
    SD_DAT_IN;
 2043168:	00802904 	movi	r2,164
 204316c:	10000035 	stwio	zero,0(r2)
    
    // wait start bits (zero)
    while(1){
      SD_CLK_LOW;
 2043170:	00802004 	movi	r2,128
 2043174:	10000035 	stwio	zero,0(r2)
      SD_CLK_HIGH;
 2043178:	00c02004 	movi	r3,128
 204317c:	00800044 	movi	r2,1
 2043180:	18800035 	stwio	r2,0(r3)
#ifdef SD_4BIT_MODE
      if((SD_TEST_DAT & 0x0F) == 0x00) // check start bits (zero is expected)
 2043184:	00802804 	movi	r2,160
 2043188:	10800037 	ldwio	r2,0(r2)
 204318c:	108003cc 	andi	r2,r2,15
 2043190:	1005003a 	cmpeq	r2,r2,zero
 2043194:	10000c1e 	bne	r2,zero,20431c8 <SDHAL_ReadData+0x90>
#else      
      if((SD_TEST_DAT & 0x01) == 0x00) // check start bits (zero is expected)
#endif      
        break;
      if (nTry++ > nMaxTry)
 2043198:	e0ff7617 	ldw	r3,-552(fp)
 204319c:	e0bf7517 	ldw	r2,-556(fp)
 20431a0:	10c4803a 	cmplt	r2,r2,r3
 20431a4:	1007883a 	mov	r3,r2
 20431a8:	e0bf7617 	ldw	r2,-552(fp)
 20431ac:	10800044 	addi	r2,r2,1
 20431b0:	e0bf7615 	stw	r2,-552(fp)
 20431b4:	18803fcc 	andi	r2,r3,255
 20431b8:	1005003a 	cmpeq	r2,r2,zero
 20431bc:	103fec1e 	bne	r2,zero,2043170 <SDHAL_ReadData+0x38>
        return FALSE;        
 20431c0:	e03ffa15 	stw	zero,-24(fp)
 20431c4:	00011d06 	br	204363c <SDHAL_ReadData+0x504>
    }     
    
    // read data (512byte = 1 block)
    
#ifdef SD_4BIT_MODE
     for(i=0;i<nBufLen/4;i++)
 20431c8:	e03f7415 	stw	zero,-560(fp)
 20431cc:	00006e06 	br	2043388 <SDHAL_ReadData+0x250>
     {
        k = 0;
 20431d0:	e03f7215 	stw	zero,-568(fp)
        Data8   = 0;
 20431d4:	e03f7005 	stb	zero,-576(fp)
        Data8_0 = 0;
 20431d8:	e03f6bc5 	stb	zero,-593(fp)
        Data8_1 = 0;
 20431dc:	e03f6b85 	stb	zero,-594(fp)
        Data8_2 = 0;
 20431e0:	e03f6b45 	stb	zero,-595(fp)
        Data8_3 = 0;
 20431e4:	e03f6b05 	stb	zero,-596(fp)
        
        for(j=0;j<8;j++)
 20431e8:	e03f7315 	stw	zero,-564(fp)
 20431ec:	00004c06 	br	2043320 <SDHAL_ReadData+0x1e8>
        {
          SD_CLK_LOW;
 20431f0:	00802004 	movi	r2,128
 20431f4:	10000035 	stwio	zero,0(r2)
          SD_CLK_HIGH;
 20431f8:	00c02004 	movi	r3,128
 20431fc:	00800044 	movi	r2,1
 2043200:	18800035 	stwio	r2,0(r3)
          Data8   <<= 4;
 2043204:	e0bf7003 	ldbu	r2,-576(fp)
 2043208:	1004913a 	slli	r2,r2,4
 204320c:	e0bf7005 	stb	r2,-576(fp)
          Data8_0 <<= 1;
 2043210:	e0bf6bc3 	ldbu	r2,-593(fp)
 2043214:	1085883a 	add	r2,r2,r2
 2043218:	e0bf6bc5 	stb	r2,-593(fp)
          Data8_1 <<= 1;
 204321c:	e0bf6b83 	ldbu	r2,-594(fp)
 2043220:	1085883a 	add	r2,r2,r2
 2043224:	e0bf6b85 	stb	r2,-594(fp)
          Data8_2 <<= 1;
 2043228:	e0bf6b43 	ldbu	r2,-595(fp)
 204322c:	1085883a 	add	r2,r2,r2
 2043230:	e0bf6b45 	stb	r2,-595(fp)
          Data8_3 <<= 1; 
 2043234:	e0bf6b03 	ldbu	r2,-596(fp)
 2043238:	1085883a 	add	r2,r2,r2
 204323c:	e0bf6b05 	stb	r2,-596(fp)
          
          DataTemp = SD_TEST_DAT;
 2043240:	00802804 	movi	r2,160
 2043244:	10800037 	ldwio	r2,0(r2)
 2043248:	e0bf7045 	stb	r2,-575(fp)
          Data8   |= (DataTemp & 0x0F);
 204324c:	e0bf7043 	ldbu	r2,-575(fp)
 2043250:	108003cc 	andi	r2,r2,15
 2043254:	1007883a 	mov	r3,r2
 2043258:	e0bf7003 	ldbu	r2,-576(fp)
 204325c:	1884b03a 	or	r2,r3,r2
 2043260:	e0bf7005 	stb	r2,-576(fp)
          Data8_0 |= (DataTemp & 0x01);
 2043264:	e0bf7043 	ldbu	r2,-575(fp)
 2043268:	1080004c 	andi	r2,r2,1
 204326c:	1007883a 	mov	r3,r2
 2043270:	e0bf6bc3 	ldbu	r2,-593(fp)
 2043274:	1884b03a 	or	r2,r3,r2
 2043278:	e0bf6bc5 	stb	r2,-593(fp)
          Data8_1 |= ((DataTemp >> 1) & 0x01);
 204327c:	e0bf7043 	ldbu	r2,-575(fp)
 2043280:	1004d07a 	srli	r2,r2,1
 2043284:	1080004c 	andi	r2,r2,1
 2043288:	1007883a 	mov	r3,r2
 204328c:	e0bf6b83 	ldbu	r2,-594(fp)
 2043290:	1884b03a 	or	r2,r3,r2
 2043294:	e0bf6b85 	stb	r2,-594(fp)
          Data8_2 |= ((DataTemp >> 2) & 0x01);
 2043298:	e0bf7043 	ldbu	r2,-575(fp)
 204329c:	1004d0ba 	srli	r2,r2,2
 20432a0:	1080004c 	andi	r2,r2,1
 20432a4:	1007883a 	mov	r3,r2
 20432a8:	e0bf6b43 	ldbu	r2,-595(fp)
 20432ac:	1884b03a 	or	r2,r3,r2
 20432b0:	e0bf6b45 	stb	r2,-595(fp)
          Data8_3 |= ((DataTemp >> 3) & 0x01);
 20432b4:	e0bf7043 	ldbu	r2,-575(fp)
 20432b8:	1004d0fa 	srli	r2,r2,3
 20432bc:	1080004c 	andi	r2,r2,1
 20432c0:	1007883a 	mov	r3,r2
 20432c4:	e0bf6b03 	ldbu	r2,-596(fp)
 20432c8:	1884b03a 	or	r2,r3,r2
 20432cc:	e0bf6b05 	stb	r2,-596(fp)
          
          k++;
 20432d0:	e0bf7217 	ldw	r2,-568(fp)
 20432d4:	10800044 	addi	r2,r2,1
 20432d8:	e0bf7215 	stw	r2,-568(fp)
          if(k == 2)
 20432dc:	e0bf7217 	ldw	r2,-568(fp)
 20432e0:	10800098 	cmpnei	r2,r2,2
 20432e4:	10000b1e 	bne	r2,zero,2043314 <SDHAL_ReadData+0x1dc>
          {
            szBuf[n++] = Data8;
 20432e8:	e0bf7117 	ldw	r2,-572(fp)
 20432ec:	1007883a 	mov	r3,r2
 20432f0:	e0bff817 	ldw	r2,-32(fp)
 20432f4:	1887883a 	add	r3,r3,r2
 20432f8:	e0bf7003 	ldbu	r2,-576(fp)
 20432fc:	18800005 	stb	r2,0(r3)
 2043300:	e0bf7117 	ldw	r2,-572(fp)
 2043304:	10800044 	addi	r2,r2,1
 2043308:	e0bf7115 	stw	r2,-572(fp)
            Data8 = 0;
 204330c:	e03f7005 	stb	zero,-576(fp)
            k = 0;
 2043310:	e03f7215 	stw	zero,-568(fp)
        Data8_0 = 0;
        Data8_1 = 0;
        Data8_2 = 0;
        Data8_3 = 0;
        
        for(j=0;j<8;j++)
 2043314:	e0bf7317 	ldw	r2,-564(fp)
 2043318:	10800044 	addi	r2,r2,1
 204331c:	e0bf7315 	stw	r2,-564(fp)
 2043320:	e0bf7317 	ldw	r2,-564(fp)
 2043324:	10800210 	cmplti	r2,r2,8
 2043328:	103fb11e 	bne	r2,zero,20431f0 <SDHAL_ReadData+0xb8>
            szBuf[n++] = Data8;
            Data8 = 0;
            k = 0;
          }
        } 
        szBuf_0[i] = Data8_0;
 204332c:	e0ff7417 	ldw	r3,-560(fp)
 2043330:	e0bf7804 	addi	r2,fp,-544
 2043334:	10c7883a 	add	r3,r2,r3
 2043338:	e0bf6bc3 	ldbu	r2,-593(fp)
 204333c:	18800005 	stb	r2,0(r3)
        szBuf_1[i] = Data8_1;
 2043340:	e0ff7417 	ldw	r3,-560(fp)
 2043344:	e0bf9804 	addi	r2,fp,-416
 2043348:	10c7883a 	add	r3,r2,r3
 204334c:	e0bf6b83 	ldbu	r2,-594(fp)
 2043350:	18800005 	stb	r2,0(r3)
        szBuf_2[i] = Data8_2;
 2043354:	e0ff7417 	ldw	r3,-560(fp)
 2043358:	e0bfb804 	addi	r2,fp,-288
 204335c:	10c7883a 	add	r3,r2,r3
 2043360:	e0bf6b43 	ldbu	r2,-595(fp)
 2043364:	18800005 	stb	r2,0(r3)
        szBuf_3[i] = Data8_3;
 2043368:	e0ff7417 	ldw	r3,-560(fp)
 204336c:	e0bfd804 	addi	r2,fp,-160
 2043370:	10c7883a 	add	r3,r2,r3
 2043374:	e0bf6b03 	ldbu	r2,-596(fp)
 2043378:	18800005 	stb	r2,0(r3)
    }     
    
    // read data (512byte = 1 block)
    
#ifdef SD_4BIT_MODE
     for(i=0;i<nBufLen/4;i++)
 204337c:	e0bf7417 	ldw	r2,-560(fp)
 2043380:	10800044 	addi	r2,r2,1
 2043384:	e0bf7415 	stw	r2,-560(fp)
 2043388:	e0bff917 	ldw	r2,-28(fp)
 204338c:	e0bffb15 	stw	r2,-20(fp)
 2043390:	e0fffb17 	ldw	r3,-20(fp)
 2043394:	1804403a 	cmpge	r2,r3,zero
 2043398:	1000031e 	bne	r2,zero,20433a8 <SDHAL_ReadData+0x270>
 204339c:	e0bffb17 	ldw	r2,-20(fp)
 20433a0:	108000c4 	addi	r2,r2,3
 20433a4:	e0bffb15 	stw	r2,-20(fp)
 20433a8:	e0fffb17 	ldw	r3,-20(fp)
 20433ac:	1805d0ba 	srai	r2,r3,2
 20433b0:	1007883a 	mov	r3,r2
 20433b4:	e0bf7417 	ldw	r2,-560(fp)
 20433b8:	10ff8516 	blt	r2,r3,20431d0 <SDHAL_ReadData+0x98>
#endif

    //===== CRC16 and end-bit check (each channel is seperated)
#ifdef SD_4BIT_MODE 
    // Not implement yet
    DataCrc16_0 = 0;
 20433bc:	e03f6f8d 	sth	zero,-578(fp)
    DataCrc16_1 = 0;
 20433c0:	e03f6f0d 	sth	zero,-580(fp)
    DataCrc16_2 = 0;
 20433c4:	e03f6e8d 	sth	zero,-582(fp)
    DataCrc16_3 = 0;
 20433c8:	e03f6e0d 	sth	zero,-584(fp)
    for(i=0;i<16;i++)
 20433cc:	e03f7415 	stw	zero,-560(fp)
 20433d0:	00003406 	br	20434a4 <SDHAL_ReadData+0x36c>
    {
        SD_CLK_LOW;
 20433d4:	00802004 	movi	r2,128
 20433d8:	10000035 	stwio	zero,0(r2)
        SD_CLK_HIGH;
 20433dc:	00c02004 	movi	r3,128
 20433e0:	00800044 	movi	r2,1
 20433e4:	18800035 	stwio	r2,0(r3)
        
        DataCrc16_0 <<= 1;
 20433e8:	e0bf6f8b 	ldhu	r2,-578(fp)
 20433ec:	1085883a 	add	r2,r2,r2
 20433f0:	e0bf6f8d 	sth	r2,-578(fp)
        DataCrc16_1 <<= 1;
 20433f4:	e0bf6f0b 	ldhu	r2,-580(fp)
 20433f8:	1085883a 	add	r2,r2,r2
 20433fc:	e0bf6f0d 	sth	r2,-580(fp)
        DataCrc16_2 <<= 1;
 2043400:	e0bf6e8b 	ldhu	r2,-582(fp)
 2043404:	1085883a 	add	r2,r2,r2
 2043408:	e0bf6e8d 	sth	r2,-582(fp)
        DataCrc16_3 <<= 1;
 204340c:	e0bf6e0b 	ldhu	r2,-584(fp)
 2043410:	1085883a 	add	r2,r2,r2
 2043414:	e0bf6e0d 	sth	r2,-584(fp)
        
        DataTemp = SD_TEST_DAT;
 2043418:	00802804 	movi	r2,160
 204341c:	10800037 	ldwio	r2,0(r2)
 2043420:	e0bf7045 	stb	r2,-575(fp)
        
        if (DataTemp & 0x01)
 2043424:	e0bf7043 	ldbu	r2,-575(fp)
 2043428:	1080004c 	andi	r2,r2,1
 204342c:	10803fcc 	andi	r2,r2,255
 2043430:	1005003a 	cmpeq	r2,r2,zero
 2043434:	1000031e 	bne	r2,zero,2043444 <SDHAL_ReadData+0x30c>
            DataCrc16_0 |= 0x01;
 2043438:	e0bf6f8b 	ldhu	r2,-578(fp)
 204343c:	10800054 	ori	r2,r2,1
 2043440:	e0bf6f8d 	sth	r2,-578(fp)
         if(DataTemp & 0x02)
 2043444:	e0bf7043 	ldbu	r2,-575(fp)
 2043448:	1080008c 	andi	r2,r2,2
 204344c:	1005003a 	cmpeq	r2,r2,zero
 2043450:	1000031e 	bne	r2,zero,2043460 <SDHAL_ReadData+0x328>
            DataCrc16_1 |= 0x01;
 2043454:	e0bf6f0b 	ldhu	r2,-580(fp)
 2043458:	10800054 	ori	r2,r2,1
 204345c:	e0bf6f0d 	sth	r2,-580(fp)
         if(DataTemp & 0x04)
 2043460:	e0bf7043 	ldbu	r2,-575(fp)
 2043464:	1080010c 	andi	r2,r2,4
 2043468:	1005003a 	cmpeq	r2,r2,zero
 204346c:	1000031e 	bne	r2,zero,204347c <SDHAL_ReadData+0x344>
            DataCrc16_2 |= 0x01;
 2043470:	e0bf6e8b 	ldhu	r2,-582(fp)
 2043474:	10800054 	ori	r2,r2,1
 2043478:	e0bf6e8d 	sth	r2,-582(fp)
         if(DataTemp & 0x08)
 204347c:	e0bf7043 	ldbu	r2,-575(fp)
 2043480:	1080020c 	andi	r2,r2,8
 2043484:	1005003a 	cmpeq	r2,r2,zero
 2043488:	1000031e 	bne	r2,zero,2043498 <SDHAL_ReadData+0x360>
            DataCrc16_3 |= 0x01;
 204348c:	e0bf6e0b 	ldhu	r2,-584(fp)
 2043490:	10800054 	ori	r2,r2,1
 2043494:	e0bf6e0d 	sth	r2,-584(fp)
    // Not implement yet
    DataCrc16_0 = 0;
    DataCrc16_1 = 0;
    DataCrc16_2 = 0;
    DataCrc16_3 = 0;
    for(i=0;i<16;i++)
 2043498:	e0bf7417 	ldw	r2,-560(fp)
 204349c:	10800044 	addi	r2,r2,1
 20434a0:	e0bf7415 	stw	r2,-560(fp)
 20434a4:	e0bf7417 	ldw	r2,-560(fp)
 20434a8:	10800410 	cmplti	r2,r2,16
 20434ac:	103fc91e 	bne	r2,zero,20433d4 <SDHAL_ReadData+0x29c>
         if(DataTemp & 0x08)
            DataCrc16_3 |= 0x01;
    }
    
    // check end bit (value 'one' is expected
    SD_CLK_LOW;
 20434b0:	00802004 	movi	r2,128
 20434b4:	10000035 	stwio	zero,0(r2)
    SD_CLK_HIGH;
 20434b8:	00c02004 	movi	r3,128
 20434bc:	00800044 	movi	r2,1
 20434c0:	18800035 	stwio	r2,0(r3)
    if ((SD_TEST_DAT & 0x0F) != 0x0F)
 20434c4:	00802804 	movi	r2,160
 20434c8:	10800037 	ldwio	r2,0(r2)
 20434cc:	108003cc 	andi	r2,r2,15
 20434d0:	108003e0 	cmpeqi	r2,r2,15
 20434d4:	1000011e 	bne	r2,zero,20434dc <SDHAL_ReadData+0x3a4>
        bSuccess = FALSE;
 20434d8:	e03f7715 	stw	zero,-548(fp)
     
    // to provide8 (eight) clock cycles for the card to complete the operation before shutting down the clock 
    SDHAL_DummyClock(8);     
 20434dc:	01000204 	movi	r4,8
 20434e0:	20437f80 	call	20437f8 <SDHAL_DummyClock>
     
    // check crc    
    if (bSuccess){
 20434e4:	e0bf7717 	ldw	r2,-548(fp)
 20434e8:	1005003a 	cmpeq	r2,r2,zero
 20434ec:	1000121e 	bne	r2,zero,2043538 <SDHAL_ReadData+0x400>
        MyCrc16_0 = crc16(szBuf_0, nBufLen/4);
 20434f0:	e0bff917 	ldw	r2,-28(fp)
 20434f4:	e0bffc15 	stw	r2,-16(fp)
 20434f8:	e0fffc17 	ldw	r3,-16(fp)
 20434fc:	1804403a 	cmpge	r2,r3,zero
 2043500:	1000031e 	bne	r2,zero,2043510 <SDHAL_ReadData+0x3d8>
 2043504:	e0bffc17 	ldw	r2,-16(fp)
 2043508:	108000c4 	addi	r2,r2,3
 204350c:	e0bffc15 	stw	r2,-16(fp)
 2043510:	e0fffc17 	ldw	r3,-16(fp)
 2043514:	1805d0ba 	srai	r2,r3,2
 2043518:	100b883a 	mov	r5,r2
 204351c:	e13f7804 	addi	r4,fp,-544
 2043520:	2042bfc0 	call	2042bfc <crc16>
 2043524:	e0bf6d8d 	sth	r2,-586(fp)
        if (MyCrc16_0 != DataCrc16_0)
 2043528:	e0ff6d8b 	ldhu	r3,-586(fp)
 204352c:	e0bf6f8b 	ldhu	r2,-578(fp)
 2043530:	18800126 	beq	r3,r2,2043538 <SDHAL_ReadData+0x400>
            bSuccess = FALSE;
 2043534:	e03f7715 	stw	zero,-548(fp)
    }    
    if (bSuccess){
 2043538:	e0bf7717 	ldw	r2,-548(fp)
 204353c:	1005003a 	cmpeq	r2,r2,zero
 2043540:	1000121e 	bne	r2,zero,204358c <SDHAL_ReadData+0x454>
        MyCrc16_1 = crc16(szBuf_1, nBufLen/4);
 2043544:	e0bff917 	ldw	r2,-28(fp)
 2043548:	e0bffd15 	stw	r2,-12(fp)
 204354c:	e0fffd17 	ldw	r3,-12(fp)
 2043550:	1804403a 	cmpge	r2,r3,zero
 2043554:	1000031e 	bne	r2,zero,2043564 <SDHAL_ReadData+0x42c>
 2043558:	e0bffd17 	ldw	r2,-12(fp)
 204355c:	108000c4 	addi	r2,r2,3
 2043560:	e0bffd15 	stw	r2,-12(fp)
 2043564:	e0fffd17 	ldw	r3,-12(fp)
 2043568:	1805d0ba 	srai	r2,r3,2
 204356c:	100b883a 	mov	r5,r2
 2043570:	e13f9804 	addi	r4,fp,-416
 2043574:	2042bfc0 	call	2042bfc <crc16>
 2043578:	e0bf6d0d 	sth	r2,-588(fp)
        if (MyCrc16_1 != DataCrc16_1)
 204357c:	e0ff6d0b 	ldhu	r3,-588(fp)
 2043580:	e0bf6f0b 	ldhu	r2,-580(fp)
 2043584:	18800126 	beq	r3,r2,204358c <SDHAL_ReadData+0x454>
            bSuccess = FALSE;
 2043588:	e03f7715 	stw	zero,-548(fp)
    }   
    if (bSuccess){
 204358c:	e0bf7717 	ldw	r2,-548(fp)
 2043590:	1005003a 	cmpeq	r2,r2,zero
 2043594:	1000121e 	bne	r2,zero,20435e0 <SDHAL_ReadData+0x4a8>
        MyCrc16_2 = crc16(szBuf_2, nBufLen/4);
 2043598:	e0bff917 	ldw	r2,-28(fp)
 204359c:	e0bffe15 	stw	r2,-8(fp)
 20435a0:	e0fffe17 	ldw	r3,-8(fp)
 20435a4:	1804403a 	cmpge	r2,r3,zero
 20435a8:	1000031e 	bne	r2,zero,20435b8 <SDHAL_ReadData+0x480>
 20435ac:	e0bffe17 	ldw	r2,-8(fp)
 20435b0:	108000c4 	addi	r2,r2,3
 20435b4:	e0bffe15 	stw	r2,-8(fp)
 20435b8:	e0fffe17 	ldw	r3,-8(fp)
 20435bc:	1805d0ba 	srai	r2,r3,2
 20435c0:	100b883a 	mov	r5,r2
 20435c4:	e13fb804 	addi	r4,fp,-288
 20435c8:	2042bfc0 	call	2042bfc <crc16>
 20435cc:	e0bf6c8d 	sth	r2,-590(fp)
        if (MyCrc16_2 != DataCrc16_2)
 20435d0:	e0ff6c8b 	ldhu	r3,-590(fp)
 20435d4:	e0bf6e8b 	ldhu	r2,-582(fp)
 20435d8:	18800126 	beq	r3,r2,20435e0 <SDHAL_ReadData+0x4a8>
            bSuccess = FALSE;
 20435dc:	e03f7715 	stw	zero,-548(fp)
    } 
    if (bSuccess){
 20435e0:	e0bf7717 	ldw	r2,-548(fp)
 20435e4:	1005003a 	cmpeq	r2,r2,zero
 20435e8:	1000121e 	bne	r2,zero,2043634 <SDHAL_ReadData+0x4fc>
        MyCrc16_3 = crc16(szBuf_3, nBufLen/4);
 20435ec:	e0bff917 	ldw	r2,-28(fp)
 20435f0:	e0bfff15 	stw	r2,-4(fp)
 20435f4:	e0ffff17 	ldw	r3,-4(fp)
 20435f8:	1804403a 	cmpge	r2,r3,zero
 20435fc:	1000031e 	bne	r2,zero,204360c <SDHAL_ReadData+0x4d4>
 2043600:	e0bfff17 	ldw	r2,-4(fp)
 2043604:	108000c4 	addi	r2,r2,3
 2043608:	e0bfff15 	stw	r2,-4(fp)
 204360c:	e0ffff17 	ldw	r3,-4(fp)
 2043610:	1805d0ba 	srai	r2,r3,2
 2043614:	100b883a 	mov	r5,r2
 2043618:	e13fd804 	addi	r4,fp,-160
 204361c:	2042bfc0 	call	2042bfc <crc16>
 2043620:	e0bf6c0d 	sth	r2,-592(fp)
        if (MyCrc16_3 != DataCrc16_3)
 2043624:	e0ff6c0b 	ldhu	r3,-592(fp)
 2043628:	e0bf6e0b 	ldhu	r2,-584(fp)
 204362c:	18800126 	beq	r3,r2,2043634 <SDHAL_ReadData+0x4fc>
            bSuccess = FALSE;
 2043630:	e03f7715 	stw	zero,-548(fp)
            bSuccess = FALSE;
    }            
    
#endif

    return bSuccess;
 2043634:	e0bf7717 	ldw	r2,-548(fp)
 2043638:	e0bffa15 	stw	r2,-24(fp)
 204363c:	e0bffa17 	ldw	r2,-24(fp)
}
 2043640:	e037883a 	mov	sp,fp
 2043644:	dfc00117 	ldw	ra,4(sp)
 2043648:	df000017 	ldw	fp,0(sp)
 204364c:	dec00204 	addi	sp,sp,8
 2043650:	f800283a 	ret

02043654 <SDHAL_WriteData>:

bool SDHAL_WriteData(alt_u8 szDataWrite[], int nDataLen){
 2043654:	defff704 	addi	sp,sp,-36
 2043658:	dfc00815 	stw	ra,32(sp)
 204365c:	df000715 	stw	fp,28(sp)
 2043660:	df000704 	addi	fp,sp,28
 2043664:	e13ffe15 	stw	r4,-8(fp)
 2043668:	e17fff15 	stw	r5,-4(fp)
    bool bSuccess = TRUE;
 204366c:	00800044 	movi	r2,1
 2043670:	e0bffd15 	stw	r2,-12(fp)
  //  const int nMaxTry = 5000; 
    int i, j;   
    alt_u8 Data8;
    alt_u16 DataCrc16;
    
    DataCrc16 = crc16(szDataWrite, nDataLen);
 2043674:	e13ffe17 	ldw	r4,-8(fp)
 2043678:	e17fff17 	ldw	r5,-4(fp)
 204367c:	2042bfc0 	call	2042bfc <crc16>
 2043680:	e0bffa0d 	sth	r2,-24(fp)
        break;
      if (nTry++ > nMaxTry)
        return FALSE;        
    } */    
    
    SD_DAT_OUT;
 2043684:	00c02904 	movi	r3,164
 2043688:	00800044 	movi	r2,1
 204368c:	18800035 	stwio	r2,0(r3)
    // start bits (zero value)
    SD_CLK_LOW;
 2043690:	00802004 	movi	r2,128
 2043694:	10000035 	stwio	zero,0(r2)
    SD_DAT_WRITE(0x00);  
 2043698:	00802804 	movi	r2,160
 204369c:	10000035 	stwio	zero,0(r2)
    SD_CLK_HIGH;
 20436a0:	00c02004 	movi	r3,128
 20436a4:	00800044 	movi	r2,1
 20436a8:	18800035 	stwio	r2,0(r3)
    
    // write data (512byte = 1 block)
    for(i=0;i<nDataLen;i++)
 20436ac:	e03ffc15 	stw	zero,-16(fp)
 20436b0:	00001f06 	br	2043730 <SDHAL_WriteData+0xdc>
    {
      Data8 = szDataWrite[i];
 20436b4:	e0bffc17 	ldw	r2,-16(fp)
 20436b8:	1007883a 	mov	r3,r2
 20436bc:	e0bffe17 	ldw	r2,-8(fp)
 20436c0:	1885883a 	add	r2,r3,r2
 20436c4:	10800003 	ldbu	r2,0(r2)
 20436c8:	e0bffa85 	stb	r2,-22(fp)
#ifdef SD_4BIT_MODE
      for(j=0;j<2;j++)
 20436cc:	e03ffb15 	stw	zero,-20(fp)
 20436d0:	00001106 	br	2043718 <SDHAL_WriteData+0xc4>
      {
        SD_CLK_LOW;
 20436d4:	00802004 	movi	r2,128
 20436d8:	10000035 	stwio	zero,0(r2)
        //
        SD_DAT_WRITE((Data8 >> 4) & 0x0F);
 20436dc:	e0bffa83 	ldbu	r2,-22(fp)
 20436e0:	1004d13a 	srli	r2,r2,4
 20436e4:	10803fcc 	andi	r2,r2,255
 20436e8:	10c003cc 	andi	r3,r2,15
 20436ec:	00802804 	movi	r2,160
 20436f0:	10c00035 	stwio	r3,0(r2)
        //            
        SD_CLK_HIGH;
 20436f4:	00c02004 	movi	r3,128
 20436f8:	00800044 	movi	r2,1
 20436fc:	18800035 	stwio	r2,0(r3)
        Data8 <<= 4; 
 2043700:	e0bffa83 	ldbu	r2,-22(fp)
 2043704:	1004913a 	slli	r2,r2,4
 2043708:	e0bffa85 	stb	r2,-22(fp)
    // write data (512byte = 1 block)
    for(i=0;i<nDataLen;i++)
    {
      Data8 = szDataWrite[i];
#ifdef SD_4BIT_MODE
      for(j=0;j<2;j++)
 204370c:	e0bffb17 	ldw	r2,-20(fp)
 2043710:	10800044 	addi	r2,r2,1
 2043714:	e0bffb15 	stw	r2,-20(fp)
 2043718:	e0bffb17 	ldw	r2,-20(fp)
 204371c:	10800090 	cmplti	r2,r2,2
 2043720:	103fec1e 	bne	r2,zero,20436d4 <SDHAL_WriteData+0x80>
    SD_CLK_LOW;
    SD_DAT_WRITE(0x00);  
    SD_CLK_HIGH;
    
    // write data (512byte = 1 block)
    for(i=0;i<nDataLen;i++)
 2043724:	e0bffc17 	ldw	r2,-16(fp)
 2043728:	10800044 	addi	r2,r2,1
 204372c:	e0bffc15 	stw	r2,-16(fp)
 2043730:	e0fffc17 	ldw	r3,-16(fp)
 2043734:	e0bfff17 	ldw	r2,-4(fp)
 2043738:	18bfde16 	blt	r3,r2,20436b4 <SDHAL_WriteData+0x60>

    
#endif    

    // stop bits (value 'one')
    SD_CLK_LOW;
 204373c:	00802004 	movi	r2,128
 2043740:	10000035 	stwio	zero,0(r2)
#ifdef SD_4BIT_MODE
    SD_DAT_WRITE(0x0F);
 2043744:	00c02804 	movi	r3,160
 2043748:	008003c4 	movi	r2,15
 204374c:	18800035 	stwio	r2,0(r3)
#else    
    SD_DAT_HIGH;
#endif     
    SD_CLK_HIGH;
 2043750:	00c02004 	movi	r3,128
 2043754:	00800044 	movi	r2,1
 2043758:	18800035 	stwio	r2,0(r3)
    
    //===== check busy bits (data0 only)
    SD_DAT_IN;
 204375c:	00802904 	movi	r2,164
 2043760:	10000035 	stwio	zero,0(r2)
bool bWriteSuccess = FALSE;    
 2043764:	e03ff915 	stw	zero,-28(fp)
for(i=0;i<32 && !bWriteSuccess;i++){        
 2043768:	e03ffc15 	stw	zero,-16(fp)
 204376c:	00001006 	br	20437b0 <SDHAL_WriteData+0x15c>
    SD_CLK_LOW;
 2043770:	00802004 	movi	r2,128
 2043774:	10000035 	stwio	zero,0(r2)
    SD_CLK_HIGH;
 2043778:	00c02004 	movi	r3,128
 204377c:	00800044 	movi	r2,1
 2043780:	18800035 	stwio	r2,0(r3)
    if ((SD_TEST_DAT & 0x01) == 0x01) // (DAT0==LOW: busy indicate
 2043784:	00802804 	movi	r2,160
 2043788:	10800037 	ldwio	r2,0(r2)
 204378c:	1080004c 	andi	r2,r2,1
 2043790:	10803fcc 	andi	r2,r2,255
 2043794:	1005003a 	cmpeq	r2,r2,zero
 2043798:	1000021e 	bne	r2,zero,20437a4 <SDHAL_WriteData+0x150>
        bWriteSuccess = TRUE;
 204379c:	00800044 	movi	r2,1
 20437a0:	e0bff915 	stw	r2,-28(fp)
    SD_CLK_HIGH;
    
    //===== check busy bits (data0 only)
    SD_DAT_IN;
bool bWriteSuccess = FALSE;    
for(i=0;i<32 && !bWriteSuccess;i++){        
 20437a4:	e0bffc17 	ldw	r2,-16(fp)
 20437a8:	10800044 	addi	r2,r2,1
 20437ac:	e0bffc15 	stw	r2,-16(fp)
 20437b0:	e0bffc17 	ldw	r2,-16(fp)
 20437b4:	10800808 	cmpgei	r2,r2,32
 20437b8:	1000031e 	bne	r2,zero,20437c8 <SDHAL_WriteData+0x174>
 20437bc:	e0bff917 	ldw	r2,-28(fp)
 20437c0:	1005003a 	cmpeq	r2,r2,zero
 20437c4:	103fea1e 	bne	r2,zero,2043770 <SDHAL_WriteData+0x11c>
    SD_CLK_LOW;
    SD_CLK_HIGH;
    if ((SD_TEST_DAT & 0x01) == 0x01) // (DAT0==LOW: busy indicate
        bWriteSuccess = TRUE;
}
    if (!bWriteSuccess)
 20437c8:	e0bff917 	ldw	r2,-28(fp)
 20437cc:	1004c03a 	cmpne	r2,r2,zero
 20437d0:	1000011e 	bne	r2,zero,20437d8 <SDHAL_WriteData+0x184>
        bSuccess = FALSE;
 20437d4:	e03ffd15 	stw	zero,-12(fp)
                
    // to provide8 (eight) clock cycles for the card to complete the operation before shutting down the clock 
    SDHAL_DummyClock(8);     
 20437d8:	01000204 	movi	r4,8
 20437dc:	20437f80 	call	20437f8 <SDHAL_DummyClock>
    for(i=0; i<16; i++){
        SD_CLK_LOW;
        SD_CLK_HIGH;
    }*/
    
    return bSuccess;
 20437e0:	e0bffd17 	ldw	r2,-12(fp)
    
}
 20437e4:	e037883a 	mov	sp,fp
 20437e8:	dfc00117 	ldw	ra,4(sp)
 20437ec:	df000017 	ldw	fp,0(sp)
 20437f0:	dec00204 	addi	sp,sp,8
 20437f4:	f800283a 	ret

020437f8 <SDHAL_DummyClock>:


void SDHAL_DummyClock(int nClockCnt){
 20437f8:	defffd04 	addi	sp,sp,-12
 20437fc:	df000215 	stw	fp,8(sp)
 2043800:	df000204 	addi	fp,sp,8
 2043804:	e13fff15 	stw	r4,-4(fp)
    int i;
    for(i=0;i<nClockCnt;i++){
 2043808:	e03ffe15 	stw	zero,-8(fp)
 204380c:	00000806 	br	2043830 <SDHAL_DummyClock+0x38>
        SD_CLK_LOW;
 2043810:	00802004 	movi	r2,128
 2043814:	10000035 	stwio	zero,0(r2)
        SD_CLK_HIGH;
 2043818:	00c02004 	movi	r3,128
 204381c:	00800044 	movi	r2,1
 2043820:	18800035 	stwio	r2,0(r3)
}


void SDHAL_DummyClock(int nClockCnt){
    int i;
    for(i=0;i<nClockCnt;i++){
 2043824:	e0bffe17 	ldw	r2,-8(fp)
 2043828:	10800044 	addi	r2,r2,1
 204382c:	e0bffe15 	stw	r2,-8(fp)
 2043830:	e0fffe17 	ldw	r3,-8(fp)
 2043834:	e0bfff17 	ldw	r2,-4(fp)
 2043838:	18bff516 	blt	r3,r2,2043810 <SDHAL_DummyClock+0x18>
        SD_CLK_LOW;
        SD_CLK_HIGH;
    }
}
 204383c:	e037883a 	mov	sp,fp
 2043840:	df000017 	ldw	fp,0(sp)
 2043844:	dec00104 	addi	sp,sp,4
 2043848:	f800283a 	ret

0204384c <SDLIB_Init>:
static SD_INFO gSdInfo;


//-------------------------------------------------------------------------
bool SDLIB_Init(void)
{
 204384c:	defff504 	addi	sp,sp,-44
 2043850:	dfc00a15 	stw	ra,40(sp)
 2043854:	df000915 	stw	fp,36(sp)
 2043858:	df000904 	addi	fp,sp,36
    bool bSuccess = FALSE, bTimeout = FALSE;
 204385c:	e03ffa15 	stw	zero,-24(fp)
 2043860:	e03ff915 	stw	zero,-28(fp)
 2043864:	008081b4 	movhi	r2,518
 2043868:	10aa9a04 	addi	r2,r2,-21912
 204386c:	10800017 	ldw	r2,0(r2)
    alt_u8  szThisCID[16];
    const int nTimeout = alt_ticks_per_second();
 2043870:	e0bff815 	stw	r2,-32(fp)
    alt_u32 TimeStart;

    
   // alt_u8 x,y;
    memset(&gSdInfo, 0, sizeof(gSdInfo));
 2043874:	008081b4 	movhi	r2,518
 2043878:	10aa9d04 	addi	r2,r2,-21900
 204387c:	10000015 	stw	zero,0(r2)
 2043880:	10000115 	stw	zero,4(r2)
 2043884:	10000215 	stw	zero,8(r2)
 2043888:	10000315 	stw	zero,12(r2)
 204388c:	10000415 	stw	zero,16(r2)
 2043890:	10000515 	stw	zero,20(r2)
 2043894:	10000615 	stw	zero,24(r2)
 2043898:	10000715 	stw	zero,28(r2)
 204389c:	10000815 	stw	zero,32(r2)
 20438a0:	10000915 	stw	zero,36(r2)
 20438a4:	10000a15 	stw	zero,40(r2)
 20438a8:	10000b15 	stw	zero,44(r2)
 20438ac:	10000c15 	stw	zero,48(r2)
 20438b0:	10000d15 	stw	zero,52(r2)
    gSdInfo.bSupport4Bits = SD_IsSupport4Bits();
 20438b4:	2043d300 	call	2043d30 <SD_IsSupport4Bits>
 20438b8:	1007883a 	mov	r3,r2
 20438bc:	008081b4 	movhi	r2,518
 20438c0:	10aa9d04 	addi	r2,r2,-21900
 20438c4:	10c00015 	stw	r3,0(r2)

    SDCARD_DEBUG(("--- Power On, Card Identification Mode, Idle State\r\n"));
    SDCARD_DEBUG(("sd %d-bit mode\r\n", gSdInfo.bSupport4Bits?4:1));
  
    usleep(74*10);
 20438c8:	0100b904 	movi	r4,740
 20438cc:	20503a80 	call	20503a8 <usleep>
    
    SD_Init();
 20438d0:	2043d080 	call	2043d08 <SD_Init>

    
    //========================== CMD0 (None Response) ========
    // Reset all cards to idle state
    SD_CMD0();
 20438d4:	2043d580 	call	2043d58 <SD_CMD0>
    usleep(100*1000);
 20438d8:	010000b4 	movhi	r4,2
 20438dc:	2121a804 	addi	r4,r4,-31072
 20438e0:	20503a80 	call	20503a8 <usleep>
    
    //========================== CMD8 (Response R7) ==========
    //Sends SD Memory Card interface condition (Added in SDHC 2.0)
    if (SD_CMD8(SD_VHS_2V7_3V6, CMD8_DEFAULT_TEST_PATTERN)){
 20438e4:	01000044 	movi	r4,1
 20438e8:	01402a84 	movi	r5,170
 20438ec:	2043dd80 	call	2043dd8 <SD_CMD8>
 20438f0:	1005003a 	cmpeq	r2,r2,zero
 20438f4:	10000e1e 	bne	r2,zero,2043930 <SDLIB_Init+0xe4>
        // OCR: Operation Condistions Register
        //gSdInfo.HostOCR32 = 0x01 << 30; //argument=0x40FF8000; // support HC
        gSdInfo.HostOCR32 = 0x40FF8000;
 20438f8:	00c081b4 	movhi	r3,518
 20438fc:	18ea9d04 	addi	r3,r3,-21900
 2043900:	00904034 	movhi	r2,16640
 2043904:	10a00004 	addi	r2,r2,-32768
 2043908:	18800315 	stw	r2,12(r3)
        gSdInfo.bVer2 = TRUE;
 204390c:	00c081b4 	movhi	r3,518
 2043910:	18ea9d04 	addi	r3,r3,-21900
 2043914:	00800044 	movi	r2,1
 2043918:	18800115 	stw	r2,4(r3)
        gSdInfo.bSDHC = TRUE;
 204391c:	00c081b4 	movhi	r3,518
 2043920:	18ea9d04 	addi	r3,r3,-21900
 2043924:	00800044 	movi	r2,1
 2043928:	18800215 	stw	r2,8(r3)
 204392c:	00000806 	br	2043950 <SDLIB_Init+0x104>
        SDCARD_DEBUG((" 2.0 \r\n"));
    }else{
        gSdInfo.HostOCR32 = 0x00040000;   
 2043930:	00c081b4 	movhi	r3,518
 2043934:	18ea9d04 	addi	r3,r3,-21900
 2043938:	00800134 	movhi	r2,4
 204393c:	18800315 	stw	r2,12(r3)
        SDCARD_TRACE(("CMD8 not supported\r\n"));
        
        // Reset cards to idle state
        SD_CMD0();
 2043940:	2043d580 	call	2043d58 <SD_CMD0>
        usleep(100*1000);        
 2043944:	010000b4 	movhi	r4,2
 2043948:	2121a804 	addi	r4,r4,-31072
 204394c:	20503a80 	call	20503a8 <usleep>
 * alt_nticks() returns the elapsed number of system clock ticks since reset.
 */

static ALT_INLINE alt_u32 ALT_ALWAYS_INLINE alt_nticks (void)
{
  return _alt_nticks;
 2043950:	008081b4 	movhi	r2,518
 2043954:	10aa9b04 	addi	r2,r2,-21908
 2043958:	10800017 	ldw	r2,0(r2)
    }
    //========================== ACMD41 (CMD55) ==============
    TimeStart = alt_nticks();
 204395c:	e0bff715 	stw	r2,-36(fp)
    while(!bSuccess && !bTimeout){
 2043960:	00003206 	br	2043a2c <SDLIB_Init+0x1e0>
        if (!SD_CMD55(gSdInfo.RCA16, SD_STATE_IDLE)){  // execute cmd55 before execute and ACMD
 2043964:	008081b4 	movhi	r2,518
 2043968:	10aa9d04 	addi	r2,r2,-21900
 204396c:	1080050b 	ldhu	r2,20(r2)
 2043970:	113fffcc 	andi	r4,r2,65535
 2043974:	000b883a 	mov	r5,zero
 2043978:	2043f680 	call	2043f68 <SD_CMD55>
 204397c:	1004c03a 	cmpne	r2,r2,zero
 2043980:	1000021e 	bne	r2,zero,204398c <SDLIB_Init+0x140>
            SDCARD_ERROR(("CMD55 NG\r\n"));
            return FALSE;
 2043984:	e03fff15 	stw	zero,-4(fp)
 2043988:	00009106 	br	2043bd0 <SDLIB_Init+0x384>
        }else{    
            bSuccess = SD_ACMD41(gSdInfo.HostOCR32, &gSdInfo.OCR32);
 204398c:	008081b4 	movhi	r2,518
 2043990:	10aa9d04 	addi	r2,r2,-21900
 2043994:	11000317 	ldw	r4,12(r2)
 2043998:	014081b4 	movhi	r5,518
 204399c:	296aa104 	addi	r5,r5,-21884
 20439a0:	20440ec0 	call	20440ec <SD_ACMD41>
 20439a4:	e0bffa15 	stw	r2,-24(fp)
            if (bSuccess && gSdInfo.bSDHC && ((gSdInfo.OCR32 & 0x40000000) == 0x00)){
 20439a8:	e0bffa17 	ldw	r2,-24(fp)
 20439ac:	1005003a 	cmpeq	r2,r2,zero
 20439b0:	10000e1e 	bne	r2,zero,20439ec <SDLIB_Init+0x1a0>
 20439b4:	008081b4 	movhi	r2,518
 20439b8:	10aa9d04 	addi	r2,r2,-21900
 20439bc:	10800217 	ldw	r2,8(r2)
 20439c0:	1005003a 	cmpeq	r2,r2,zero
 20439c4:	1000091e 	bne	r2,zero,20439ec <SDLIB_Init+0x1a0>
 20439c8:	008081b4 	movhi	r2,518
 20439cc:	10aa9d04 	addi	r2,r2,-21900
 20439d0:	10800417 	ldw	r2,16(r2)
 20439d4:	1090002c 	andhi	r2,r2,16384
 20439d8:	1004c03a 	cmpne	r2,r2,zero
 20439dc:	1000031e 	bne	r2,zero,20439ec <SDLIB_Init+0x1a0>
                gSdInfo.bSDHC = FALSE;
 20439e0:	008081b4 	movhi	r2,518
 20439e4:	10aa9d04 	addi	r2,r2,-21900
 20439e8:	10000215 	stw	zero,8(r2)
            }    
            // check timeout
            if (!bSuccess){
 20439ec:	e0bffa17 	ldw	r2,-24(fp)
 20439f0:	1004c03a 	cmpne	r2,r2,zero
 20439f4:	10000d1e 	bne	r2,zero,2043a2c <SDLIB_Init+0x1e0>
 20439f8:	008081b4 	movhi	r2,518
 20439fc:	10aa9b04 	addi	r2,r2,-21908
 2043a00:	10800017 	ldw	r2,0(r2)
 2043a04:	1007883a 	mov	r3,r2
                if ((alt_nticks() - TimeStart) > nTimeout){
 2043a08:	e0bff717 	ldw	r2,-36(fp)
 2043a0c:	1887c83a 	sub	r3,r3,r2
 2043a10:	e0bff817 	ldw	r2,-32(fp)
 2043a14:	10c0032e 	bgeu	r2,r3,2043a24 <SDLIB_Init+0x1d8>
                    SDCARD_ERROR(("ACMD41[SD_APP_OP_COND] fail\r\n"));
                    bTimeout = TRUE;
 2043a18:	00800044 	movi	r2,1
 2043a1c:	e0bff915 	stw	r2,-28(fp)
 2043a20:	00000206 	br	2043a2c <SDLIB_Init+0x1e0>
                }else{
                    usleep(10*1000);
 2043a24:	0109c404 	movi	r4,10000
 2043a28:	20503a80 	call	20503a8 <usleep>
        SD_CMD0();
        usleep(100*1000);        
    }
    //========================== ACMD41 (CMD55) ==============
    TimeStart = alt_nticks();
    while(!bSuccess && !bTimeout){
 2043a2c:	e0bffa17 	ldw	r2,-24(fp)
 2043a30:	1004c03a 	cmpne	r2,r2,zero
 2043a34:	1000031e 	bne	r2,zero,2043a44 <SDLIB_Init+0x1f8>
 2043a38:	e0bff917 	ldw	r2,-28(fp)
 2043a3c:	1005003a 	cmpeq	r2,r2,zero
 2043a40:	103fc81e 	bne	r2,zero,2043964 <SDLIB_Init+0x118>
                    usleep(10*1000);
                }    
            }
        }
    }
    if (!bSuccess){
 2043a44:	e0bffa17 	ldw	r2,-24(fp)
 2043a48:	1004c03a 	cmpne	r2,r2,zero
 2043a4c:	1000021e 	bne	r2,zero,2043a58 <SDLIB_Init+0x20c>
        return FALSE;
 2043a50:	e03fff15 	stw	zero,-4(fp)
 2043a54:	00005e06 	br	2043bd0 <SDLIB_Init+0x384>
    }
   
    //========================== CMD2 ========================    
    // issue cmd2 & wait response 
    // ALL_SEND_CID (CMD2): Asks any card to send the CID numbers on the CMD line
    if (!SD_CMD2(gSdInfo.szCID, sizeof(gSdInfo.szCID))){
 2043a58:	010081b4 	movhi	r4,518
 2043a5c:	212aa284 	addi	r4,r4,-21878
 2043a60:	01400444 	movi	r5,17
 2043a64:	20442900 	call	2044290 <SD_CMD2>
 2043a68:	1004c03a 	cmpne	r2,r2,zero
 2043a6c:	1000021e 	bne	r2,zero,2043a78 <SDLIB_Init+0x22c>
        SDCARD_ERROR(("CMD2 fail\r\n"));
        return FALSE;
 2043a70:	e03fff15 	stw	zero,-4(fp)
 2043a74:	00005606 	br	2043bd0 <SDLIB_Init+0x384>
    SDCARD_TRACE(("--- Power On, Card Identification Mode, Identification State\r\n"));

    //========================== CMD3 ========================        
    // issue cmd3 & wait response, finally get RCA
    // CMD3 (SEND_RELATIVE_ADDR): Ask the card to publish a new relative address (RCA)
    if (!SD_CMD3(&gSdInfo.RCA16)){
 2043a78:	010081b4 	movhi	r4,518
 2043a7c:	212aa204 	addi	r4,r4,-21880
 2043a80:	20444340 	call	2044434 <SD_CMD3>
 2043a84:	1004c03a 	cmpne	r2,r2,zero
 2043a88:	1000021e 	bne	r2,zero,2043a94 <SDLIB_Init+0x248>
        SDCARD_ERROR(("CMD3 fail\r\n"));
        return FALSE;
 2043a8c:	e03fff15 	stw	zero,-4(fp)
 2043a90:	00004f06 	br	2043bd0 <SDLIB_Init+0x384>
    //### Standby-by state in Data-transfer mode
    
    //========================== CMD9 ========================
    SDCARD_DEBUG(("--- enter data-transfer mode, Standby state\r\n"));
    // issue cmd9 with given RCA & wait response 
    if (!SD_CMD9(gSdInfo.RCA16, gSdInfo.szCSD, sizeof(gSdInfo.szCSD))){
 2043a94:	008081b4 	movhi	r2,518
 2043a98:	10aa9d04 	addi	r2,r2,-21900
 2043a9c:	1080050b 	ldhu	r2,20(r2)
 2043aa0:	113fffcc 	andi	r4,r2,65535
 2043aa4:	014081b4 	movhi	r5,518
 2043aa8:	296aa6c4 	addi	r5,r5,-21861
 2043aac:	01800444 	movi	r6,17
 2043ab0:	20445d80 	call	20445d8 <SD_CMD9>
 2043ab4:	1004c03a 	cmpne	r2,r2,zero
 2043ab8:	1000021e 	bne	r2,zero,2043ac4 <SDLIB_Init+0x278>
        SDCARD_DEBUG(("CMD9 fail\r\n"));
        return FALSE;
 2043abc:	e03fff15 	stw	zero,-4(fp)
 2043ac0:	00004306 	br	2043bd0 <SDLIB_Init+0x384>
    }
    
    //========================== CMD10 ========================
    // richard add  (query card identification)  
    if (!SD_CMD10(gSdInfo.RCA16, szThisCID, sizeof(szThisCID))){
 2043ac4:	008081b4 	movhi	r2,518
 2043ac8:	10aa9d04 	addi	r2,r2,-21900
 2043acc:	1080050b 	ldhu	r2,20(r2)
 2043ad0:	113fffcc 	andi	r4,r2,65535
 2043ad4:	e17ffb04 	addi	r5,fp,-20
 2043ad8:	01800404 	movi	r6,16
 2043adc:	20447ac0 	call	20447ac <SD_CMD10>
 2043ae0:	1004c03a 	cmpne	r2,r2,zero
 2043ae4:	1000021e 	bne	r2,zero,2043af0 <SDLIB_Init+0x2a4>
        SDCARD_DEBUG(("CMD10 fail\r\n"));
        return FALSE;
 2043ae8:	e03fff15 	stw	zero,-4(fp)
 2043aec:	00003806 	br	2043bd0 <SDLIB_Init+0x384>
    // issue cmd9 with given RCA & wait response
    
    //========================== CMD7 ========================
    // richard: issue cmd7 to enter transfer state
    // cmd7: toggle between Standy-by and Trasfer State
    if (!SD_CMD7(gSdInfo.RCA16)){
 2043af0:	008081b4 	movhi	r2,518
 2043af4:	10aa9d04 	addi	r2,r2,-21900
 2043af8:	1080050b 	ldhu	r2,20(r2)
 2043afc:	113fffcc 	andi	r4,r2,65535
 2043b00:	20449800 	call	2044980 <SD_CMD7>
 2043b04:	1004c03a 	cmpne	r2,r2,zero
 2043b08:	1000021e 	bne	r2,zero,2043b14 <SDLIB_Init+0x2c8>
        SDCARD_DEBUG(("CMD7 fail\r\n"));
        return FALSE;
 2043b0c:	e03fff15 	stw	zero,-4(fp)
 2043b10:	00002f06 	br	2043bd0 <SDLIB_Init+0x384>
    //### Transfer state in Data-transfer mode     
    SDCARD_DEBUG(("--- enter data-transfer mode, Transfer state\r\n"));
       
    //========================== CMD16 ========================   
    // issue cmd16 (select a block length) & wait response
    if (!SD_CMD16(512)){  // 512 bytes
 2043b14:	01008004 	movi	r4,512
 2043b18:	2044b080 	call	2044b08 <SD_CMD16>
 2043b1c:	1004c03a 	cmpne	r2,r2,zero
 2043b20:	1000021e 	bne	r2,zero,2043b2c <SDLIB_Init+0x2e0>
        SDCARD_DEBUG(("CMD16 fail\r\n"));
        return FALSE;
 2043b24:	e03fff15 	stw	zero,-4(fp)
 2043b28:	00002906 	br	2043bd0 <SDLIB_Init+0x384>
    }       
    
    if (gSdInfo.bSupport4Bits){ 
 2043b2c:	008081b4 	movhi	r2,518
 2043b30:	10aa9d04 	addi	r2,r2,-21900
 2043b34:	10800017 	ldw	r2,0(r2)
 2043b38:	1005003a 	cmpeq	r2,r2,zero
 2043b3c:	1000221e 	bne	r2,zero,2043bc8 <SDLIB_Init+0x37c>
        // richard add: set bus width
        // Note. This command is valid only in "transfer state", i.e. after CMD7 is issued

        if (!SD_CMD55(gSdInfo.RCA16, SD_STATE_TRAN)){  // execute cmd55 before execute and ACMD, RCA = 0
 2043b40:	008081b4 	movhi	r2,518
 2043b44:	10aa9d04 	addi	r2,r2,-21900
 2043b48:	1080050b 	ldhu	r2,20(r2)
 2043b4c:	113fffcc 	andi	r4,r2,65535
 2043b50:	01400104 	movi	r5,4
 2043b54:	2043f680 	call	2043f68 <SD_CMD55>
 2043b58:	1004c03a 	cmpne	r2,r2,zero
 2043b5c:	1000021e 	bne	r2,zero,2043b68 <SDLIB_Init+0x31c>
            SDCARD_DEBUG(("CMD55 NG\r\n"));
            return FALSE;
 2043b60:	e03fff15 	stw	zero,-4(fp)
 2043b64:	00001a06 	br	2043bd0 <SDLIB_Init+0x384>
        }       
    
        SDCARD_DEBUG(("ACMD6[SET_BUS_WIDTH], 4-bit\r\n"));
        if (!SD_ACMD6(TRUE, SD_STATE_TRAN)){  // 4-bit mode
 2043b68:	01000044 	movi	r4,1
 2043b6c:	01400104 	movi	r5,4
 2043b70:	2044ca80 	call	2044ca8 <SD_ACMD6>
 2043b74:	1004c03a 	cmpne	r2,r2,zero
 2043b78:	1000021e 	bne	r2,zero,2043b84 <SDLIB_Init+0x338>
            SDCARD_DEBUG(("ACMD6 NG\r\n"));
            return FALSE;
 2043b7c:	e03fff15 	stw	zero,-4(fp)
 2043b80:	00001306 	br	2043bd0 <SDLIB_Init+0x384>
        }         
    
    
        //
        if (!SD_CMD55(gSdInfo.RCA16, SD_STATE_TRAN)){  // execute cmd55 before execute and ACMD, RCA = 0
 2043b84:	008081b4 	movhi	r2,518
 2043b88:	10aa9d04 	addi	r2,r2,-21900
 2043b8c:	1080050b 	ldhu	r2,20(r2)
 2043b90:	113fffcc 	andi	r4,r2,65535
 2043b94:	01400104 	movi	r5,4
 2043b98:	2043f680 	call	2043f68 <SD_CMD55>
 2043b9c:	1004c03a 	cmpne	r2,r2,zero
 2043ba0:	1000021e 	bne	r2,zero,2043bac <SDLIB_Init+0x360>
            SDCARD_DEBUG(("CMD55 NG\r\n"));
            return FALSE;
 2043ba4:	e03fff15 	stw	zero,-4(fp)
 2043ba8:	00000906 	br	2043bd0 <SDLIB_Init+0x384>
        }    
    
       
        SDCARD_DEBUG(("ACMD42[SET_CLR_CARD_DETECT], connect card\r\n"));
        if (!SD_ACMD42(TRUE, SD_STATE_TRAN)){  // connect card
 2043bac:	01000044 	movi	r4,1
 2043bb0:	01400104 	movi	r5,4
 2043bb4:	2044e400 	call	2044e40 <SD_ACMD42>
 2043bb8:	1004c03a 	cmpne	r2,r2,zero
 2043bbc:	1000021e 	bne	r2,zero,2043bc8 <SDLIB_Init+0x37c>
            SDCARD_DEBUG(("ACMD42 NG\r\n"));
            return FALSE;
 2043bc0:	e03fff15 	stw	zero,-4(fp)
 2043bc4:	00000206 	br	2043bd0 <SDLIB_Init+0x384>
        printf("!!!!!write ng\r\n");
#endif
     
    SDCARD_DEBUG(("SDLIB_Init success\r\n"));
    
    return TRUE;
 2043bc8:	00800044 	movi	r2,1
 2043bcc:	e0bfff15 	stw	r2,-4(fp)
 2043bd0:	e0bfff17 	ldw	r2,-4(fp)
}
 2043bd4:	e037883a 	mov	sp,fp
 2043bd8:	dfc00117 	ldw	ra,4(sp)
 2043bdc:	df000017 	ldw	fp,0(sp)
 2043be0:	dec00204 	addi	sp,sp,8
 2043be4:	f800283a 	ret

02043be8 <SDLIB_ReadBlock512>:


bool SDLIB_ReadBlock512(alt_u32 block_number, alt_u8 *buff)
{
 2043be8:	defff904 	addi	sp,sp,-28
 2043bec:	dfc00615 	stw	ra,24(sp)
 2043bf0:	df000515 	stw	fp,20(sp)
 2043bf4:	df000504 	addi	fp,sp,20
 2043bf8:	e13ffd15 	stw	r4,-12(fp)
 2043bfc:	e17ffe15 	stw	r5,-8(fp)
    // buffer size muse be 512 byte
    bool bSuccess;  
    alt_u32  addr;
  
    // issue cmd17 for 'Single Block Read'. parameter: block address
    if (gSdInfo.bSDHC)
 2043c00:	008081b4 	movhi	r2,518
 2043c04:	10aa9d04 	addi	r2,r2,-21900
 2043c08:	10800217 	ldw	r2,8(r2)
 2043c0c:	1005003a 	cmpeq	r2,r2,zero
 2043c10:	1000031e 	bne	r2,zero,2043c20 <SDLIB_ReadBlock512+0x38>
        addr = block_number; // note. for SDHC, argument for addr of CMD7 is block number
 2043c14:	e0bffd17 	ldw	r2,-12(fp)
 2043c18:	e0bffb15 	stw	r2,-20(fp)
 2043c1c:	00000306 	br	2043c2c <SDLIB_ReadBlock512+0x44>
    else 
        addr = block_number * 512;
 2043c20:	e0bffd17 	ldw	r2,-12(fp)
 2043c24:	1004927a 	slli	r2,r2,9
 2043c28:	e0bffb15 	stw	r2,-20(fp)
    if (!SD_CMD17(addr, SD_STATE_TRAN)){  // 4-bit mode
 2043c2c:	e13ffb17 	ldw	r4,-20(fp)
 2043c30:	01400104 	movi	r5,4
 2043c34:	2044fbc0 	call	2044fbc <SD_CMD17>
 2043c38:	1004c03a 	cmpne	r2,r2,zero
 2043c3c:	1000021e 	bne	r2,zero,2043c48 <SDLIB_ReadBlock512+0x60>
        SDCARD_DEBUG(("CMD17 NG\r\n"));
        return FALSE;
 2043c40:	e03fff15 	stw	zero,-4(fp)
 2043c44:	00000606 	br	2043c60 <SDLIB_ReadBlock512+0x78>
    }
    //

    bSuccess = SD_ReadData(buff, 512);  // read 512 bytes
 2043c48:	e13ffe17 	ldw	r4,-8(fp)
 2043c4c:	01408004 	movi	r5,512
 2043c50:	20453040 	call	2045304 <SD_ReadData>
 2043c54:	e0bffc15 	stw	r2,-16(fp)
    
    //
    return bSuccess;
 2043c58:	e0bffc17 	ldw	r2,-16(fp)
 2043c5c:	e0bfff15 	stw	r2,-4(fp)
 2043c60:	e0bfff17 	ldw	r2,-4(fp)
}
 2043c64:	e037883a 	mov	sp,fp
 2043c68:	dfc00117 	ldw	ra,4(sp)
 2043c6c:	df000017 	ldw	fp,0(sp)
 2043c70:	dec00204 	addi	sp,sp,8
 2043c74:	f800283a 	ret

02043c78 <SDLIB_WriteBlock512>:

bool SDLIB_WriteBlock512(alt_u32 block_number, alt_u8 *szDataWrite)
{
 2043c78:	defff904 	addi	sp,sp,-28
 2043c7c:	dfc00615 	stw	ra,24(sp)
 2043c80:	df000515 	stw	fp,20(sp)
 2043c84:	df000504 	addi	fp,sp,20
 2043c88:	e13ffd15 	stw	r4,-12(fp)
 2043c8c:	e17ffe15 	stw	r5,-8(fp)
    // buffer size muse be 512 byte
    bool bSuccess;  
    alt_u32  addr;
  
    // issue cmd24 for 'Single Block write'. parameter: block address
    if (gSdInfo.bSDHC)
 2043c90:	008081b4 	movhi	r2,518
 2043c94:	10aa9d04 	addi	r2,r2,-21900
 2043c98:	10800217 	ldw	r2,8(r2)
 2043c9c:	1005003a 	cmpeq	r2,r2,zero
 2043ca0:	1000031e 	bne	r2,zero,2043cb0 <SDLIB_WriteBlock512+0x38>
        addr = block_number; // note. for SDHC, argument for addr of CMD7 is block number
 2043ca4:	e0bffd17 	ldw	r2,-12(fp)
 2043ca8:	e0bffb15 	stw	r2,-20(fp)
 2043cac:	00000306 	br	2043cbc <SDLIB_WriteBlock512+0x44>
    else 
        addr = block_number * 512;
 2043cb0:	e0bffd17 	ldw	r2,-12(fp)
 2043cb4:	1004927a 	slli	r2,r2,9
 2043cb8:	e0bffb15 	stw	r2,-20(fp)
    if (!SD_CMD24(addr, SD_STATE_TRAN)){ 
 2043cbc:	e13ffb17 	ldw	r4,-20(fp)
 2043cc0:	01400104 	movi	r5,4
 2043cc4:	20451600 	call	2045160 <SD_CMD24>
 2043cc8:	1004c03a 	cmpne	r2,r2,zero
 2043ccc:	1000021e 	bne	r2,zero,2043cd8 <SDLIB_WriteBlock512+0x60>
        SDCARD_DEBUG(("CMD24 NG\r\n"));
        return FALSE;
 2043cd0:	e03fff15 	stw	zero,-4(fp)
 2043cd4:	00000606 	br	2043cf0 <SDLIB_WriteBlock512+0x78>
    }
    //

    bSuccess = SD_WriteData(szDataWrite, 512);  // Write 512 bytes
 2043cd8:	e13ffe17 	ldw	r4,-8(fp)
 2043cdc:	01408004 	movi	r5,512
 2043ce0:	20453440 	call	2045344 <SD_WriteData>
 2043ce4:	e0bffc15 	stw	r2,-16(fp)
    
    //
    return bSuccess;
 2043ce8:	e0bffc17 	ldw	r2,-16(fp)
 2043cec:	e0bfff15 	stw	r2,-4(fp)
 2043cf0:	e0bfff17 	ldw	r2,-4(fp)
}
 2043cf4:	e037883a 	mov	sp,fp
 2043cf8:	dfc00117 	ldw	ra,4(sp)
 2043cfc:	df000017 	ldw	fp,0(sp)
 2043d00:	dec00204 	addi	sp,sp,8
 2043d04:	f800283a 	ret

02043d08 <SD_Init>:
// internal function
alt_u32 ArrayToU32(alt_u8 szData[]);

//============================================================

void SD_Init(void){
 2043d08:	defffe04 	addi	sp,sp,-8
 2043d0c:	dfc00115 	stw	ra,4(sp)
 2043d10:	df000015 	stw	fp,0(sp)
 2043d14:	d839883a 	mov	fp,sp
    SDHAL_Init();
 2043d18:	2042d900 	call	2042d90 <SDHAL_Init>
}
 2043d1c:	e037883a 	mov	sp,fp
 2043d20:	dfc00117 	ldw	ra,4(sp)
 2043d24:	df000017 	ldw	fp,0(sp)
 2043d28:	dec00204 	addi	sp,sp,8
 2043d2c:	f800283a 	ret

02043d30 <SD_IsSupport4Bits>:

bool SD_IsSupport4Bits(void){
 2043d30:	defffe04 	addi	sp,sp,-8
 2043d34:	dfc00115 	stw	ra,4(sp)
 2043d38:	df000015 	stw	fp,0(sp)
 2043d3c:	d839883a 	mov	fp,sp
    return SDHAL_IsSupport4Bits();
 2043d40:	2042d640 	call	2042d64 <SDHAL_IsSupport4Bits>
}
 2043d44:	e037883a 	mov	sp,fp
 2043d48:	dfc00117 	ldw	ra,4(sp)
 2043d4c:	df000017 	ldw	fp,0(sp)
 2043d50:	dec00204 	addi	sp,sp,8
 2043d54:	f800283a 	ret

02043d58 <SD_CMD0>:



void SD_CMD0(void){
 2043d58:	defffc04 	addi	sp,sp,-16
 2043d5c:	dfc00315 	stw	ra,12(sp)
 2043d60:	df000215 	stw	fp,8(sp)
 2043d64:	df000204 	addi	fp,sp,8
    alt_u8 szCmd[6]  = {0x40,0x00,0x00,0x00,0x00, 0x00}, crc;
 2043d68:	00801004 	movi	r2,64
 2043d6c:	e0bffe45 	stb	r2,-7(fp)
 2043d70:	e03ffe85 	stb	zero,-6(fp)
 2043d74:	e03ffec5 	stb	zero,-5(fp)
 2043d78:	e03fff05 	stb	zero,-4(fp)
 2043d7c:	e03fff45 	stb	zero,-3(fp)
 2043d80:	e03fff85 	stb	zero,-2(fp)

    SDCARD_TRACE(("CMD0\r\n"));
    // build packet    
    szCmd[0] |= 0X00;
 2043d84:	e0bffe43 	ldbu	r2,-7(fp)
 2043d88:	e0bffe45 	stb	r2,-7(fp)
    crc = crc7(0, szCmd, 5);
 2043d8c:	e17ffe44 	addi	r5,fp,-7
 2043d90:	0009883a 	mov	r4,zero
 2043d94:	01800144 	movi	r6,5
 2043d98:	2042cf00 	call	2042cf0 <crc7>
 2043d9c:	e0bffe05 	stb	r2,-8(fp)
    szCmd[5] = (crc << 1) | 0x01;
 2043da0:	e0bffe03 	ldbu	r2,-8(fp)
 2043da4:	1085883a 	add	r2,r2,r2
 2043da8:	10800054 	ori	r2,r2,1
 2043dac:	e0bfff85 	stb	r2,-2(fp)
    
    // Tx 100 clock for power on sequence 
   // SDHAL_DummyClock(100);
    //
    
    SDHAL_SendCmd(szCmd, sizeof(szCmd));
 2043db0:	e13ffe44 	addi	r4,fp,-7
 2043db4:	01400184 	movi	r5,6
 2043db8:	2042de00 	call	2042de0 <SDHAL_SendCmd>
    
    // A command with no response. 8 clocks after the host command end bit.
    // !!!!!!!!!! Note. Remember to add dummy clock here
    SDHAL_DummyClock(8);
 2043dbc:	01000204 	movi	r4,8
 2043dc0:	20437f80 	call	20437f8 <SDHAL_DummyClock>
    
}
 2043dc4:	e037883a 	mov	sp,fp
 2043dc8:	dfc00117 	ldw	ra,4(sp)
 2043dcc:	df000017 	ldw	fp,0(sp)
 2043dd0:	dec00204 	addi	sp,sp,8
 2043dd4:	f800283a 	ret

02043dd8 <SD_CMD8>:


bool SD_CMD8(alt_u8 VolId, alt_u8 TestPattern){
 2043dd8:	defff704 	addi	sp,sp,-36
 2043ddc:	dfc00815 	stw	ra,32(sp)
 2043de0:	df000715 	stw	fp,28(sp)
 2043de4:	df000704 	addi	fp,sp,28
 2043de8:	e13ffe05 	stb	r4,-8(fp)
 2043dec:	e17fff05 	stb	r5,-4(fp)
    bool bSuccess;
    alt_u8 szResponse[6];
    const alt_u8 Cmd = 8;
 2043df0:	00800204 	movi	r2,8
 2043df4:	e0bff985 	stb	r2,-26(fp)
   // int x;
    alt_u8 szCmd[6]  = {0x40,0x00,0x00,0x00,0x00, 0x00}, crc;
 2043df8:	00801004 	movi	r2,64
 2043dfc:	e0bffc85 	stb	r2,-14(fp)
 2043e00:	e03ffcc5 	stb	zero,-13(fp)
 2043e04:	e03ffd05 	stb	zero,-12(fp)
 2043e08:	e03ffd45 	stb	zero,-11(fp)
 2043e0c:	e03ffd85 	stb	zero,-10(fp)
 2043e10:	e03ffdc5 	stb	zero,-9(fp)

    SDCARD_TRACE(("CMD8\r\n"));
    // build packet    
    szCmd[0] |= Cmd;
 2043e14:	e0fffc83 	ldbu	r3,-14(fp)
 2043e18:	e0bff983 	ldbu	r2,-26(fp)
 2043e1c:	1884b03a 	or	r2,r3,r2
 2043e20:	e0bffc85 	stb	r2,-14(fp)
    szCmd[3] |= (VolId & 0x0F);
 2043e24:	e0bffd43 	ldbu	r2,-11(fp)
 2043e28:	1007883a 	mov	r3,r2
 2043e2c:	e0bffe03 	ldbu	r2,-8(fp)
 2043e30:	108003cc 	andi	r2,r2,15
 2043e34:	1884b03a 	or	r2,r3,r2
 2043e38:	e0bffd45 	stb	r2,-11(fp)
    szCmd[4] = TestPattern;
 2043e3c:	e0bfff03 	ldbu	r2,-4(fp)
 2043e40:	e0bffd85 	stb	r2,-10(fp)
    crc = crc7(0, szCmd, 5);
 2043e44:	e17ffc84 	addi	r5,fp,-14
 2043e48:	0009883a 	mov	r4,zero
 2043e4c:	01800144 	movi	r6,5
 2043e50:	2042cf00 	call	2042cf0 <crc7>
 2043e54:	e0bff945 	stb	r2,-27(fp)
    szCmd[5] = (crc << 1) | 0x01;
 2043e58:	e0bff943 	ldbu	r2,-27(fp)
 2043e5c:	1085883a 	add	r2,r2,r2
 2043e60:	10800054 	ori	r2,r2,1
 2043e64:	e0bffdc5 	stb	r2,-9(fp)
    
    SDHAL_SendCmd(szCmd, sizeof(szCmd));
 2043e68:	e13ffc84 	addi	r4,fp,-14
 2043e6c:	01400184 	movi	r5,6
 2043e70:	2042de00 	call	2042de0 <SDHAL_SendCmd>
    
    bSuccess = SDHAL_GetResponse(szResponse, sizeof(szResponse));
 2043e74:	e13ffb04 	addi	r4,fp,-20
 2043e78:	01400184 	movi	r5,6
 2043e7c:	2042ec00 	call	2042ec0 <SDHAL_GetResponse>
 2043e80:	e0bffa15 	stw	r2,-24(fp)
    
    // check response content
    if (bSuccess){
 2043e84:	e0bffa17 	ldw	r2,-24(fp)
 2043e88:	1005003a 	cmpeq	r2,r2,zero
 2043e8c:	1000301e 	bne	r2,zero,2043f50 <SD_CMD8+0x178>
        // check command
        if (bSuccess && szResponse[0] != Cmd){
 2043e90:	e0bffa17 	ldw	r2,-24(fp)
 2043e94:	1005003a 	cmpeq	r2,r2,zero
 2043e98:	1000051e 	bne	r2,zero,2043eb0 <SD_CMD8+0xd8>
 2043e9c:	e0bffb03 	ldbu	r2,-20(fp)
 2043ea0:	10c03fcc 	andi	r3,r2,255
 2043ea4:	e0bff983 	ldbu	r2,-26(fp)
