Archive member included because of file (symbol)

c:/altera/12.0/nios2eds/bin/gnu/h-i686-mingw32/bin/../lib/gcc/nios2-elf/4.1.2\libgcc.a(lib2-divmod.o)
                              obj/default/srec_flash.o (__divsi3)
c:/altera/12.0/nios2eds/bin/gnu/h-i686-mingw32/bin/../lib/gcc/nios2-elf/4.1.2/../../../../nios2-elf/lib\libc.a(lib_a-atoi.o)
                              obj/default/http.o (atoi)
c:/altera/12.0/nios2eds/bin/gnu/h-i686-mingw32/bin/../lib/gcc/nios2-elf/4.1.2/../../../../nios2-elf/lib\libc.a(lib_a-ctype_.o)
                              obj/default/http.o (__ctype_ptr)
c:/altera/12.0/nios2eds/bin/gnu/h-i686-mingw32/bin/../lib/gcc/nios2-elf/4.1.2/../../../../nios2-elf/lib\libc.a(lib_a-fclose.o)
                              obj/default/http.o (fclose)
c:/altera/12.0/nios2eds/bin/gnu/h-i686-mingw32/bin/../lib/gcc/nios2-elf/4.1.2/../../../../nios2-elf/lib\libc.a(lib_a-fflush.o)
                              c:/altera/12.0/nios2eds/bin/gnu/h-i686-mingw32/bin/../lib/gcc/nios2-elf/4.1.2/../../../../nios2-elf/lib\libc.a(lib_a-fclose.o) (_fflush_r)
c:/altera/12.0/nios2eds/bin/gnu/h-i686-mingw32/bin/../lib/gcc/nios2-elf/4.1.2/../../../../nios2-elf/lib\libc.a(lib_a-fgetpos.o)
                              obj/default/http.o (fgetpos)
c:/altera/12.0/nios2eds/bin/gnu/h-i686-mingw32/bin/../lib/gcc/nios2-elf/4.1.2/../../../../nios2-elf/lib\libc.a(lib_a-findfp.o)
                              c:/altera/12.0/nios2eds/bin/gnu/h-i686-mingw32/bin/../lib/gcc/nios2-elf/4.1.2/../../../../nios2-elf/lib\libc.a(lib_a-fclose.o) (__sfp_lock_acquire)
c:/altera/12.0/nios2eds/bin/gnu/h-i686-mingw32/bin/../lib/gcc/nios2-elf/4.1.2/../../../../nios2-elf/lib\libc.a(lib_a-fopen.o)
                              obj/default/http.o (fopen)
c:/altera/12.0/nios2eds/bin/gnu/h-i686-mingw32/bin/../lib/gcc/nios2-elf/4.1.2/../../../../nios2-elf/lib\libc.a(lib_a-fprintf.o)
                              obj/default/alt_error_handler.o (fprintf)
c:/altera/12.0/nios2eds/bin/gnu/h-i686-mingw32/bin/../lib/gcc/nios2-elf/4.1.2/../../../../nios2-elf/lib\libc.a(lib_a-fread.o)
                              obj/default/http.o (fread)
c:/altera/12.0/nios2eds/bin/gnu/h-i686-mingw32/bin/../lib/gcc/nios2-elf/4.1.2/../../../../nios2-elf/lib\libc.a(lib_a-freer.o)
                              c:/altera/12.0/nios2eds/bin/gnu/h-i686-mingw32/bin/../lib/gcc/nios2-elf/4.1.2/../../../../nios2-elf/lib\libc.a(lib_a-fclose.o) (_free_r)
c:/altera/12.0/nios2eds/bin/gnu/h-i686-mingw32/bin/../lib/gcc/nios2-elf/4.1.2/../../../../nios2-elf/lib\libc.a(lib_a-fseek.o)
                              c:/altera/12.0/nios2eds/bin/gnu/h-i686-mingw32/bin/../lib/gcc/nios2-elf/4.1.2/../../../../nios2-elf/lib\libc.a(lib_a-fopen.o) (_fseek_r)
c:/altera/12.0/nios2eds/bin/gnu/h-i686-mingw32/bin/../lib/gcc/nios2-elf/4.1.2/../../../../nios2-elf/lib\libc.a(lib_a-fstatr.o)
                              c:/altera/12.0/nios2eds/bin/gnu/h-i686-mingw32/bin/../lib/gcc/nios2-elf/4.1.2/../../../../nios2-elf/lib\libc.a(lib_a-fseek.o) (_fstat_r)
c:/altera/12.0/nios2eds/bin/gnu/h-i686-mingw32/bin/../lib/gcc/nios2-elf/4.1.2/../../../../nios2-elf/lib\libc.a(lib_a-ftell.o)
                              c:/altera/12.0/nios2eds/bin/gnu/h-i686-mingw32/bin/../lib/gcc/nios2-elf/4.1.2/../../../../nios2-elf/lib\libc.a(lib_a-fgetpos.o) (_ftell_r)
c:/altera/12.0/nios2eds/bin/gnu/h-i686-mingw32/bin/../lib/gcc/nios2-elf/4.1.2/../../../../nios2-elf/lib\libc.a(lib_a-fwalk.o)
                              c:/altera/12.0/nios2eds/bin/gnu/h-i686-mingw32/bin/../lib/gcc/nios2-elf/4.1.2/../../../../nios2-elf/lib\libc.a(lib_a-fflush.o) (_fwalk_reent)
c:/altera/12.0/nios2eds/bin/gnu/h-i686-mingw32/bin/../lib/gcc/nios2-elf/4.1.2/../../../../nios2-elf/lib\libc.a(lib_a-fwrite.o)
                              obj/default/alt_error_handler.o (fwrite)
c:/altera/12.0/nios2eds/bin/gnu/h-i686-mingw32/bin/../lib/gcc/nios2-elf/4.1.2/../../../../nios2-elf/lib\libc.a(lib_a-getc.o)
                              obj/default/network_utilities.o (getc)
c:/altera/12.0/nios2eds/bin/gnu/h-i686-mingw32/bin/../lib/gcc/nios2-elf/4.1.2/../../../../nios2-elf/lib\libc.a(lib_a-impure.o)
                              obj/default/alt_error_handler.o (_impure_ptr)
c:/altera/12.0/nios2eds/bin/gnu/h-i686-mingw32/bin/../lib/gcc/nios2-elf/4.1.2/../../../../nios2-elf/lib\libc.a(lib_a-int_errno.o)
                              c:/altera/12.0/nios2eds/bin/gnu/h-i686-mingw32/bin/../lib/gcc/nios2-elf/4.1.2/../../../../nios2-elf/lib\libc.a(lib_a-fstatr.o) (errno)
c:/altera/12.0/nios2eds/bin/gnu/h-i686-mingw32/bin/../lib/gcc/nios2-elf/4.1.2/../../../../nios2-elf/lib\libc.a(lib_a-makebuf.o)
                              c:/altera/12.0/nios2eds/bin/gnu/h-i686-mingw32/bin/../lib/gcc/nios2-elf/4.1.2/../../../../nios2-elf/lib\libc.a(lib_a-fseek.o) (__smakebuf_r)
c:/altera/12.0/nios2eds/bin/gnu/h-i686-mingw32/bin/../lib/gcc/nios2-elf/4.1.2/../../../../nios2-elf/lib\libc.a(lib_a-mallocr.o)
                              c:/altera/12.0/nios2eds/bin/gnu/h-i686-mingw32/bin/../lib/gcc/nios2-elf/4.1.2/../../../../nios2-elf/lib\libc.a(lib_a-findfp.o) (_malloc_r)
c:/altera/12.0/nios2eds/bin/gnu/h-i686-mingw32/bin/../lib/gcc/nios2-elf/4.1.2/../../../../nios2-elf/lib\libc.a(lib_a-memcpy.o)
                              obj/default/http.o (memcpy)
c:/altera/12.0/nios2eds/bin/gnu/h-i686-mingw32/bin/../lib/gcc/nios2-elf/4.1.2/../../../../nios2-elf/lib\libc.a(lib_a-memmove.o)
                              obj/default/http.o (memmove)
c:/altera/12.0/nios2eds/bin/gnu/h-i686-mingw32/bin/../lib/gcc/nios2-elf/4.1.2/../../../../nios2-elf/lib\libc.a(lib_a-memset.o)
                              obj/default/http.o (memset)
c:/altera/12.0/nios2eds/bin/gnu/h-i686-mingw32/bin/../lib/gcc/nios2-elf/4.1.2/../../../../nios2-elf/lib\libc.a(lib_a-openr.o)
                              c:/altera/12.0/nios2eds/bin/gnu/h-i686-mingw32/bin/../lib/gcc/nios2-elf/4.1.2/../../../../nios2-elf/lib\libc.a(lib_a-fopen.o) (_open_r)
c:/altera/12.0/nios2eds/bin/gnu/h-i686-mingw32/bin/../lib/gcc/nios2-elf/4.1.2/../../../../nios2-elf/lib\libc.a(lib_a-perror.o)
                              obj/default/alt_error_handler.o (perror)
c:/altera/12.0/nios2eds/bin/gnu/h-i686-mingw32/bin/../lib/gcc/nios2-elf/4.1.2/../../../../nios2-elf/lib\libc.a(lib_a-printf.o)
                              obj/default/alt_error_handler.o (printf)
c:/altera/12.0/nios2eds/bin/gnu/h-i686-mingw32/bin/../lib/gcc/nios2-elf/4.1.2/../../../../nios2-elf/lib\libc.a(lib_a-putc.o)
                              obj/default/network_utilities.o (putc)
c:/altera/12.0/nios2eds/bin/gnu/h-i686-mingw32/bin/../lib/gcc/nios2-elf/4.1.2/../../../../nios2-elf/lib\libc.a(lib_a-putchar.o)
                              obj/default/network_utilities.o (putchar)
c:/altera/12.0/nios2eds/bin/gnu/h-i686-mingw32/bin/../lib/gcc/nios2-elf/4.1.2/../../../../nios2-elf/lib\libc.a(lib_a-puts.o)
                              obj/default/alt_error_handler.o (puts)
c:/altera/12.0/nios2eds/bin/gnu/h-i686-mingw32/bin/../lib/gcc/nios2-elf/4.1.2/../../../../nios2-elf/lib\libc.a(lib_a-refill.o)
                              c:/altera/12.0/nios2eds/bin/gnu/h-i686-mingw32/bin/../lib/gcc/nios2-elf/4.1.2/../../../../nios2-elf/lib\libc.a(lib_a-fread.o) (__srefill_r)
c:/altera/12.0/nios2eds/bin/gnu/h-i686-mingw32/bin/../lib/gcc/nios2-elf/4.1.2/../../../../nios2-elf/lib\libc.a(lib_a-rget.o)
                              c:/altera/12.0/nios2eds/bin/gnu/h-i686-mingw32/bin/../lib/gcc/nios2-elf/4.1.2/../../../../nios2-elf/lib\libc.a(lib_a-getc.o) (__srget_r)
c:/altera/12.0/nios2eds/bin/gnu/h-i686-mingw32/bin/../lib/gcc/nios2-elf/4.1.2/../../../../nios2-elf/lib\libc.a(lib_a-sbrkr.o)
                              c:/altera/12.0/nios2eds/bin/gnu/h-i686-mingw32/bin/../lib/gcc/nios2-elf/4.1.2/../../../../nios2-elf/lib\libc.a(lib_a-freer.o) (_sbrk_r)
c:/altera/12.0/nios2eds/bin/gnu/h-i686-mingw32/bin/../lib/gcc/nios2-elf/4.1.2/../../../../nios2-elf/lib\libc.a(lib_a-sprintf.o)
                              obj/default/http.o (sprintf)
c:/altera/12.0/nios2eds/bin/gnu/h-i686-mingw32/bin/../lib/gcc/nios2-elf/4.1.2/../../../../nios2-elf/lib\libc.a(lib_a-sscanf.o)
                              obj/default/srec_flash.o (sscanf)
c:/altera/12.0/nios2eds/bin/gnu/h-i686-mingw32/bin/../lib/gcc/nios2-elf/4.1.2/../../../../nios2-elf/lib\libc.a(lib_a-stdio.o)
                              c:/altera/12.0/nios2eds/bin/gnu/h-i686-mingw32/bin/../lib/gcc/nios2-elf/4.1.2/../../../../nios2-elf/lib\libc.a(lib_a-findfp.o) (__sclose)
c:/altera/12.0/nios2eds/bin/gnu/h-i686-mingw32/bin/../lib/gcc/nios2-elf/4.1.2/../../../../nios2-elf/lib\libc.a(lib_a-strcasecmp.o)
                              obj/default/http.o (strcasecmp)
c:/altera/12.0/nios2eds/bin/gnu/h-i686-mingw32/bin/../lib/gcc/nios2-elf/4.1.2/../../../../nios2-elf/lib\libc.a(lib_a-strcat.o)
                              obj/default/srec_flash.o (strcat)
c:/altera/12.0/nios2eds/bin/gnu/h-i686-mingw32/bin/../lib/gcc/nios2-elf/4.1.2/../../../../nios2-elf/lib\libc.a(lib_a-strchr.o)
                              obj/default/http.o (strchr)
c:/altera/12.0/nios2eds/bin/gnu/h-i686-mingw32/bin/../lib/gcc/nios2-elf/4.1.2/../../../../nios2-elf/lib\libc.a(lib_a-strcmp.o)
                              obj/default/http.o (strcmp)
c:/altera/12.0/nios2eds/bin/gnu/h-i686-mingw32/bin/../lib/gcc/nios2-elf/4.1.2/../../../../nios2-elf/lib\libc.a(lib_a-strcpy.o)
                              obj/default/http.o (strcpy)
c:/altera/12.0/nios2eds/bin/gnu/h-i686-mingw32/bin/../lib/gcc/nios2-elf/4.1.2/../../../../nios2-elf/lib\libc.a(lib_a-strerror.o)
                              c:/altera/12.0/nios2eds/bin/gnu/h-i686-mingw32/bin/../lib/gcc/nios2-elf/4.1.2/../../../../nios2-elf/lib\libc.a(lib_a-perror.o) (strerror)
c:/altera/12.0/nios2eds/bin/gnu/h-i686-mingw32/bin/../lib/gcc/nios2-elf/4.1.2/../../../../nios2-elf/lib\libc.a(lib_a-strlen.o)
                              obj/default/http.o (strlen)
c:/altera/12.0/nios2eds/bin/gnu/h-i686-mingw32/bin/../lib/gcc/nios2-elf/4.1.2/../../../../nios2-elf/lib\libc.a(lib_a-strncmp.o)
                              obj/default/http.o (strncmp)
c:/altera/12.0/nios2eds/bin/gnu/h-i686-mingw32/bin/../lib/gcc/nios2-elf/4.1.2/../../../../nios2-elf/lib\libc.a(lib_a-strncpy.o)
                              obj/default/http.o (strncpy)
c:/altera/12.0/nios2eds/bin/gnu/h-i686-mingw32/bin/../lib/gcc/nios2-elf/4.1.2/../../../../nios2-elf/lib\libc.a(lib_a-strstr.o)
                              obj/default/http.o (strstr)
c:/altera/12.0/nios2eds/bin/gnu/h-i686-mingw32/bin/../lib/gcc/nios2-elf/4.1.2/../../../../nios2-elf/lib\libc.a(lib_a-strtok.o)
                              obj/default/http.o (strtok)
c:/altera/12.0/nios2eds/bin/gnu/h-i686-mingw32/bin/../lib/gcc/nios2-elf/4.1.2/../../../../nios2-elf/lib\libc.a(lib_a-strtok_r.o)
                              c:/altera/12.0/nios2eds/bin/gnu/h-i686-mingw32/bin/../lib/gcc/nios2-elf/4.1.2/../../../../nios2-elf/lib\libc.a(lib_a-strtok.o) (__strtok_r)
c:/altera/12.0/nios2eds/bin/gnu/h-i686-mingw32/bin/../lib/gcc/nios2-elf/4.1.2/../../../../nios2-elf/lib\libc.a(lib_a-strtol.o)
                              c:/altera/12.0/nios2eds/bin/gnu/h-i686-mingw32/bin/../lib/gcc/nios2-elf/4.1.2/../../../../nios2-elf/lib\libc.a(lib_a-atoi.o) (_strtol_r)
c:/altera/12.0/nios2eds/bin/gnu/h-i686-mingw32/bin/../lib/gcc/nios2-elf/4.1.2/../../../../nios2-elf/lib\libc.a(lib_a-u_strerr.o)
                              c:/altera/12.0/nios2eds/bin/gnu/h-i686-mingw32/bin/../lib/gcc/nios2-elf/4.1.2/../../../../nios2-elf/lib\libc.a(lib_a-strerror.o) (_user_strerror)
c:/altera/12.0/nios2eds/bin/gnu/h-i686-mingw32/bin/../lib/gcc/nios2-elf/4.1.2/../../../../nios2-elf/lib\libc.a(lib_a-vfprintf.o)
                              c:/altera/12.0/nios2eds/bin/gnu/h-i686-mingw32/bin/../lib/gcc/nios2-elf/4.1.2/../../../../nios2-elf/lib\libc.a(lib_a-printf.o) (___vfprintf_internal_r)
c:/altera/12.0/nios2eds/bin/gnu/h-i686-mingw32/bin/../lib/gcc/nios2-elf/4.1.2/../../../../nios2-elf/lib\libc.a(lib_a-vfscanf.o)
                              c:/altera/12.0/nios2eds/bin/gnu/h-i686-mingw32/bin/../lib/gcc/nios2-elf/4.1.2/../../../../nios2-elf/lib\libc.a(lib_a-sscanf.o) (__svfscanf_r)
c:/altera/12.0/nios2eds/bin/gnu/h-i686-mingw32/bin/../lib/gcc/nios2-elf/4.1.2/../../../../nios2-elf/lib\libc.a(lib_a-wbuf.o)
                              c:/altera/12.0/nios2eds/bin/gnu/h-i686-mingw32/bin/../lib/gcc/nios2-elf/4.1.2/../../../../nios2-elf/lib\libc.a(lib_a-putc.o) (__swbuf_r)
c:/altera/12.0/nios2eds/bin/gnu/h-i686-mingw32/bin/../lib/gcc/nios2-elf/4.1.2/../../../../nios2-elf/lib\libc.a(lib_a-writer.o)
                              c:/altera/12.0/nios2eds/bin/gnu/h-i686-mingw32/bin/../lib/gcc/nios2-elf/4.1.2/../../../../nios2-elf/lib\libc.a(lib_a-stdio.o) (_write_r)
c:/altera/12.0/nios2eds/bin/gnu/h-i686-mingw32/bin/../lib/gcc/nios2-elf/4.1.2/../../../../nios2-elf/lib\libc.a(lib_a-wsetup.o)
                              c:/altera/12.0/nios2eds/bin/gnu/h-i686-mingw32/bin/../lib/gcc/nios2-elf/4.1.2/../../../../nios2-elf/lib\libc.a(lib_a-vfprintf.o) (__swsetup_r)
c:/altera/12.0/nios2eds/bin/gnu/h-i686-mingw32/bin/../lib/gcc/nios2-elf/4.1.2/../../../../nios2-elf/lib\libc.a(lib_a-closer.o)
                              c:/altera/12.0/nios2eds/bin/gnu/h-i686-mingw32/bin/../lib/gcc/nios2-elf/4.1.2/../../../../nios2-elf/lib\libc.a(lib_a-stdio.o) (_close_r)
c:/altera/12.0/nios2eds/bin/gnu/h-i686-mingw32/bin/../lib/gcc/nios2-elf/4.1.2/../../../../nios2-elf/lib\libc.a(lib_a-dtoa.o)
                              c:/altera/12.0/nios2eds/bin/gnu/h-i686-mingw32/bin/../lib/gcc/nios2-elf/4.1.2/../../../../nios2-elf/lib\libc.a(lib_a-vfprintf.o) (_dtoa_r)
c:/altera/12.0/nios2eds/bin/gnu/h-i686-mingw32/bin/../lib/gcc/nios2-elf/4.1.2/../../../../nios2-elf/lib\libc.a(lib_a-flags.o)
                              c:/altera/12.0/nios2eds/bin/gnu/h-i686-mingw32/bin/../lib/gcc/nios2-elf/4.1.2/../../../../nios2-elf/lib\libc.a(lib_a-fopen.o) (__sflags)
c:/altera/12.0/nios2eds/bin/gnu/h-i686-mingw32/bin/../lib/gcc/nios2-elf/4.1.2/../../../../nios2-elf/lib\libc.a(lib_a-fputc.o)
                              c:/altera/12.0/nios2eds/bin/gnu/h-i686-mingw32/bin/../lib/gcc/nios2-elf/4.1.2/../../../../nios2-elf/lib\libc.a(lib_a-perror.o) (fputc)
c:/altera/12.0/nios2eds/bin/gnu/h-i686-mingw32/bin/../lib/gcc/nios2-elf/4.1.2/../../../../nios2-elf/lib\libc.a(lib_a-fputs.o)
                              c:/altera/12.0/nios2eds/bin/gnu/h-i686-mingw32/bin/../lib/gcc/nios2-elf/4.1.2/../../../../nios2-elf/lib\libc.a(lib_a-perror.o) (fputs)
c:/altera/12.0/nios2eds/bin/gnu/h-i686-mingw32/bin/../lib/gcc/nios2-elf/4.1.2/../../../../nios2-elf/lib\libc.a(lib_a-fvwrite.o)
                              c:/altera/12.0/nios2eds/bin/gnu/h-i686-mingw32/bin/../lib/gcc/nios2-elf/4.1.2/../../../../nios2-elf/lib\libc.a(lib_a-fwrite.o) (__sfvwrite_r)
c:/altera/12.0/nios2eds/bin/gnu/h-i686-mingw32/bin/../lib/gcc/nios2-elf/4.1.2/../../../../nios2-elf/lib\libc.a(lib_a-isattyr.o)
                              c:/altera/12.0/nios2eds/bin/gnu/h-i686-mingw32/bin/../lib/gcc/nios2-elf/4.1.2/../../../../nios2-elf/lib\libc.a(lib_a-makebuf.o) (_isatty_r)
c:/altera/12.0/nios2eds/bin/gnu/h-i686-mingw32/bin/../lib/gcc/nios2-elf/4.1.2/../../../../nios2-elf/lib\libc.a(lib_a-iswspace.o)
                              c:/altera/12.0/nios2eds/bin/gnu/h-i686-mingw32/bin/../lib/gcc/nios2-elf/4.1.2/../../../../nios2-elf/lib\libc.a(lib_a-vfscanf.o) (iswspace)
c:/altera/12.0/nios2eds/bin/gnu/h-i686-mingw32/bin/../lib/gcc/nios2-elf/4.1.2/../../../../nios2-elf/lib\libc.a(lib_a-locale.o)
                              c:/altera/12.0/nios2eds/bin/gnu/h-i686-mingw32/bin/../lib/gcc/nios2-elf/4.1.2/../../../../nios2-elf/lib\libc.a(lib_a-vfprintf.o) (_localeconv_r)
c:/altera/12.0/nios2eds/bin/gnu/h-i686-mingw32/bin/../lib/gcc/nios2-elf/4.1.2/../../../../nios2-elf/lib\libc.a(lib_a-lseekr.o)
                              c:/altera/12.0/nios2eds/bin/gnu/h-i686-mingw32/bin/../lib/gcc/nios2-elf/4.1.2/../../../../nios2-elf/lib\libc.a(lib_a-stdio.o) (_lseek_r)
c:/altera/12.0/nios2eds/bin/gnu/h-i686-mingw32/bin/../lib/gcc/nios2-elf/4.1.2/../../../../nios2-elf/lib\libc.a(lib_a-mbrtowc.o)
                              c:/altera/12.0/nios2eds/bin/gnu/h-i686-mingw32/bin/../lib/gcc/nios2-elf/4.1.2/../../../../nios2-elf/lib\libc.a(lib_a-vfscanf.o) (_mbrtowc_r)
c:/altera/12.0/nios2eds/bin/gnu/h-i686-mingw32/bin/../lib/gcc/nios2-elf/4.1.2/../../../../nios2-elf/lib\libc.a(lib_a-mbtowc_r.o)
                              c:/altera/12.0/nios2eds/bin/gnu/h-i686-mingw32/bin/../lib/gcc/nios2-elf/4.1.2/../../../../nios2-elf/lib\libc.a(lib_a-mbrtowc.o) (_mbtowc_r)
c:/altera/12.0/nios2eds/bin/gnu/h-i686-mingw32/bin/../lib/gcc/nios2-elf/4.1.2/../../../../nios2-elf/lib\libc.a(lib_a-memchr.o)
                              c:/altera/12.0/nios2eds/bin/gnu/h-i686-mingw32/bin/../lib/gcc/nios2-elf/4.1.2/../../../../nios2-elf/lib\libc.a(lib_a-strstr.o) (memchr)
c:/altera/12.0/nios2eds/bin/gnu/h-i686-mingw32/bin/../lib/gcc/nios2-elf/4.1.2/../../../../nios2-elf/lib\libc.a(lib_a-memcmp.o)
                              c:/altera/12.0/nios2eds/bin/gnu/h-i686-mingw32/bin/../lib/gcc/nios2-elf/4.1.2/../../../../nios2-elf/lib\libc.a(lib_a-strstr.o) (memcmp)
c:/altera/12.0/nios2eds/bin/gnu/h-i686-mingw32/bin/../lib/gcc/nios2-elf/4.1.2/../../../../nios2-elf/lib\libc.a(lib_a-mprec.o)
                              c:/altera/12.0/nios2eds/bin/gnu/h-i686-mingw32/bin/../lib/gcc/nios2-elf/4.1.2/../../../../nios2-elf/lib\libc.a(lib_a-dtoa.o) (_Bfree)
c:/altera/12.0/nios2eds/bin/gnu/h-i686-mingw32/bin/../lib/gcc/nios2-elf/4.1.2/../../../../nios2-elf/lib\libc.a(lib_a-readr.o)
                              c:/altera/12.0/nios2eds/bin/gnu/h-i686-mingw32/bin/../lib/gcc/nios2-elf/4.1.2/../../../../nios2-elf/lib\libc.a(lib_a-stdio.o) (_read_r)
c:/altera/12.0/nios2eds/bin/gnu/h-i686-mingw32/bin/../lib/gcc/nios2-elf/4.1.2/../../../../nios2-elf/lib\libc.a(lib_a-reallocr.o)
                              c:/altera/12.0/nios2eds/bin/gnu/h-i686-mingw32/bin/../lib/gcc/nios2-elf/4.1.2/../../../../nios2-elf/lib\libc.a(lib_a-fvwrite.o) (_realloc_r)
c:/altera/12.0/nios2eds/bin/gnu/h-i686-mingw32/bin/../lib/gcc/nios2-elf/4.1.2/../../../../nios2-elf/lib\libc.a(lib_a-s_isinfd.o)
                              c:/altera/12.0/nios2eds/bin/gnu/h-i686-mingw32/bin/../lib/gcc/nios2-elf/4.1.2/../../../../nios2-elf/lib\libc.a(lib_a-vfprintf.o) (__isinfd)
c:/altera/12.0/nios2eds/bin/gnu/h-i686-mingw32/bin/../lib/gcc/nios2-elf/4.1.2/../../../../nios2-elf/lib\libc.a(lib_a-s_isnand.o)
                              c:/altera/12.0/nios2eds/bin/gnu/h-i686-mingw32/bin/../lib/gcc/nios2-elf/4.1.2/../../../../nios2-elf/lib\libc.a(lib_a-vfprintf.o) (__isnand)
c:/altera/12.0/nios2eds/bin/gnu/h-i686-mingw32/bin/../lib/gcc/nios2-elf/4.1.2/../../../../nios2-elf/lib\libc.a(lib_a-sccl.o)
                              c:/altera/12.0/nios2eds/bin/gnu/h-i686-mingw32/bin/../lib/gcc/nios2-elf/4.1.2/../../../../nios2-elf/lib\libc.a(lib_a-vfscanf.o) (__sccl)
c:/altera/12.0/nios2eds/bin/gnu/h-i686-mingw32/bin/../lib/gcc/nios2-elf/4.1.2/../../../../nios2-elf/lib\libc.a(lib_a-sf_nan.o)
                              c:/altera/12.0/nios2eds/bin/gnu/h-i686-mingw32/bin/../lib/gcc/nios2-elf/4.1.2/../../../../nios2-elf/lib\libc.a(lib_a-vfscanf.o) (nanf)
c:/altera/12.0/nios2eds/bin/gnu/h-i686-mingw32/bin/../lib/gcc/nios2-elf/4.1.2/../../../../nios2-elf/lib\libc.a(lib_a-strtod.o)
                              c:/altera/12.0/nios2eds/bin/gnu/h-i686-mingw32/bin/../lib/gcc/nios2-elf/4.1.2/../../../../nios2-elf/lib\libc.a(lib_a-vfscanf.o) (_strtod_r)
c:/altera/12.0/nios2eds/bin/gnu/h-i686-mingw32/bin/../lib/gcc/nios2-elf/4.1.2/../../../../nios2-elf/lib\libc.a(lib_a-strtoll_r.o)
                              c:/altera/12.0/nios2eds/bin/gnu/h-i686-mingw32/bin/../lib/gcc/nios2-elf/4.1.2/../../../../nios2-elf/lib\libc.a(lib_a-vfscanf.o) (_strtoll_r)
c:/altera/12.0/nios2eds/bin/gnu/h-i686-mingw32/bin/../lib/gcc/nios2-elf/4.1.2/../../../../nios2-elf/lib\libc.a(lib_a-strtoul.o)
                              c:/altera/12.0/nios2eds/bin/gnu/h-i686-mingw32/bin/../lib/gcc/nios2-elf/4.1.2/../../../../nios2-elf/lib\libc.a(lib_a-vfscanf.o) (_strtoul_r)
c:/altera/12.0/nios2eds/bin/gnu/h-i686-mingw32/bin/../lib/gcc/nios2-elf/4.1.2/../../../../nios2-elf/lib\libc.a(lib_a-strtoull_r.o)
                              c:/altera/12.0/nios2eds/bin/gnu/h-i686-mingw32/bin/../lib/gcc/nios2-elf/4.1.2/../../../../nios2-elf/lib\libc.a(lib_a-vfscanf.o) (_strtoull_r)
c:/altera/12.0/nios2eds/bin/gnu/h-i686-mingw32/bin/../lib/gcc/nios2-elf/4.1.2/../../../../nios2-elf/lib\libc.a(lib_a-ungetc.o)
                              c:/altera/12.0/nios2eds/bin/gnu/h-i686-mingw32/bin/../lib/gcc/nios2-elf/4.1.2/../../../../nios2-elf/lib\libc.a(lib_a-vfscanf.o) (_ungetc_r)
c:/altera/12.0/nios2eds/bin/gnu/h-i686-mingw32/bin/../lib/gcc/nios2-elf/4.1.2/../../../../nios2-elf/lib\libc.a(lib_a-callocr.o)
                              c:/altera/12.0/nios2eds/bin/gnu/h-i686-mingw32/bin/../lib/gcc/nios2-elf/4.1.2/../../../../nios2-elf/lib\libc.a(lib_a-mprec.o) (_calloc_r)
c:/altera/12.0/nios2eds/bin/gnu/h-i686-mingw32/bin/../lib/gcc/nios2-elf/4.1.2/../../../../nios2-elf/lib\libc.a(lib_a-gdtoa-gethex.o)
                              c:/altera/12.0/nios2eds/bin/gnu/h-i686-mingw32/bin/../lib/gcc/nios2-elf/4.1.2/../../../../nios2-elf/lib\libc.a(lib_a-strtod.o) (__gethex)
c:/altera/12.0/nios2eds/bin/gnu/h-i686-mingw32/bin/../lib/gcc/nios2-elf/4.1.2/../../../../nios2-elf/lib\libc.a(lib_a-gdtoa-hexnan.o)
                              c:/altera/12.0/nios2eds/bin/gnu/h-i686-mingw32/bin/../lib/gcc/nios2-elf/4.1.2/../../../../nios2-elf/lib\libc.a(lib_a-strtod.o) (__hexnan)
c:/altera/12.0/nios2eds/bin/gnu/h-i686-mingw32/bin/../lib/gcc/nios2-elf/4.1.2\libgcc.a(_muldi3.o)
                              c:/altera/12.0/nios2eds/bin/gnu/h-i686-mingw32/bin/../lib/gcc/nios2-elf/4.1.2/../../../../nios2-elf/lib\libc.a(lib_a-strtoll_r.o) (__muldi3)
c:/altera/12.0/nios2eds/bin/gnu/h-i686-mingw32/bin/../lib/gcc/nios2-elf/4.1.2\libgcc.a(_fixunsdfsi.o)
                              c:/altera/12.0/nios2eds/bin/gnu/h-i686-mingw32/bin/../lib/gcc/nios2-elf/4.1.2/../../../../nios2-elf/lib\libc.a(lib_a-strtod.o) (__fixunsdfsi)
c:/altera/12.0/nios2eds/bin/gnu/h-i686-mingw32/bin/../lib/gcc/nios2-elf/4.1.2\libgcc.a(_udivdi3.o)
                              c:/altera/12.0/nios2eds/bin/gnu/h-i686-mingw32/bin/../lib/gcc/nios2-elf/4.1.2/../../../../nios2-elf/lib\libc.a(lib_a-vfprintf.o) (__udivdi3)
c:/altera/12.0/nios2eds/bin/gnu/h-i686-mingw32/bin/../lib/gcc/nios2-elf/4.1.2\libgcc.a(_umoddi3.o)
                              c:/altera/12.0/nios2eds/bin/gnu/h-i686-mingw32/bin/../lib/gcc/nios2-elf/4.1.2/../../../../nios2-elf/lib\libc.a(lib_a-vfprintf.o) (__umoddi3)
c:/altera/12.0/nios2eds/bin/gnu/h-i686-mingw32/bin/../lib/gcc/nios2-elf/4.1.2\libgcc.a(_ne_sf.o)
                              c:/altera/12.0/nios2eds/bin/gnu/h-i686-mingw32/bin/../lib/gcc/nios2-elf/4.1.2/../../../../nios2-elf/lib\libc.a(lib_a-strtod.o) (__nesf2)
c:/altera/12.0/nios2eds/bin/gnu/h-i686-mingw32/bin/../lib/gcc/nios2-elf/4.1.2\libgcc.a(_gt_sf.o)
                              c:/altera/12.0/nios2eds/bin/gnu/h-i686-mingw32/bin/../lib/gcc/nios2-elf/4.1.2/../../../../nios2-elf/lib\libc.a(lib_a-strtod.o) (__gtsf2)
c:/altera/12.0/nios2eds/bin/gnu/h-i686-mingw32/bin/../lib/gcc/nios2-elf/4.1.2\libgcc.a(_lt_sf.o)
                              c:/altera/12.0/nios2eds/bin/gnu/h-i686-mingw32/bin/../lib/gcc/nios2-elf/4.1.2/../../../../nios2-elf/lib\libc.a(lib_a-strtod.o) (__ltsf2)
c:/altera/12.0/nios2eds/bin/gnu/h-i686-mingw32/bin/../lib/gcc/nios2-elf/4.1.2\libgcc.a(_addsub_df.o)
                              c:/altera/12.0/nios2eds/bin/gnu/h-i686-mingw32/bin/../lib/gcc/nios2-elf/4.1.2/../../../../nios2-elf/lib\libc.a(lib_a-dtoa.o) (__subdf3)
c:/altera/12.0/nios2eds/bin/gnu/h-i686-mingw32/bin/../lib/gcc/nios2-elf/4.1.2\libgcc.a(_mul_df.o)
                              c:/altera/12.0/nios2eds/bin/gnu/h-i686-mingw32/bin/../lib/gcc/nios2-elf/4.1.2/../../../../nios2-elf/lib\libc.a(lib_a-dtoa.o) (__muldf3)
c:/altera/12.0/nios2eds/bin/gnu/h-i686-mingw32/bin/../lib/gcc/nios2-elf/4.1.2\libgcc.a(_div_df.o)
                              c:/altera/12.0/nios2eds/bin/gnu/h-i686-mingw32/bin/../lib/gcc/nios2-elf/4.1.2/../../../../nios2-elf/lib\libc.a(lib_a-dtoa.o) (__divdf3)
c:/altera/12.0/nios2eds/bin/gnu/h-i686-mingw32/bin/../lib/gcc/nios2-elf/4.1.2\libgcc.a(_eq_df.o)
                              c:/altera/12.0/nios2eds/bin/gnu/h-i686-mingw32/bin/../lib/gcc/nios2-elf/4.1.2/../../../../nios2-elf/lib\libc.a(lib_a-vfprintf.o) (__eqdf2)
c:/altera/12.0/nios2eds/bin/gnu/h-i686-mingw32/bin/../lib/gcc/nios2-elf/4.1.2\libgcc.a(_ne_df.o)
                              c:/altera/12.0/nios2eds/bin/gnu/h-i686-mingw32/bin/../lib/gcc/nios2-elf/4.1.2/../../../../nios2-elf/lib\libc.a(lib_a-vfprintf.o) (__nedf2)
c:/altera/12.0/nios2eds/bin/gnu/h-i686-mingw32/bin/../lib/gcc/nios2-elf/4.1.2\libgcc.a(_gt_df.o)
                              c:/altera/12.0/nios2eds/bin/gnu/h-i686-mingw32/bin/../lib/gcc/nios2-elf/4.1.2/../../../../nios2-elf/lib\libc.a(lib_a-dtoa.o) (__gtdf2)
c:/altera/12.0/nios2eds/bin/gnu/h-i686-mingw32/bin/../lib/gcc/nios2-elf/4.1.2\libgcc.a(_ge_df.o)
                              c:/altera/12.0/nios2eds/bin/gnu/h-i686-mingw32/bin/../lib/gcc/nios2-elf/4.1.2/../../../../nios2-elf/lib\libc.a(lib_a-dtoa.o) (__gedf2)
c:/altera/12.0/nios2eds/bin/gnu/h-i686-mingw32/bin/../lib/gcc/nios2-elf/4.1.2\libgcc.a(_lt_df.o)
                              c:/altera/12.0/nios2eds/bin/gnu/h-i686-mingw32/bin/../lib/gcc/nios2-elf/4.1.2/../../../../nios2-elf/lib\libc.a(lib_a-vfprintf.o) (__ltdf2)
c:/altera/12.0/nios2eds/bin/gnu/h-i686-mingw32/bin/../lib/gcc/nios2-elf/4.1.2\libgcc.a(_le_df.o)
                              c:/altera/12.0/nios2eds/bin/gnu/h-i686-mingw32/bin/../lib/gcc/nios2-elf/4.1.2/../../../../nios2-elf/lib\libc.a(lib_a-strtod.o) (__ledf2)
c:/altera/12.0/nios2eds/bin/gnu/h-i686-mingw32/bin/../lib/gcc/nios2-elf/4.1.2\libgcc.a(_si_to_df.o)
                              c:/altera/12.0/nios2eds/bin/gnu/h-i686-mingw32/bin/../lib/gcc/nios2-elf/4.1.2/../../../../nios2-elf/lib\libc.a(lib_a-dtoa.o) (__floatsidf)
c:/altera/12.0/nios2eds/bin/gnu/h-i686-mingw32/bin/../lib/gcc/nios2-elf/4.1.2\libgcc.a(_df_to_si.o)
                              c:/altera/12.0/nios2eds/bin/gnu/h-i686-mingw32/bin/../lib/gcc/nios2-elf/4.1.2/../../../../nios2-elf/lib\libc.a(lib_a-dtoa.o) (__fixdfsi)
c:/altera/12.0/nios2eds/bin/gnu/h-i686-mingw32/bin/../lib/gcc/nios2-elf/4.1.2\libgcc.a(_df_to_sf.o)
                              c:/altera/12.0/nios2eds/bin/gnu/h-i686-mingw32/bin/../lib/gcc/nios2-elf/4.1.2/../../../../nios2-elf/lib\libc.a(lib_a-vfscanf.o) (__truncdfsf2)
c:/altera/12.0/nios2eds/bin/gnu/h-i686-mingw32/bin/../lib/gcc/nios2-elf/4.1.2\libgcc.a(_thenan_df.o)
                              c:/altera/12.0/nios2eds/bin/gnu/h-i686-mingw32/bin/../lib/gcc/nios2-elf/4.1.2\libgcc.a(_addsub_df.o) (__thenan_df)
c:/altera/12.0/nios2eds/bin/gnu/h-i686-mingw32/bin/../lib/gcc/nios2-elf/4.1.2\libgcc.a(_usi_to_df.o)
                              c:/altera/12.0/nios2eds/bin/gnu/h-i686-mingw32/bin/../lib/gcc/nios2-elf/4.1.2/../../../../nios2-elf/lib\libc.a(lib_a-dtoa.o) (__floatunsidf)
c:/altera/12.0/nios2eds/bin/gnu/h-i686-mingw32/bin/../lib/gcc/nios2-elf/4.1.2\libgcc.a(_clz.o)
                              c:/altera/12.0/nios2eds/bin/gnu/h-i686-mingw32/bin/../lib/gcc/nios2-elf/4.1.2\libgcc.a(_udivdi3.o) (__clz_tab)
c:/altera/12.0/nios2eds/bin/gnu/h-i686-mingw32/bin/../lib/gcc/nios2-elf/4.1.2\libgcc.a(_clzsi2.o)
                              c:/altera/12.0/nios2eds/bin/gnu/h-i686-mingw32/bin/../lib/gcc/nios2-elf/4.1.2\libgcc.a(_si_to_df.o) (__clzsi2)
c:/altera/12.0/nios2eds/bin/gnu/h-i686-mingw32/bin/../lib/gcc/nios2-elf/4.1.2\libgcc.a(_unpack_sf.o)
                              c:/altera/12.0/nios2eds/bin/gnu/h-i686-mingw32/bin/../lib/gcc/nios2-elf/4.1.2\libgcc.a(_ne_sf.o) (__unpack_f)
c:/altera/12.0/nios2eds/bin/gnu/h-i686-mingw32/bin/../lib/gcc/nios2-elf/4.1.2\libgcc.a(_fpcmp_parts_sf.o)
                              c:/altera/12.0/nios2eds/bin/gnu/h-i686-mingw32/bin/../lib/gcc/nios2-elf/4.1.2\libgcc.a(_ne_sf.o) (__fpcmp_parts_f)
c:/altera/12.0/nios2eds/bin/gnu/h-i686-mingw32/bin/../lib/gcc/nios2-elf/4.1.2\libgcc.a(_make_sf.o)
                              c:/altera/12.0/nios2eds/bin/gnu/h-i686-mingw32/bin/../lib/gcc/nios2-elf/4.1.2\libgcc.a(_df_to_sf.o) (__make_fp)
c:/altera/12.0/nios2eds/bin/gnu/h-i686-mingw32/bin/../lib/gcc/nios2-elf/4.1.2\libgcc.a(_pack_df.o)
                              c:/altera/12.0/nios2eds/bin/gnu/h-i686-mingw32/bin/../lib/gcc/nios2-elf/4.1.2\libgcc.a(_addsub_df.o) (__pack_d)
c:/altera/12.0/nios2eds/bin/gnu/h-i686-mingw32/bin/../lib/gcc/nios2-elf/4.1.2\libgcc.a(_unpack_df.o)
                              c:/altera/12.0/nios2eds/bin/gnu/h-i686-mingw32/bin/../lib/gcc/nios2-elf/4.1.2\libgcc.a(_addsub_df.o) (__unpack_d)
c:/altera/12.0/nios2eds/bin/gnu/h-i686-mingw32/bin/../lib/gcc/nios2-elf/4.1.2\libgcc.a(_fpcmp_parts_df.o)
                              c:/altera/12.0/nios2eds/bin/gnu/h-i686-mingw32/bin/../lib/gcc/nios2-elf/4.1.2\libgcc.a(_eq_df.o) (__fpcmp_parts_d)
c:/altera/12.0/nios2eds/bin/gnu/h-i686-mingw32/bin/../lib/gcc/nios2-elf/4.1.2\libgcc.a(_pack_sf.o)
                              c:/altera/12.0/nios2eds/bin/gnu/h-i686-mingw32/bin/../lib/gcc/nios2-elf/4.1.2\libgcc.a(_make_sf.o) (__pack_f)
../web_server_bsp/\libucosii_bsp.a(alt_dcache_flush.o)
                              obj/default/srec_flash.o (alt_dcache_flush)
../web_server_bsp/\libucosii_bsp.a(alt_flash_dev.o)
                              obj/default/network_utilities.o (alt_flash_open_dev)
../web_server_bsp/\libucosii_bsp.a(alt_fstat.o)
                              c:/altera/12.0/nios2eds/bin/gnu/h-i686-mingw32/bin/../lib/gcc/nios2-elf/4.1.2/../../../../nios2-elf/lib\libc.a(lib_a-fstatr.o) (fstat)
../web_server_bsp/\libucosii_bsp.a(alt_isatty.o)
                              c:/altera/12.0/nios2eds/bin/gnu/h-i686-mingw32/bin/../lib/gcc/nios2-elf/4.1.2/../../../../nios2-elf/lib\libc.a(lib_a-isattyr.o) (isatty)
../web_server_bsp/\libucosii_bsp.a(alt_load.o)
                              ../web_server_bsp//obj/HAL/src/crt0.o (alt_load)
../web_server_bsp/\libucosii_bsp.a(alt_lseek.o)
                              c:/altera/12.0/nios2eds/bin/gnu/h-i686-mingw32/bin/../lib/gcc/nios2-elf/4.1.2/../../../../nios2-elf/lib\libc.a(lib_a-lseekr.o) (lseek)
../web_server_bsp/\libucosii_bsp.a(alt_main.o)
                              ../web_server_bsp//obj/HAL/src/crt0.o (alt_main)
../web_server_bsp/\libucosii_bsp.a(alt_open.o)
                              c:/altera/12.0/nios2eds/bin/gnu/h-i686-mingw32/bin/../lib/gcc/nios2-elf/4.1.2/../../../../nios2-elf/lib\libc.a(lib_a-openr.o) (open)
../web_server_bsp/\libucosii_bsp.a(alt_release_fd.o)
                              ../web_server_bsp/\libucosii_bsp.a(alt_open.o) (alt_release_fd)
../web_server_bsp/\libucosii_bsp.a(alt_sbrk.o)
                              c:/altera/12.0/nios2eds/bin/gnu/h-i686-mingw32/bin/../lib/gcc/nios2-elf/4.1.2/../../../../nios2-elf/lib\libc.a(lib_a-sbrkr.o) (sbrk)
../web_server_bsp/\libucosii_bsp.a(alt_tick.o)
                              obj/default/http.o (_alt_nticks)
../web_server_bsp/\libucosii_bsp.a(alt_usleep.o)
                              obj/default/web_server.o (usleep)
../web_server_bsp/\libucosii_bsp.a(alt_env_lock.o)
                              ../web_server_bsp/\libucosii_bsp.a(alt_main.o) (alt_envsem)
../web_server_bsp/\libucosii_bsp.a(alt_malloc_lock.o)
                              c:/altera/12.0/nios2eds/bin/gnu/h-i686-mingw32/bin/../lib/gcc/nios2-elf/4.1.2/../../../../nios2-elf/lib\libc.a(lib_a-freer.o) (__malloc_lock)
../web_server_bsp/\libucosii_bsp.a(os_core.o)
                              ../web_server_bsp/\libucosii_bsp.a(alt_main.o) (OSInit)
../web_server_bsp/\libucosii_bsp.a(os_dbg.o)
                              ../web_server_bsp/\libucosii_bsp.a(os_core.o) (OSDebugInit)
../web_server_bsp/\libucosii_bsp.a(os_flag.o)
                              ../web_server_bsp/\libucosii_bsp.a(os_core.o) (OS_FlagInit)
../web_server_bsp/\libucosii_bsp.a(os_mbox.o)
                              obj/default/web_server.o (OSMboxCreate)
../web_server_bsp/\libucosii_bsp.a(os_mem.o)
                              ../web_server_bsp/\libucosii_bsp.a(os_core.o) (OS_MemInit)
../web_server_bsp/\libucosii_bsp.a(os_q.o)
                              ../web_server_bsp/\libucosii_bsp.a(os_core.o) (OS_QInit)
../web_server_bsp/\libucosii_bsp.a(os_sem.o)
                              ../web_server_bsp/\libucosii_bsp.a(alt_main.o) (OSSemCreate)
../web_server_bsp/\libucosii_bsp.a(os_task.o)
                              obj/default/web_server.o (OSTaskCreateExt)
../web_server_bsp/\libucosii_bsp.a(os_time.o)
                              obj/default/web_server.o (OSTimeDly)
../web_server_bsp/\libucosii_bsp.a(alt_sys_init.o)
                              ../web_server_bsp/\libucosii_bsp.a(alt_main.o) (alt_irq_init)
../web_server_bsp/\libucosii_bsp.a(altera_avalon_cfi_flash.o)
                              ../web_server_bsp/\libucosii_bsp.a(alt_sys_init.o) (alt_flash_cfi_init)
../web_server_bsp/\libucosii_bsp.a(altera_avalon_cfi_flash_table.o)
                              ../web_server_bsp/\libucosii_bsp.a(altera_avalon_cfi_flash.o) (alt_set_flash_width_func)
../web_server_bsp/\libucosii_bsp.a(altera_avalon_jtag_uart_fd.o)
                              ../web_server_bsp/\libucosii_bsp.a(alt_sys_init.o) (altera_avalon_jtag_uart_read_fd)
../web_server_bsp/\libucosii_bsp.a(altera_avalon_jtag_uart_init.o)
                              ../web_server_bsp/\libucosii_bsp.a(alt_sys_init.o) (altera_avalon_jtag_uart_init)
../web_server_bsp/\libucosii_bsp.a(altera_avalon_jtag_uart_ioctl.o)
                              ../web_server_bsp/\libucosii_bsp.a(altera_avalon_jtag_uart_fd.o) (altera_avalon_jtag_uart_ioctl)
../web_server_bsp/\libucosii_bsp.a(altera_avalon_jtag_uart_read.o)
                              ../web_server_bsp/\libucosii_bsp.a(altera_avalon_jtag_uart_fd.o) (altera_avalon_jtag_uart_read)
../web_server_bsp/\libucosii_bsp.a(altera_avalon_jtag_uart_write.o)
                              ../web_server_bsp/\libucosii_bsp.a(altera_avalon_jtag_uart_fd.o) (altera_avalon_jtag_uart_write)
../web_server_bsp/\libucosii_bsp.a(altera_avalon_lcd_16207.o)
                              ../web_server_bsp/\libucosii_bsp.a(alt_sys_init.o) (altera_avalon_lcd_16207_init)
../web_server_bsp/\libucosii_bsp.a(altera_avalon_lcd_16207_fd.o)
                              ../web_server_bsp/\libucosii_bsp.a(alt_sys_init.o) (altera_avalon_lcd_16207_write_fd)
../web_server_bsp/\libucosii_bsp.a(altera_avalon_sgdma.o)
                              ../web_server_bsp/\libucosii_bsp.a(alt_sys_init.o) (alt_avalon_sgdma_init)
../web_server_bsp/\libucosii_bsp.a(altera_avalon_timer_sc.o)
                              ../web_server_bsp/\libucosii_bsp.a(alt_sys_init.o) (alt_avalon_timer_sc_init)
../web_server_bsp/\libucosii_bsp.a(altera_avalon_tse.o)
                              obj/default/tse_my_system.o (marvell_cfg_rgmii)
../web_server_bsp/\libucosii_bsp.a(altera_avalon_uart_fd.o)
                              ../web_server_bsp/\libucosii_bsp.a(alt_sys_init.o) (altera_avalon_uart_read_fd)
../web_server_bsp/\libucosii_bsp.a(altera_avalon_uart_init.o)
                              ../web_server_bsp/\libucosii_bsp.a(alt_sys_init.o) (altera_avalon_uart_init)
../web_server_bsp/\libucosii_bsp.a(altera_avalon_uart_read.o)
                              ../web_server_bsp/\libucosii_bsp.a(altera_avalon_uart_fd.o) (altera_avalon_uart_read)
../web_server_bsp/\libucosii_bsp.a(altera_avalon_uart_write.o)
                              ../web_server_bsp/\libucosii_bsp.a(altera_avalon_uart_fd.o) (altera_avalon_uart_write)
../web_server_bsp/\libucosii_bsp.a(altera_ro_zipfs.o)
                              ../web_server_bsp/\libucosii_bsp.a(alt_sys_init.o) (alt_ro_zipfs_open)
../web_server_bsp/\libucosii_bsp.a(ins_tse_mac.o)
                              ../web_server_bsp/\libucosii_bsp.a(alt_sys_init.o) (number_of_tse_mac)
../web_server_bsp/\libucosii_bsp.a(alt_iniche_close.o)
                              obj/default/http.o (close)
../web_server_bsp/\libucosii_bsp.a(alt_iniche_dev.o)
                              ../web_server_bsp/\libucosii_bsp.a(alt_sys_init.o) (alt_iniche_dev_list)
../web_server_bsp/\libucosii_bsp.a(alt_iniche_read.o)
                              c:/altera/12.0/nios2eds/bin/gnu/h-i686-mingw32/bin/../lib/gcc/nios2-elf/4.1.2/../../../../nios2-elf/lib\libc.a(lib_a-readr.o) (read)
../web_server_bsp/\libucosii_bsp.a(alt_iniche_write.o)
                              c:/altera/12.0/nios2eds/bin/gnu/h-i686-mingw32/bin/../lib/gcc/nios2-elf/4.1.2/../../../../nios2-elf/lib\libc.a(lib_a-writer.o) (write)
../web_server_bsp/\libucosii_bsp.a(ipnet.o)
                              ../web_server_bsp/\libucosii_bsp.a(ins_tse_mac.o) (rcvdq)
../web_server_bsp/\libucosii_bsp.a(ipstart.o)
                              ../web_server_bsp/\libucosii_bsp.a(ipnet.o) (ifNumber)
../web_server_bsp/\libucosii_bsp.a(igmp_cmn.o)
                              ../web_server_bsp/\libucosii_bsp.a(ipstart.o) (igmp_init)
../web_server_bsp/\libucosii_bsp.a(bsdsock.o)
                              obj/default/http.o (bsd_accept)
../web_server_bsp/\libucosii_bsp.a(cksum.o)
                              ../web_server_bsp/\libucosii_bsp.a(igmp_cmn.o) (cksum)
../web_server_bsp/\libucosii_bsp.a(in_utils.o)
                              ../web_server_bsp/\libucosii_bsp.a(ins_tse_mac.o) (ns_printf)
../web_server_bsp/\libucosii_bsp.a(netmain.o)
                              obj/default/web_server.o (iniche_net_ready)
../web_server_bsp/\libucosii_bsp.a(tk_crnos.o)
                              ../web_server_bsp/\libucosii_bsp.a(ipnet.o) (tk_yield)
../web_server_bsp/\libucosii_bsp.a(dhcpclnt.o)
                              ../web_server_bsp/\libucosii_bsp.a(netmain.o) (dhc_second)
../web_server_bsp/\libucosii_bsp.a(dhcputil.o)
                              ../web_server_bsp/\libucosii_bsp.a(dhcpclnt.o) (find_opt)
../web_server_bsp/\libucosii_bsp.a(pktalloc.o)
                              ../web_server_bsp/\libucosii_bsp.a(ipnet.o) (pk_init)
../web_server_bsp/\libucosii_bsp.a(q.o)
                              ../web_server_bsp/\libucosii_bsp.a(ipnet.o) (getq)
../web_server_bsp/\libucosii_bsp.a(udp_open.o)
                              ../web_server_bsp/\libucosii_bsp.a(dhcpclnt.o) (udp_open)
../web_server_bsp/\libucosii_bsp.a(asm_cksum.o)
                              ../web_server_bsp/\libucosii_bsp.a(cksum.o) (asm_cksum)
../web_server_bsp/\libucosii_bsp.a(brdutils.o)
                              ../web_server_bsp/\libucosii_bsp.a(ipnet.o) (dtrap)
../web_server_bsp/\libucosii_bsp.a(osportco.o)
                              ../web_server_bsp/\libucosii_bsp.a(tk_crnos.o) (tcp_sleep_count)
../web_server_bsp/\libucosii_bsp.a(targnios.o)
                              obj/default/web_server.o (alt_iniche_init)
../web_server_bsp/\libucosii_bsp.a(nptcp.o)
                              ../web_server_bsp/\libucosii_bsp.a(bsdsock.o) (soq)
../web_server_bsp/\libucosii_bsp.a(rawsock.o)
                              ../web_server_bsp/\libucosii_bsp.a(nptcp.o) (rawip_usrreq)
../web_server_bsp/\libucosii_bsp.a(sockcall.o)
                              obj/default/http.o (t_socket)
../web_server_bsp/\libucosii_bsp.a(socket.o)
                              ../web_server_bsp/\libucosii_bsp.a(sockcall.o) (socreate)
../web_server_bsp/\libucosii_bsp.a(socket2.o)
                              ../web_server_bsp/\libucosii_bsp.a(sockcall.o) (soqremque)
../web_server_bsp/\libucosii_bsp.a(soselect.o)
                              ../web_server_bsp/\libucosii_bsp.a(bsdsock.o) (t_select)
../web_server_bsp/\libucosii_bsp.a(tcp_in.o)
                              ../web_server_bsp/\libucosii_bsp.a(nptcp.o) (tcp_input)
../web_server_bsp/\libucosii_bsp.a(tcp_out.o)
                              ../web_server_bsp/\libucosii_bsp.a(tcp_in.o) (tcp_output)
../web_server_bsp/\libucosii_bsp.a(tcp_subr.o)
                              ../web_server_bsp/\libucosii_bsp.a(nptcp.o) (tcp_init)
../web_server_bsp/\libucosii_bsp.a(tcp_timr.o)
                              ../web_server_bsp/\libucosii_bsp.a(tcp_in.o) (tcp_keepidle)
../web_server_bsp/\libucosii_bsp.a(tcp_usr.o)
                              ../web_server_bsp/\libucosii_bsp.a(nptcp.o) (tcp_usrreq)
../web_server_bsp/\libucosii_bsp.a(tcpport.o)
                              ../web_server_bsp/\libucosii_bsp.a(ipstart.o) (tcpinit)
../web_server_bsp/\libucosii_bsp.a(udpsock.o)
                              ../web_server_bsp/\libucosii_bsp.a(nptcp.o) (udp_usrreq)
../web_server_bsp/\libucosii_bsp.a(alt_alarm_start.o)
                              ../web_server_bsp/\libucosii_bsp.a(altera_avalon_jtag_uart_init.o) (alt_alarm_start)
../web_server_bsp/\libucosii_bsp.a(alt_busy_sleep.o)
                              ../web_server_bsp/\libucosii_bsp.a(alt_usleep.o) (alt_busy_sleep)
../web_server_bsp/\libucosii_bsp.a(alt_close.o)
                              ../web_server_bsp/\libucosii_bsp.a(alt_iniche_close.o) (alt_close)
../web_server_bsp/\libucosii_bsp.a(alt_dcache_flush_all.o)
                              ../web_server_bsp/\libucosii_bsp.a(alt_load.o) (alt_dcache_flush_all)
../web_server_bsp/\libucosii_bsp.a(alt_dev.o)
                              ../web_server_bsp/\libucosii_bsp.a(alt_open.o) (alt_dev_list)
../web_server_bsp/\libucosii_bsp.a(alt_dev_llist_insert.o)
                              ../web_server_bsp/\libucosii_bsp.a(alt_sys_init.o) (alt_dev_llist_insert)
../web_server_bsp/\libucosii_bsp.a(alt_do_ctors.o)
                              ../web_server_bsp/\libucosii_bsp.a(alt_main.o) (_do_ctors)
../web_server_bsp/\libucosii_bsp.a(alt_do_dtors.o)
                              ../web_server_bsp/\libucosii_bsp.a(alt_main.o) (_do_dtors)
../web_server_bsp/\libucosii_bsp.a(alt_errno.o)
                              ../web_server_bsp/\libucosii_bsp.a(alt_fstat.o) (alt_errno)
../web_server_bsp/\libucosii_bsp.a(alt_find_dev.o)
                              ../web_server_bsp/\libucosii_bsp.a(alt_flash_dev.o) (alt_find_dev)
../web_server_bsp/\libucosii_bsp.a(alt_find_file.o)
                              ../web_server_bsp/\libucosii_bsp.a(alt_open.o) (alt_find_file)
../web_server_bsp/\libucosii_bsp.a(alt_fs_reg.o)
                              ../web_server_bsp/\libucosii_bsp.a(alt_sys_init.o) (alt_fs_reg)
../web_server_bsp/\libucosii_bsp.a(alt_get_fd.o)
                              ../web_server_bsp/\libucosii_bsp.a(alt_open.o) (alt_get_fd)
../web_server_bsp/\libucosii_bsp.a(alt_icache_flush_all.o)
                              ../web_server_bsp/\libucosii_bsp.a(alt_load.o) (alt_icache_flush_all)
../web_server_bsp/\libucosii_bsp.a(alt_iic.o)
                              ../web_server_bsp/\libucosii_bsp.a(altera_avalon_jtag_uart_init.o) (alt_ic_isr_register)
../web_server_bsp/\libucosii_bsp.a(alt_iic_isr_register.o)
                              ../web_server_bsp/\libucosii_bsp.a(alt_iic.o) (alt_iic_isr_register)
../web_server_bsp/\libucosii_bsp.a(alt_io_redirect.o)
                              ../web_server_bsp/\libucosii_bsp.a(alt_main.o) (alt_io_redirect)
../web_server_bsp/\libucosii_bsp.a(alt_irq_entry.o)
                              ../web_server_bsp/\libucosii_bsp.a(alt_iic_isr_register.o) (alt_irq_entry)
../web_server_bsp/\libucosii_bsp.a(alt_irq_handler.o)
                              ../web_server_bsp/\libucosii_bsp.a(alt_iic_isr_register.o) (alt_irq_handler)
../web_server_bsp/\libucosii_bsp.a(alt_irq_vars.o)
                              ../web_server_bsp/\libucosii_bsp.a(alt_iic.o) (alt_irq_active)
../web_server_bsp/\libucosii_bsp.a(alt_read.o)
                              ../web_server_bsp/\libucosii_bsp.a(alt_iniche_read.o) (alt_read)
../web_server_bsp/\libucosii_bsp.a(alt_remap_cached.o)
                              ../web_server_bsp/\libucosii_bsp.a(ins_tse_mac.o) (alt_remap_cached)
../web_server_bsp/\libucosii_bsp.a(alt_remap_uncached.o)
                              ../web_server_bsp/\libucosii_bsp.a(altera_avalon_sgdma.o) (alt_remap_uncached)
../web_server_bsp/\libucosii_bsp.a(alt_uncached_malloc.o)
                              ../web_server_bsp/\libucosii_bsp.a(ins_tse_mac.o) (alt_uncached_malloc)
../web_server_bsp/\libucosii_bsp.a(alt_write.o)
                              ../web_server_bsp/\libucosii_bsp.a(alt_iniche_write.o) (alt_write)
../web_server_bsp/\libucosii_bsp.a(altera_nios2_qsys_irq.o)
                              ../web_server_bsp/\libucosii_bsp.a(alt_sys_init.o) (altera_nios2_qsys_irq_init)
../web_server_bsp/\libucosii_bsp.a(os_cpu_a.o)
                              ../web_server_bsp/\libucosii_bsp.a(os_core.o) (OSIntCtxSw)
../web_server_bsp/\libucosii_bsp.a(os_cpu_c.o)
                              ../web_server_bsp/\libucosii_bsp.a(os_task.o) (OSTaskStkInit)
../web_server_bsp/\libucosii_bsp.a(altera_avalon_cfi_flash_amd.o)
                              ../web_server_bsp/\libucosii_bsp.a(altera_avalon_cfi_flash_table.o) (alt_program_amd)
../web_server_bsp/\libucosii_bsp.a(altera_avalon_cfi_flash_intel.o)
                              ../web_server_bsp/\libucosii_bsp.a(altera_avalon_cfi_flash_table.o) (alt_program_intel)
../web_server_bsp/\libucosii_bsp.a(allports.o)
                              ../web_server_bsp/\libucosii_bsp.a(dhcpclnt.o) (name)
../web_server_bsp/\libucosii_bsp.a(timeouts.o)
                              ../web_server_bsp/\libucosii_bsp.a(netmain.o) (inet_timer)
../web_server_bsp/\libucosii_bsp.a(tk_misc.o)
                              ../web_server_bsp/\libucosii_bsp.a(netmain.o) (create_apptasks)
../web_server_bsp/\libucosii_bsp.a(alt_iniche_fcntl.o)
                              ../web_server_bsp/\libucosii_bsp.a(brdutils.o) (fcntl)
../web_server_bsp/\libucosii_bsp.a(et_arp.o)
                              ../web_server_bsp/\libucosii_bsp.a(ipstart.o) (etainit)
../web_server_bsp/\libucosii_bsp.a(iface.o)
                              ../web_server_bsp/\libucosii_bsp.a(ipnet.o) (netlist)
../web_server_bsp/\libucosii_bsp.a(ip.o)
                              ../web_server_bsp/\libucosii_bsp.a(ipstart.o) (ip_init)
../web_server_bsp/\libucosii_bsp.a(ip_reasm.o)
                              ../web_server_bsp/\libucosii_bsp.a(timeouts.o) (ire_cticks)
../web_server_bsp/\libucosii_bsp.a(ipdemux.o)
                              ../web_server_bsp/\libucosii_bsp.a(ipnet.o) (ip_rcv)
../web_server_bsp/\libucosii_bsp.a(ipmc.o)
                              ../web_server_bsp/\libucosii_bsp.a(ipstart.o) (in_addmulti)
../web_server_bsp/\libucosii_bsp.a(ipport.o)
                              ../web_server_bsp/\libucosii_bsp.a(targnios.o) (port_prep)
../web_server_bsp/\libucosii_bsp.a(ipraw.o)
                              ../web_server_bsp/\libucosii_bsp.a(rawsock.o) (ipraw_eps)
../web_server_bsp/\libucosii_bsp.a(iproute.o)
                              ../web_server_bsp/\libucosii_bsp.a(ip.o) (cachedRoute)
../web_server_bsp/\libucosii_bsp.a(udp.o)
                              ../web_server_bsp/\libucosii_bsp.a(ipdemux.o) (udpdemux)
../web_server_bsp/\libucosii_bsp.a(igmp.o)
                              ../web_server_bsp/\libucosii_bsp.a(igmp_cmn.o) (igmpv1_input)
../web_server_bsp/\libucosii_bsp.a(igmp2.o)
                              ../web_server_bsp/\libucosii_bsp.a(igmp_cmn.o) (igmpv2_input)
../web_server_bsp/\libucosii_bsp.a(ipopt.o)
                              ../web_server_bsp/\libucosii_bsp.a(socket.o) (ip_setmoptions)
../web_server_bsp/\libucosii_bsp.a(u_mctest.o)
                              ../web_server_bsp/\libucosii_bsp.a(allports.o) (u_mctest_init)
../web_server_bsp/\libucosii_bsp.a(dhcsetup.o)
                              ../web_server_bsp/\libucosii_bsp.a(allports.o) (dhc_setup)
../web_server_bsp/\libucosii_bsp.a(memdev.o)
                              ../web_server_bsp/\libucosii_bsp.a(allports.o) (init_memdev)
../web_server_bsp/\libucosii_bsp.a(parseip.o)
                              ../web_server_bsp/\libucosii_bsp.a(u_mctest.o) (inet_addr)
../web_server_bsp/\libucosii_bsp.a(tcpcksum.o)
                              ../web_server_bsp/\libucosii_bsp.a(nptcp.o) (tcp_cksum)
../web_server_bsp/\libucosii_bsp.a(in_pcb.o)
                              ../web_server_bsp/\libucosii_bsp.a(tcp_usr.o) (in_pcballoc)
../web_server_bsp/\libucosii_bsp.a(vfsfiles.o)
                              ../web_server_bsp/\libucosii_bsp.a(memdev.o) (vfsystems)
../web_server_bsp/\libucosii_bsp.a(vfsport.o)
                              ../web_server_bsp/\libucosii_bsp.a(allports.o) (prep_vfs)
../web_server_bsp/\libucosii_bsp.a(alt_exception_entry.o)
                              ../web_server_bsp/\libucosii_bsp.a(alt_irq_entry.o) (alt_exception)
../web_server_bsp/\libucosii_bsp.a(alt_fcntl.o)
                              ../web_server_bsp/\libucosii_bsp.a(alt_iniche_fcntl.o) (alt_fcntl)
../web_server_bsp/\libucosii_bsp.a(alt_icache_flush.o)
                              ../web_server_bsp/\libucosii_bsp.a(alt_icache_flush_all.o) (alt_icache_flush)
../web_server_bsp/\libucosii_bsp.a(icmp.o)
                              ../web_server_bsp/\libucosii_bsp.a(ipdemux.o) (icmprcv)
c:/altera/12.0/nios2eds/bin/gnu/h-i686-mingw32/bin/../lib/gcc/nios2-elf/4.1.2/../../../../nios2-elf/lib\libc.a(lib_a-atexit.o)
                              ../web_server_bsp/\libucosii_bsp.a(alt_main.o) (atexit)
c:/altera/12.0/nios2eds/bin/gnu/h-i686-mingw32/bin/../lib/gcc/nios2-elf/4.1.2/../../../../nios2-elf/lib\libc.a(lib_a-calloc.o)
                              ../web_server_bsp/\libucosii_bsp.a(targnios.o) (calloc)
c:/altera/12.0/nios2eds/bin/gnu/h-i686-mingw32/bin/../lib/gcc/nios2-elf/4.1.2/../../../../nios2-elf/lib\libc.a(lib_a-exit.o)
                              ../web_server_bsp/\libucosii_bsp.a(alt_main.o) (exit)
c:/altera/12.0/nios2eds/bin/gnu/h-i686-mingw32/bin/../lib/gcc/nios2-elf/4.1.2/../../../../nios2-elf/lib\libc.a(lib_a-malloc.o)
                              ../web_server_bsp/\libucosii_bsp.a(targnios.o) (free)
c:/altera/12.0/nios2eds/bin/gnu/h-i686-mingw32/bin/../lib/gcc/nios2-elf/4.1.2/../../../../nios2-elf/lib\libc.a(lib_a-vprintf.o)
                              ../web_server_bsp/\libucosii_bsp.a(in_utils.o) (vprintf)
c:/altera/12.0/nios2eds/bin/gnu/h-i686-mingw32/bin/../lib/gcc/nios2-elf/4.1.2/../../../../nios2-elf/lib\libc.a(lib_a-vsprintf.o)
                              ../web_server_bsp/\libucosii_bsp.a(in_utils.o) (vsprintf)
c:/altera/12.0/nios2eds/bin/gnu/h-i686-mingw32/bin/../lib/gcc/nios2-elf/4.1.2/../../../../nios2-elf/lib\libc.a(lib_a-__atexit.o)
                              c:/altera/12.0/nios2eds/bin/gnu/h-i686-mingw32/bin/../lib/gcc/nios2-elf/4.1.2/../../../../nios2-elf/lib\libc.a(lib_a-atexit.o) (__register_exitproc)
c:/altera/12.0/nios2eds/bin/gnu/h-i686-mingw32/bin/../lib/gcc/nios2-elf/4.1.2/../../../../nios2-elf/lib\libc.a(lib_a-__call_atexit.o)
                              c:/altera/12.0/nios2eds/bin/gnu/h-i686-mingw32/bin/../lib/gcc/nios2-elf/4.1.2/../../../../nios2-elf/lib\libc.a(lib_a-exit.o) (__call_exitprocs)
../web_server_bsp/\libucosii_bsp.a(alt_exit.o)
                              c:/altera/12.0/nios2eds/bin/gnu/h-i686-mingw32/bin/../lib/gcc/nios2-elf/4.1.2/../../../../nios2-elf/lib\libc.a(lib_a-exit.o) (_exit)

Allocating common symbols
Common symbol       size              file

soq                 0x14              ../web_server_bsp/\libucosii_bsp.a(nptcp.o)
upload_buf          0x5b8d88          obj/default/http.o
alt_irq             0x100             ../web_server_bsp/\libucosii_bsp.a(alt_irq_handler.o)
tcp_optionbuf       0x4               ../web_server_bsp/\libucosii_bsp.a(tcp_out.o)
last_flash_sector_offset
                    0x4               obj/default/network_utilities.o
rt_mib              0x4               ../web_server_bsp/\libucosii_bsp.a(ip.o)
so_evtmap_create    0x4               ../web_server_bsp/\libucosii_bsp.a(ipport.o)
board_funcs         0x3e              obj/default/http.o
OSLockNesting       0x1               ../web_server_bsp/\libucosii_bsp.a(os_core.o)
tcb                 0x2c              ../web_server_bsp/\libucosii_bsp.a(tcp_subr.o)
OSRunning           0x1               ../web_server_bsp/\libucosii_bsp.a(os_core.o)
dhc_states          0xf0              ../web_server_bsp/\libucosii_bsp.a(dhcpclnt.o)
tcpstat             0xe0              ../web_server_bsp/\libucosii_bsp.a(tcp_subr.o)
segnum              0x1               obj/default/http.o
OSIdleCtr           0x4               ../web_server_bsp/\libucosii_bsp.a(os_core.o)
udp_mib             0x10              ../web_server_bsp/\libucosii_bsp.a(udp.o)
to_netmain          0x1               ../web_server_bsp/\libucosii_bsp.a(netmain.o)
OSPrioHighRdy       0x1               ../web_server_bsp/\libucosii_bsp.a(os_core.o)
errno               0x4               c:/altera/12.0/nios2eds/bin/gnu/h-i686-mingw32/bin/../lib/gcc/nios2-elf/4.1.2/../../../../nios2-elf/lib\libc.a(lib_a-int_errno.o)
lilfreeq            0x14              ../web_server_bsp/\libucosii_bsp.a(pktalloc.o)
icmp_mib            0x68              ../web_server_bsp/\libucosii_bsp.a(icmp.o)
pmac_groups         0x10              ../web_server_bsp/\libucosii_bsp.a(altera_avalon_tse.o)
lednum              0x2               obj/default/http.o
resid_semaphore     0x40              ../web_server_bsp/\libucosii_bsp.a(targnios.o)
alt_heapsem         0x4               ../web_server_bsp/\libucosii_bsp.a(alt_malloc_lock.o)
OSFlagTbl           0x370             ../web_server_bsp/\libucosii_bsp.a(os_core.o)
mbstat              0x8               ../web_server_bsp/\libucosii_bsp.a(nptcp.o)
netq_intmask        0x4               ../web_server_bsp/\libucosii_bsp.a(osportco.o)
select_wait         0x2               ../web_server_bsp/\libucosii_bsp.a(nptcp.o)
tse_iniche_dev_driver_data
                    0x30              ../web_server_bsp/\libucosii_bsp.a(ins_tse_mac.o)
tcpmib              0x3c              ../web_server_bsp/\libucosii_bsp.a(nptcp.o)
OSPrioCur           0x1               ../web_server_bsp/\libucosii_bsp.a(os_core.o)
tse                 0x130             ../web_server_bsp/\libucosii_bsp.a(ins_tse_mac.o)
mheap_sem_ptr       0x4               ../web_server_bsp/\libucosii_bsp.a(targnios.o)
netlist             0x14              ../web_server_bsp/\libucosii_bsp.a(iface.o)
mbufq               0x14              ../web_server_bsp/\libucosii_bsp.a(nptcp.o)
OSTCBList           0x4               ../web_server_bsp/\libucosii_bsp.a(os_core.o)
alt_fd_list_lock    0x4               ../web_server_bsp/\libucosii_bsp.a(alt_dev.o)
OSMemTbl            0xc30             ../web_server_bsp/\libucosii_bsp.a(os_core.o)
OSTickStepState     0x1               ../web_server_bsp/\libucosii_bsp.a(os_core.o)
SSDTaskStk          0x2000            obj/default/web_server.o
line_count          0x4               obj/default/srec_flash.o
OSTaskStatStk       0x800             ../web_server_bsp/\libucosii_bsp.a(os_core.o)
OSCtxSwCtr          0x4               ../web_server_bsp/\libucosii_bsp.a(os_core.o)
igmpstats           0x64              ../web_server_bsp/\libucosii_bsp.a(igmp_cmn.o)
ire_stats           0x18              ../web_server_bsp/\libucosii_bsp.a(ip_reasm.o)
__hexdig            0x100             c:/altera/12.0/nios2eds/bin/gnu/h-i686-mingw32/bin/../lib/gcc/nios2-elf/4.1.2/../../../../nios2-elf/lib\libc.a(lib_a-gdtoa-gethex.o)
old_mode            0x4               ../web_server_bsp/\libucosii_bsp.a(osportco.o)
vfs_dir_stale       0x4               ../web_server_bsp/\libucosii_bsp.a(vfsfiles.o)
pphy_profiles       0x10              ../web_server_bsp/\libucosii_bsp.a(altera_avalon_tse.o)
cticks_factor       0x4               ../web_server_bsp/\libucosii_bsp.a(brdutils.o)
OSIdleCtrMax        0x4               ../web_server_bsp/\libucosii_bsp.a(os_core.o)
memestats           0x10              ../web_server_bsp/\libucosii_bsp.a(pktalloc.o)
intimers            0x64              ../web_server_bsp/\libucosii_bsp.a(timeouts.o)
OSTCBFreeList       0x4               ../web_server_bsp/\libucosii_bsp.a(os_core.o)
global_TCPwakeup_setIndx
                    0x4               ../web_server_bsp/\libucosii_bsp.a(osportco.o)
rcvdq               0x14              ../web_server_bsp/\libucosii_bsp.a(ipnet.o)
http_rx_buffer      0xc000            obj/default/http.o
global_tcb_ext      0xfc              ../web_server_bsp/\libucosii_bsp.a(osportco.o)
netstatic           0x300             ../web_server_bsp/\libucosii_bsp.a(ipstart.o)
tcp_maxidle         0x4               ../web_server_bsp/\libucosii_bsp.a(tcp_timr.o)
flash_inf           0x30              obj/default/http.o
OSCPUUsage          0x1               ../web_server_bsp/\libucosii_bsp.a(os_core.o)
nets                0x10              ../web_server_bsp/\libucosii_bsp.a(ipstart.o)
pktlog              0xf0              ../web_server_bsp/\libucosii_bsp.a(pktalloc.o)
lcdDevice           0x4               obj/default/web_server.o
frag                0x104             obj/default/srec_flash.o
OSTaskCtr           0x1               ../web_server_bsp/\libucosii_bsp.a(os_core.o)
OSMemFreeList       0x4               ../web_server_bsp/\libucosii_bsp.a(os_core.o)
vfs_open_files      0x4               ../web_server_bsp/\libucosii_bsp.a(vfsfiles.o)
cticks              0x4               ../web_server_bsp/\libucosii_bsp.a(osportco.o)
to_nettick          0x1               ../web_server_bsp/\libucosii_bsp.a(netmain.o)
WSInitialTaskStk    0x2000            obj/default/web_server.o
last_flash_sector   0x4               obj/default/network_utilities.o
OSQTbl              0x1e0             ../web_server_bsp/\libucosii_bsp.a(os_core.o)
OSTCBHighRdy        0x4               ../web_server_bsp/\libucosii_bsp.a(os_core.o)
OSQFreeList         0x4               ../web_server_bsp/\libucosii_bsp.a(os_core.o)
OSRdyGrp            0x1               ../web_server_bsp/\libucosii_bsp.a(os_core.o)
ip_mib              0x50              ../web_server_bsp/\libucosii_bsp.a(ip.o)
OS_TPS              0x4               ../web_server_bsp/\libucosii_bsp.a(brdutils.o)
lcd_sem             0x4               obj/default/network_utilities.o
_atexit0            0x190             c:/altera/12.0/nios2eds/bin/gnu/h-i686-mingw32/bin/../lib/gcc/nios2-elf/4.1.2/../../../../nios2-elf/lib\libc.a(lib_a-atexit.o)
current_flash_block
                    0x4               obj/default/srec_flash.o
OSRdyTbl            0x3               ../web_server_bsp/\libucosii_bsp.a(os_core.o)
igmp_all_hosts_group
                    0x4               ../web_server_bsp/\libucosii_bsp.a(igmp_cmn.o)
LEDTaskStk          0x2000            obj/default/web_server.o
eth_prt_buf         0x12              ../web_server_bsp/\libucosii_bsp.a(in_utils.o)
app_semaphore       0x18              ../web_server_bsp/\libucosii_bsp.a(targnios.o)
tse_mac_if          0xe0              ../web_server_bsp/\libucosii_bsp.a(alt_sys_init.o)
rcvdq_sem_ptr       0x4               ../web_server_bsp/\libucosii_bsp.a(targnios.o)
OSEventFreeList     0x4               ../web_server_bsp/\libucosii_bsp.a(os_core.o)
http_tx_buffer      0xc000            obj/default/http.o
mfreeq              0x14              ../web_server_bsp/\libucosii_bsp.a(nptcp.o)
global_TCPwakeup_set
                    0xf0              ../web_server_bsp/\libucosii_bsp.a(osportco.o)
bigfreeq            0x14              ../web_server_bsp/\libucosii_bsp.a(pktalloc.o)
so_evtmap_delete    0x4               ../web_server_bsp/\libucosii_bsp.a(ipport.o)
tcp_saveti          0x28              ../web_server_bsp/\libucosii_bsp.a(tcp_in.o)
OSIntNesting        0x1               ../web_server_bsp/\libucosii_bsp.a(os_core.o)
so_evtmap           0x1               ../web_server_bsp/\libucosii_bsp.a(ipport.o)
board_control_mbox  0x4               obj/default/web_server.o
to_wstask           0x1               obj/default/web_server.o
OSTCBCur            0x4               ../web_server_bsp/\libucosii_bsp.a(os_core.o)
arp_table           0x100             ../web_server_bsp/\libucosii_bsp.a(et_arp.o)
tcp_iss             0x4               ../web_server_bsp/\libucosii_bsp.a(tcp_timr.o)
vfs_total_rw_space  0x4               ../web_server_bsp/\libucosii_bsp.a(vfsfiles.o)
OSTime              0x4               ../web_server_bsp/\libucosii_bsp.a(os_core.o)
OSTaskIdleStk       0x800             ../web_server_bsp/\libucosii_bsp.a(os_core.o)
OSEventTbl          0xb40             ../web_server_bsp/\libucosii_bsp.a(os_core.o)
vfs_total_dyna_files
                    0x4               ../web_server_bsp/\libucosii_bsp.a(vfsfiles.o)
OSTCBTbl            0x510             ../web_server_bsp/\libucosii_bsp.a(os_core.o)
ipreturn            0x12              ../web_server_bsp/\libucosii_bsp.a(in_utils.o)
OSFlagFreeList      0x4               ../web_server_bsp/\libucosii_bsp.a(os_core.o)
dropline            0x4               ../web_server_bsp/\libucosii_bsp.a(tcp_in.o)
OSStatRdy           0x1               ../web_server_bsp/\libucosii_bsp.a(os_core.o)
OSTCBPrioTbl        0x54              ../web_server_bsp/\libucosii_bsp.a(os_core.o)
igmp_all_rtrs_group
                    0x4               ../web_server_bsp/\libucosii_bsp.a(igmp_cmn.o)
BCTaskStk           0x2000            obj/default/web_server.o
alt_envsem          0x4               ../web_server_bsp/\libucosii_bsp.a(alt_env_lock.o)
OSIdleCtrRun        0x4               ../web_server_bsp/\libucosii_bsp.a(os_core.o)

Memory Configuration

Name             Origin             Length             Attributes
reset            0x00000000         0x00000020
sdram            0x00000020         0x07ffffe0
sram             0x08000000         0x00200000
onchip_memory2   0x08200000         0x00020000
descriptor_memory 0x08220000         0x00001000
cfi_flash        0x09000000         0x00800000
*default*        0x00000000         0xffffffff

Linker script and memory map

LOAD ../web_server_bsp//obj/HAL/src/crt0.o
LOAD obj/default/alt_error_handler.o
LOAD obj/default/http.o
LOAD obj/default/network_utilities.o
LOAD obj/default/srec_flash.o
LOAD obj/default/tse_my_system.o
LOAD obj/default/web_server.o
LOAD c:/altera/12.0/nios2eds/bin/gnu/h-i686-mingw32/bin/../lib/gcc/nios2-elf/4.1.2/../../../../nios2-elf/lib\libstdc++.a
LOAD c:/altera/12.0/nios2eds/bin/gnu/h-i686-mingw32/bin/../lib/gcc/nios2-elf/4.1.2/../../../../nios2-elf/lib\libm.a
LOAD c:/altera/12.0/nios2eds/bin/gnu/h-i686-mingw32/bin/../lib/gcc/nios2-elf/4.1.2\libgcc.a
START GROUP
LOAD c:/altera/12.0/nios2eds/bin/gnu/h-i686-mingw32/bin/../lib/gcc/nios2-elf/4.1.2/../../../../nios2-elf/lib\libc.a
LOAD c:/altera/12.0/nios2eds/bin/gnu/h-i686-mingw32/bin/../lib/gcc/nios2-elf/4.1.2\libgcc.a
LOAD ../web_server_bsp/\libucosii_bsp.a
END GROUP
LOAD c:/altera/12.0/nios2eds/bin/gnu/h-i686-mingw32/bin/../lib/gcc/nios2-elf/4.1.2\libgcc.a
                0x00000000                __alt_mem_sdram = 0x0
                0x08000000                __alt_mem_sram = 0x8000000
                0x08200000                __alt_mem_onchip_memory2 = 0x8200000
                0x08220000                __alt_mem_descriptor_memory = 0x8220000
                0x09000000                __alt_mem_cfi_flash = 0x9000000

.entry          0x00000000       0x20
 *(.entry)
 .entry         0x00000000       0x20 ../web_server_bsp//obj/HAL/src/crt0.o
                0x00000000                __reset

.exceptions     0x00000020      0x19c
                0x00000020                PROVIDE (__ram_exceptions_start, ABSOLUTE (.))
                0x00000020                . = ALIGN (0x20)
 *(.irq)
 *(.exceptions.entry.label)
 .exceptions.entry.label
                0x00000020        0x0 ../web_server_bsp/\libucosii_bsp.a(alt_irq_entry.o)
                0x00000020                alt_irq_entry
 .exceptions.entry.label
                0x00000020        0x0 ../web_server_bsp/\libucosii_bsp.a(alt_exception_entry.o)
                0x00000020                alt_exception
 *(.exceptions.entry.user)
 *(.exceptions.entry)
 .exceptions.entry
                0x00000020       0x54 ../web_server_bsp/\libucosii_bsp.a(alt_exception_entry.o)
 *(.exceptions.irqtest.user)
 *(.exceptions.irqtest)
 .exceptions.irqtest
                0x00000074       0x10 ../web_server_bsp/\libucosii_bsp.a(alt_irq_entry.o)
 *(.exceptions.irqhandler.user)
 *(.exceptions.irqhandler)
 .exceptions.irqhandler
                0x00000084        0x4 ../web_server_bsp/\libucosii_bsp.a(alt_irq_entry.o)
 *(.exceptions.irqreturn.user)
 *(.exceptions.irqreturn)
 .exceptions.irqreturn
                0x00000088        0x4 ../web_server_bsp/\libucosii_bsp.a(alt_irq_entry.o)
 *(.exceptions.notirq.label)
 .exceptions.notirq.label
                0x0000008c        0x0 ../web_server_bsp/\libucosii_bsp.a(alt_irq_entry.o)
 *(.exceptions.notirq.user)
 *(.exceptions.notirq)
 .exceptions.notirq
                0x0000008c        0x8 ../web_server_bsp/\libucosii_bsp.a(alt_exception_entry.o)
 *(.exceptions.soft.user)
 *(.exceptions.soft)
 *(.exceptions.unknown.user)
 *(.exceptions.unknown)
 .exceptions.unknown
                0x00000094        0x4 ../web_server_bsp/\libucosii_bsp.a(alt_exception_entry.o)
 *(.exceptions.exit.label)
 .exceptions.exit.label
                0x00000098        0x0 ../web_server_bsp/\libucosii_bsp.a(alt_irq_entry.o)
 .exceptions.exit.label
                0x00000098        0x0 ../web_server_bsp/\libucosii_bsp.a(alt_exception_entry.o)
 *(.exceptions.exit.user)
 *(.exceptions.exit)
 .exceptions.exit
                0x00000098       0x54 ../web_server_bsp/\libucosii_bsp.a(alt_exception_entry.o)
 *(.exceptions)
 .exceptions    0x000000ec       0xd0 ../web_server_bsp/\libucosii_bsp.a(alt_irq_handler.o)
                0x000000ec                alt_irq_handler
                0x000001bc                PROVIDE (__ram_exceptions_end, ABSOLUTE (.))
                0x00000020                PROVIDE (__flash_exceptions_start, LOADADDR (.exceptions))

.text           0x000001bc    0x5568c
                0x000001bc                PROVIDE (stext, ABSOLUTE (.))
 *(.interp)
 *(.hash)
 *(.dynsym)
 *(.dynstr)
 *(.gnu.version)
 *(.gnu.version_d)
 *(.gnu.version_r)
 *(.rel.init)
 *(.rela.init)
 *(.rel.text .rel.text.* .rel.gnu.linkonce.t.*)
 *(.rela.text .rela.text.* .rela.gnu.linkonce.t.*)
 *(.rel.fini)
 *(.rela.fini)
 *(.rel.rodata .rel.rodata.* .rel.gnu.linkonce.r.*)
 *(.rela.rodata .rela.rodata.* .rela.gnu.linkonce.r.*)
 *(.rel.data .rel.data.* .rel.gnu.linkonce.d.*)
 *(.rela.data .rela.data.* .rela.gnu.linkonce.d.*)
 *(.rel.tdata .rel.tdata.* .rel.gnu.linkonce.td.*)
 *(.rela.tdata .rela.tdata.* .rela.gnu.linkonce.td.*)
 *(.rel.tbss .rel.tbss.* .rel.gnu.linkonce.tb.*)
 *(.rela.tbss .rela.tbss.* .rela.gnu.linkonce.tb.*)
 *(.rel.ctors)
 *(.rela.ctors)
 *(.rel.dtors)
 *(.rela.dtors)
 *(.rel.got)
 *(.rela.got)
 *(.rel.sdata .rel.sdata.* .rel.gnu.linkonce.s.*)
 *(.rela.sdata .rela.sdata.* .rela.gnu.linkonce.s.*)
 *(.rel.sbss .rel.sbss.* .rel.gnu.linkonce.sb.*)
 *(.rela.sbss .rela.sbss.* .rela.gnu.linkonce.sb.*)
 *(.rel.sdata2 .rel.sdata2.* .rel.gnu.linkonce.s2.*)
 *(.rela.sdata2 .rela.sdata2.* .rela.gnu.linkonce.s2.*)
 *(.rel.sbss2 .rel.sbss2.* .rel.gnu.linkonce.sb2.*)
 *(.rela.sbss2 .rela.sbss2.* .rela.gnu.linkonce.sb2.*)
 *(.rel.bss .rel.bss.* .rel.gnu.linkonce.b.*)
 *(.rela.bss .rela.bss.* .rela.gnu.linkonce.b.*)
 *(.rel.plt)
 *(.rela.plt)
 *(.rel.dyn)
 *(.init)
 *(.plt)
 *(.text .stub .text.* .gnu.linkonce.t.*)
 .text          0x000001bc       0x4c ../web_server_bsp//obj/HAL/src/crt0.o
                0x000001bc                _start
 .text          0x00000208      0x624 obj/default/alt_error_handler.o
                0x00000208                alt_uCOSIIErrorHandler
 .text          0x0000082c     0x2c5c obj/default/http.o
                0x0000082c                print
                0x0000085c                sweep1
                0x00000a58                http_cleanup_seg_num
                0x00000ae4                sweep2
                0x00000bd0                http_cleanup_lcd_text
                0x00000c4c                lcd_output
                0x00000d18                http_parse_multipart_header
                0x00000fa8                file_upload
                0x00001228                ProgFlashStub
                0x00001278                http_reset_connection
                0x00001368                http_manage_connection
                0x00001514                http_handle_accept
                0x0000163c                http_read_line
                0x000016e8                http_parse_type_boundary
                0x000017e0                http_process_headers
                0x00001a24                http_process_request
                0x00001d04                http_send_file_chunk
                0x00001eb0                http_send_file_header
                0x000025f4                http_find_file
                0x000028e4                http_send_redirect
                0x00002918                http_handle_post
                0x00002cb4                http_prepare_response
                0x00002d28                http_handle_receive
                0x000030f0                http_handle_transmit
                0x00003150                WSTask
 .text          0x00003488      0x72c obj/default/network_utilities.o
                0x00003488                die_with_error
                0x000034b8                generate_and_store_mac_addr
                0x0000382c                get_board_mac_addr
                0x000039d0                get_mac_addr
                0x00003a04                get_ip_addr
                0x00003a70                FindLastFlashSectorOffset
 .text          0x00003bb4      0x7f8 obj/default/srec_flash.o
                0x00003bb4                ProgFlash
                0x00003e58                ParseAndProgramLine
                0x00004114                ParseSRECBuf
 .text          0x000043ac        0x0 obj/default/tse_my_system.o
 .text          0x000043ac      0x8d4 obj/default/web_server.o
                0x000043ac                lcd_ip_addr
                0x00004568                WSInitialTask
                0x000045e4                main
                0x00004798                lcd_output_text
                0x00004814                board_control_task
                0x000048c8                LED_task
                0x00004910                SSD_task
 .text          0x00004c80      0x14c c:/altera/12.0/nios2eds/bin/gnu/h-i686-mingw32/bin/../lib/gcc/nios2-elf/4.1.2\libgcc.a(lib2-divmod.o)
                0x00004cfc                __divsi3
                0x00004d5c                __modsi3
                0x00004dbc                __udivsi3
                0x00004dc4                __umodsi3
 .text          0x00004dcc       0x18 c:/altera/12.0/nios2eds/bin/gnu/h-i686-mingw32/bin/../lib/gcc/nios2-elf/4.1.2/../../../../nios2-elf/lib\libc.a(lib_a-atoi.o)
                0x00004dcc                _atoi_r
                0x00004dd8                atoi
 .text          0x00004de4        0x0 c:/altera/12.0/nios2eds/bin/gnu/h-i686-mingw32/bin/../lib/gcc/nios2-elf/4.1.2/../../../../nios2-elf/lib\libc.a(lib_a-ctype_.o)
 .text          0x00004de4      0x124 c:/altera/12.0/nios2eds/bin/gnu/h-i686-mingw32/bin/../lib/gcc/nios2-elf/4.1.2/../../../../nios2-elf/lib\libc.a(lib_a-fclose.o)
                0x00004de4                _fclose_r
                0x00004ef4                fclose
 .text          0x00004f08      0x230 c:/altera/12.0/nios2eds/bin/gnu/h-i686-mingw32/bin/../lib/gcc/nios2-elf/4.1.2/../../../../nios2-elf/lib\libc.a(lib_a-fflush.o)
                0x00004f08                _fflush_r
                0x00005104                fflush
 .text          0x00005138       0x48 c:/altera/12.0/nios2eds/bin/gnu/h-i686-mingw32/bin/../lib/gcc/nios2-elf/4.1.2/../../../../nios2-elf/lib\libc.a(lib_a-fgetpos.o)
                0x00005138                _fgetpos_r
                0x00005164                fgetpos
 .text          0x00005180      0x2c0 c:/altera/12.0/nios2eds/bin/gnu/h-i686-mingw32/bin/../lib/gcc/nios2-elf/4.1.2/../../../../nios2-elf/lib\libc.a(lib_a-findfp.o)
                0x000051d8                __sfp_lock_acquire
                0x000051dc                __sfp_lock_release
                0x000051e0                __sinit_lock_acquire
                0x000051e4                __sinit_lock_release
                0x000051e8                __sinit
                0x0000529c                __fp_unlock_all
                0x000052b4                __fp_lock_all
                0x000052cc                _cleanup_r
                0x000052d8                _cleanup
                0x000052e8                __sfmoreglue
                0x00005350                __sfp
 .text          0x00005440      0x110 c:/altera/12.0/nios2eds/bin/gnu/h-i686-mingw32/bin/../lib/gcc/nios2-elf/4.1.2/../../../../nios2-elf/lib\libc.a(lib_a-fopen.o)
                0x00005440                _fopen_r
                0x00005534                fopen
 .text          0x00005550       0x60 c:/altera/12.0/nios2eds/bin/gnu/h-i686-mingw32/bin/../lib/gcc/nios2-elf/4.1.2/../../../../nios2-elf/lib\libc.a(lib_a-fprintf.o)
                0x00005550                fprintf
                0x0000557c                _fprintf_r
 .text          0x000055b0      0x23c c:/altera/12.0/nios2eds/bin/gnu/h-i686-mingw32/bin/../lib/gcc/nios2-elf/4.1.2/../../../../nios2-elf/lib\libc.a(lib_a-fread.o)
                0x000055b0                _fread_r
                0x000057ac                fread
 .text          0x000057ec      0x440 c:/altera/12.0/nios2eds/bin/gnu/h-i686-mingw32/bin/../lib/gcc/nios2-elf/4.1.2/../../../../nios2-elf/lib\libc.a(lib_a-freer.o)
                0x000057ec                _malloc_trim_r
                0x00005918                _free_r
 .text          0x00005c2c      0x460 c:/altera/12.0/nios2eds/bin/gnu/h-i686-mingw32/bin/../lib/gcc/nios2-elf/4.1.2/../../../../nios2-elf/lib\libc.a(lib_a-fseek.o)
                0x00005c2c                _fseek_r
                0x00006068                fseek
 .text          0x0000608c       0x74 c:/altera/12.0/nios2eds/bin/gnu/h-i686-mingw32/bin/../lib/gcc/nios2-elf/4.1.2/../../../../nios2-elf/lib\libc.a(lib_a-fstatr.o)
                0x0000608c                _fstat_r
 .text          0x00006100      0x10c c:/altera/12.0/nios2eds/bin/gnu/h-i686-mingw32/bin/../lib/gcc/nios2-elf/4.1.2/../../../../nios2-elf/lib\libc.a(lib_a-ftell.o)
                0x00006100                _ftell_r
                0x000061f8                ftell
 .text          0x0000620c      0x180 c:/altera/12.0/nios2eds/bin/gnu/h-i686-mingw32/bin/../lib/gcc/nios2-elf/4.1.2/../../../../nios2-elf/lib\libc.a(lib_a-fwalk.o)
                0x0000620c                _fwalk_reent
                0x000062d4                _fwalk
 .text          0x0000638c       0xdc c:/altera/12.0/nios2eds/bin/gnu/h-i686-mingw32/bin/../lib/gcc/nios2-elf/4.1.2/../../../../nios2-elf/lib\libc.a(lib_a-fwrite.o)
                0x0000638c                _fwrite_r
                0x00006428                fwrite
 .text          0x00006468      0x128 c:/altera/12.0/nios2eds/bin/gnu/h-i686-mingw32/bin/../lib/gcc/nios2-elf/4.1.2/../../../../nios2-elf/lib\libc.a(lib_a-getc.o)
                0x00006468                getc
                0x00006500                _getc_r
 .text          0x00006590        0x0 c:/altera/12.0/nios2eds/bin/gnu/h-i686-mingw32/bin/../lib/gcc/nios2-elf/4.1.2/../../../../nios2-elf/lib\libc.a(lib_a-impure.o)
 .text          0x00006590        0x0 c:/altera/12.0/nios2eds/bin/gnu/h-i686-mingw32/bin/../lib/gcc/nios2-elf/4.1.2/../../../../nios2-elf/lib\libc.a(lib_a-int_errno.o)
 .text          0x00006590      0x194 c:/altera/12.0/nios2eds/bin/gnu/h-i686-mingw32/bin/../lib/gcc/nios2-elf/4.1.2/../../../../nios2-elf/lib\libc.a(lib_a-makebuf.o)
                0x00006590                __smakebuf_r
 .text          0x00006724      0x740 c:/altera/12.0/nios2eds/bin/gnu/h-i686-mingw32/bin/../lib/gcc/nios2-elf/4.1.2/../../../../nios2-elf/lib\libc.a(lib_a-mallocr.o)
                0x00006724                _malloc_r
 .text          0x00006e64       0xa0 c:/altera/12.0/nios2eds/bin/gnu/h-i686-mingw32/bin/../lib/gcc/nios2-elf/4.1.2/../../../../nios2-elf/lib\libc.a(lib_a-memcpy.o)
                0x00006e64                memcpy
 .text          0x00006f04       0xe0 c:/altera/12.0/nios2eds/bin/gnu/h-i686-mingw32/bin/../lib/gcc/nios2-elf/4.1.2/../../../../nios2-elf/lib\libc.a(lib_a-memmove.o)
                0x00006f04                memmove
 .text          0x00006fe4       0x98 c:/altera/12.0/nios2eds/bin/gnu/h-i686-mingw32/bin/../lib/gcc/nios2-elf/4.1.2/../../../../nios2-elf/lib\libc.a(lib_a-memset.o)
                0x00006fe4                memset
 .text          0x0000707c       0x78 c:/altera/12.0/nios2eds/bin/gnu/h-i686-mingw32/bin/../lib/gcc/nios2-elf/4.1.2/../../../../nios2-elf/lib\libc.a(lib_a-openr.o)
                0x0000707c                _open_r
 .text          0x000070f4       0x80 c:/altera/12.0/nios2eds/bin/gnu/h-i686-mingw32/bin/../lib/gcc/nios2-elf/4.1.2/../../../../nios2-elf/lib\libc.a(lib_a-perror.o)
                0x000070f4                _perror_r
                0x00007160                perror
 .text          0x00007174       0x78 c:/altera/12.0/nios2eds/bin/gnu/h-i686-mingw32/bin/../lib/gcc/nios2-elf/4.1.2/../../../../nios2-elf/lib\libc.a(lib_a-printf.o)
                0x00007174                printf
                0x000071b8                _printf_r
 .text          0x000071ec      0x1ec c:/altera/12.0/nios2eds/bin/gnu/h-i686-mingw32/bin/../lib/gcc/nios2-elf/4.1.2/../../../../nios2-elf/lib\libc.a(lib_a-putc.o)
                0x000071ec                putc
                0x000072f0                _putc_r
 .text          0x000073d8       0x24 c:/altera/12.0/nios2eds/bin/gnu/h-i686-mingw32/bin/../lib/gcc/nios2-elf/4.1.2/../../../../nios2-elf/lib\libc.a(lib_a-putchar.o)
                0x000073d8                putchar
                0x000073f4                _putchar_r
 .text          0x000073fc       0xb4 c:/altera/12.0/nios2eds/bin/gnu/h-i686-mingw32/bin/../lib/gcc/nios2-elf/4.1.2/../../../../nios2-elf/lib\libc.a(lib_a-puts.o)
                0x000073fc                _puts_r
                0x0000749c                puts
 .text          0x000074b0      0x1e0 c:/altera/12.0/nios2eds/bin/gnu/h-i686-mingw32/bin/../lib/gcc/nios2-elf/4.1.2/../../../../nios2-elf/lib\libc.a(lib_a-refill.o)
                0x000074b0                __srefill_r
 .text          0x00007690       0x60 c:/altera/12.0/nios2eds/bin/gnu/h-i686-mingw32/bin/../lib/gcc/nios2-elf/4.1.2/../../../../nios2-elf/lib\libc.a(lib_a-rget.o)
                0x00007690                __srget_r
                0x000076dc                __srget
 .text          0x000076f0       0x70 c:/altera/12.0/nios2eds/bin/gnu/h-i686-mingw32/bin/../lib/gcc/nios2-elf/4.1.2/../../../../nios2-elf/lib\libc.a(lib_a-sbrkr.o)
                0x000076f0                _sbrk_r
 .text          0x00007760       0xd4 c:/altera/12.0/nios2eds/bin/gnu/h-i686-mingw32/bin/../lib/gcc/nios2-elf/4.1.2/../../../../nios2-elf/lib\libc.a(lib_a-sprintf.o)
                0x00007760                sprintf
                0x000077d4                _sprintf_r
 .text          0x00007834      0x114 c:/altera/12.0/nios2eds/bin/gnu/h-i686-mingw32/bin/../lib/gcc/nios2-elf/4.1.2/../../../../nios2-elf/lib\libc.a(lib_a-sscanf.o)
                0x0000783c                _sscanf_r
                0x000078c4                sscanf
 .text          0x00007948      0x14c c:/altera/12.0/nios2eds/bin/gnu/h-i686-mingw32/bin/../lib/gcc/nios2-elf/4.1.2/../../../../nios2-elf/lib\libc.a(lib_a-stdio.o)
                0x00007948                __sclose
                0x00007950                __sseek
                0x000079b8                __swrite
                0x00007a34                __sread
 .text          0x00007a94       0xb0 c:/altera/12.0/nios2eds/bin/gnu/h-i686-mingw32/bin/../lib/gcc/nios2-elf/4.1.2/../../../../nios2-elf/lib\libc.a(lib_a-strcasecmp.o)
                0x00007a94                strcasecmp
 .text          0x00007b44       0x90 c:/altera/12.0/nios2eds/bin/gnu/h-i686-mingw32/bin/../lib/gcc/nios2-elf/4.1.2/../../../../nios2-elf/lib\libc.a(lib_a-strcat.o)
                0x00007b44                strcat
 .text          0x00007bd4       0xe0 c:/altera/12.0/nios2eds/bin/gnu/h-i686-mingw32/bin/../lib/gcc/nios2-elf/4.1.2/../../../../nios2-elf/lib\libc.a(lib_a-strchr.o)
                0x00007bd4                strchr
 .text          0x00007cb4       0xbc c:/altera/12.0/nios2eds/bin/gnu/h-i686-mingw32/bin/../lib/gcc/nios2-elf/4.1.2/../../../../nios2-elf/lib\libc.a(lib_a-strcmp.o)
                0x00007cb4                strcmp
 .text          0x00007d70       0x8c c:/altera/12.0/nios2eds/bin/gnu/h-i686-mingw32/bin/../lib/gcc/nios2-elf/4.1.2/../../../../nios2-elf/lib\libc.a(lib_a-strcpy.o)
                0x00007d70                strcpy
 .text          0x00007dfc      0x674 c:/altera/12.0/nios2eds/bin/gnu/h-i686-mingw32/bin/../lib/gcc/nios2-elf/4.1.2/../../../../nios2-elf/lib\libc.a(lib_a-strerror.o)
                0x00007dfc                strerror
 .text          0x00008470       0x74 c:/altera/12.0/nios2eds/bin/gnu/h-i686-mingw32/bin/../lib/gcc/nios2-elf/4.1.2/../../../../nios2-elf/lib\libc.a(lib_a-strlen.o)
                0x00008470                strlen
 .text          0x000084e4       0xf0 c:/altera/12.0/nios2eds/bin/gnu/h-i686-mingw32/bin/../lib/gcc/nios2-elf/4.1.2/../../../../nios2-elf/lib\libc.a(lib_a-strncmp.o)
                0x000084e4                strncmp
 .text          0x000085d4       0xbc c:/altera/12.0/nios2eds/bin/gnu/h-i686-mingw32/bin/../lib/gcc/nios2-elf/4.1.2/../../../../nios2-elf/lib\libc.a(lib_a-strncpy.o)
                0x000085d4                strncpy
 .text          0x00008690      0x794 c:/altera/12.0/nios2eds/bin/gnu/h-i686-mingw32/bin/../lib/gcc/nios2-elf/4.1.2/../../../../nios2-elf/lib\libc.a(lib_a-strstr.o)
                0x000087c4                strstr
 .text          0x00008e24       0x18 c:/altera/12.0/nios2eds/bin/gnu/h-i686-mingw32/bin/../lib/gcc/nios2-elf/4.1.2/../../../../nios2-elf/lib\libc.a(lib_a-strtok.o)
                0x00008e24                strtok
 .text          0x00008e3c       0xac c:/altera/12.0/nios2eds/bin/gnu/h-i686-mingw32/bin/../lib/gcc/nios2-elf/4.1.2/../../../../nios2-elf/lib\libc.a(lib_a-strtok_r.o)
                0x00008e3c                __strtok_r
                0x00008ee0                strtok_r
 .text          0x00008ee8      0x268 c:/altera/12.0/nios2eds/bin/gnu/h-i686-mingw32/bin/../lib/gcc/nios2-elf/4.1.2/../../../../nios2-elf/lib\libc.a(lib_a-strtol.o)
                0x00008ee8                _strtol_r
                0x0000912c                strtol
 .text          0x00009150        0x8 c:/altera/12.0/nios2eds/bin/gnu/h-i686-mingw32/bin/../lib/gcc/nios2-elf/4.1.2/../../../../nios2-elf/lib\libc.a(lib_a-u_strerr.o)
                0x00009150                _user_strerror
 .text          0x00009158     0x1f28 c:/altera/12.0/nios2eds/bin/gnu/h-i686-mingw32/bin/../lib/gcc/nios2-elf/4.1.2/../../../../nios2-elf/lib\libc.a(lib_a-vfprintf.o)
                0x000091b0                ___vfprintf_internal_r
                0x0000b05c                __vfprintf_internal
 .text          0x0000b080     0x1780 c:/altera/12.0/nios2eds/bin/gnu/h-i686-mingw32/bin/../lib/gcc/nios2-elf/4.1.2/../../../../nios2-elf/lib\libc.a(lib_a-vfscanf.o)
                0x0000b080                __svfscanf_r
                0x0000c700                __svfscanf
                0x0000c724                _vfscanf_r
                0x0000c78c                vfscanf
 .text          0x0000c800      0x14c c:/altera/12.0/nios2eds/bin/gnu/h-i686-mingw32/bin/../lib/gcc/nios2-elf/4.1.2/../../../../nios2-elf/lib\libc.a(lib_a-wbuf.o)
                0x0000c800                __swbuf_r
                0x0000c930                __swbuf
 .text          0x0000c94c       0x78 c:/altera/12.0/nios2eds/bin/gnu/h-i686-mingw32/bin/../lib/gcc/nios2-elf/4.1.2/../../../../nios2-elf/lib\libc.a(lib_a-writer.o)
                0x0000c94c                _write_r
 .text          0x0000c9c4      0x13c c:/altera/12.0/nios2eds/bin/gnu/h-i686-mingw32/bin/../lib/gcc/nios2-elf/4.1.2/../../../../nios2-elf/lib\libc.a(lib_a-wsetup.o)
                0x0000c9c4                __swsetup_r
 .text          0x0000cb00       0x70 c:/altera/12.0/nios2eds/bin/gnu/h-i686-mingw32/bin/../lib/gcc/nios2-elf/4.1.2/../../../../nios2-elf/lib\libc.a(lib_a-closer.o)
                0x0000cb00                _close_r
 .text          0x0000cb70     0x17cc c:/altera/12.0/nios2eds/bin/gnu/h-i686-mingw32/bin/../lib/gcc/nios2-elf/4.1.2/../../../../nios2-elf/lib\libc.a(lib_a-dtoa.o)
                0x0000cd88                _dtoa_r
 .text          0x0000e33c       0xa0 c:/altera/12.0/nios2eds/bin/gnu/h-i686-mingw32/bin/../lib/gcc/nios2-elf/4.1.2/../../../../nios2-elf/lib\libc.a(lib_a-flags.o)
                0x0000e33c                __sflags
 .text          0x0000e3dc       0xbc c:/altera/12.0/nios2eds/bin/gnu/h-i686-mingw32/bin/../lib/gcc/nios2-elf/4.1.2/../../../../nios2-elf/lib\libc.a(lib_a-fputc.o)
                0x0000e3dc                fputc
                0x0000e440                _fputc_r
 .text          0x0000e498       0x90 c:/altera/12.0/nios2eds/bin/gnu/h-i686-mingw32/bin/../lib/gcc/nios2-elf/4.1.2/../../../../nios2-elf/lib\libc.a(lib_a-fputs.o)
                0x0000e498                _fputs_r
                0x0000e50c                fputs
 .text          0x0000e528      0x49c c:/altera/12.0/nios2eds/bin/gnu/h-i686-mingw32/bin/../lib/gcc/nios2-elf/4.1.2/../../../../nios2-elf/lib\libc.a(lib_a-fvwrite.o)
                0x0000e528                __sfvwrite_r
 .text          0x0000e9c4       0x70 c:/altera/12.0/nios2eds/bin/gnu/h-i686-mingw32/bin/../lib/gcc/nios2-elf/4.1.2/../../../../nios2-elf/lib\libc.a(lib_a-isattyr.o)
                0x0000e9c4                _isatty_r
 .text          0x0000ea34       0x2c c:/altera/12.0/nios2eds/bin/gnu/h-i686-mingw32/bin/../lib/gcc/nios2-elf/4.1.2/../../../../nios2-elf/lib\libc.a(lib_a-iswspace.o)
                0x0000ea34                iswspace
 .text          0x0000ea60       0xc4 c:/altera/12.0/nios2eds/bin/gnu/h-i686-mingw32/bin/../lib/gcc/nios2-elf/4.1.2/../../../../nios2-elf/lib\libc.a(lib_a-locale.o)
                0x0000ea60                __locale_charset
                0x0000ea68                _localeconv_r
                0x0000ea74                localeconv
                0x0000ea84                _setlocale_r
                0x0000eb08                setlocale
 .text          0x0000eb24       0x78 c:/altera/12.0/nios2eds/bin/gnu/h-i686-mingw32/bin/../lib/gcc/nios2-elf/4.1.2/../../../../nios2-elf/lib\libc.a(lib_a-lseekr.o)
                0x0000eb24                _lseek_r
 .text          0x0000eb9c       0xc0 c:/altera/12.0/nios2eds/bin/gnu/h-i686-mingw32/bin/../lib/gcc/nios2-elf/4.1.2/../../../../nios2-elf/lib\libc.a(lib_a-mbrtowc.o)
                0x0000eb9c                _mbrtowc_r
                0x0000ec1c                mbrtowc
 .text          0x0000ec5c       0x40 c:/altera/12.0/nios2eds/bin/gnu/h-i686-mingw32/bin/../lib/gcc/nios2-elf/4.1.2/../../../../nios2-elf/lib\libc.a(lib_a-mbtowc_r.o)
                0x0000ec5c                _mbtowc_r
 .text          0x0000ec9c       0xe4 c:/altera/12.0/nios2eds/bin/gnu/h-i686-mingw32/bin/../lib/gcc/nios2-elf/4.1.2/../../../../nios2-elf/lib\libc.a(lib_a-memchr.o)
                0x0000ec9c                memchr
 .text          0x0000ed80       0x74 c:/altera/12.0/nios2eds/bin/gnu/h-i686-mingw32/bin/../lib/gcc/nios2-elf/4.1.2/../../../../nios2-elf/lib\libc.a(lib_a-memcmp.o)
                0x0000ed80                memcmp
 .text          0x0000edf4      0xff4 c:/altera/12.0/nios2eds/bin/gnu/h-i686-mingw32/bin/../lib/gcc/nios2-elf/4.1.2/../../../../nios2-elf/lib\libc.a(lib_a-mprec.o)
                0x0000edf4                _Bfree
                0x0000ee1c                __hi0bits
                0x0000ee8c                __lo0bits
                0x0000ef50                __mcmp
                0x0000efb0                __ulp
                0x0000f030                __b2d
                0x0000f150                __ratio
                0x0000f200                _mprec_log10
                0x0000f294                __copybits
                0x0000f2ec                __any_on
                0x0000f374                _Balloc
                0x0000f430                __d2b
                0x0000f5ac                __mdiff
                0x0000f738                __lshift
                0x0000f884                __multiply
                0x0000fa6c                __i2b
                0x0000faa8                __multadd
                0x0000fba8                __pow5mult
                0x0000fcc8                __s2b
 .text          0x0000fde8       0x78 c:/altera/12.0/nios2eds/bin/gnu/h-i686-mingw32/bin/../lib/gcc/nios2-elf/4.1.2/../../../../nios2-elf/lib\libc.a(lib_a-readr.o)
                0x0000fde8                _read_r
 .text          0x0000fe60      0x5f4 c:/altera/12.0/nios2eds/bin/gnu/h-i686-mingw32/bin/../lib/gcc/nios2-elf/4.1.2/../../../../nios2-elf/lib\libc.a(lib_a-reallocr.o)
                0x0000fe60                _realloc_r
 .text          0x00010454       0x40 c:/altera/12.0/nios2eds/bin/gnu/h-i686-mingw32/bin/../lib/gcc/nios2-elf/4.1.2/../../../../nios2-elf/lib\libc.a(lib_a-s_isinfd.o)
                0x00010454                __isinfd
 .text          0x00010494       0x30 c:/altera/12.0/nios2eds/bin/gnu/h-i686-mingw32/bin/../lib/gcc/nios2-elf/4.1.2/../../../../nios2-elf/lib\libc.a(lib_a-s_isnand.o)
                0x00010494                __isnand
 .text          0x000104c4       0xc0 c:/altera/12.0/nios2eds/bin/gnu/h-i686-mingw32/bin/../lib/gcc/nios2-elf/4.1.2/../../../../nios2-elf/lib\libc.a(lib_a-sccl.o)
                0x000104c4                __sccl
 .text          0x00010584        0x8 c:/altera/12.0/nios2eds/bin/gnu/h-i686-mingw32/bin/../lib/gcc/nios2-elf/4.1.2/../../../../nios2-elf/lib\libc.a(lib_a-sf_nan.o)
                0x00010584                nanf
 .text          0x0001058c     0x166c c:/altera/12.0/nios2eds/bin/gnu/h-i686-mingw32/bin/../lib/gcc/nios2-elf/4.1.2/../../../../nios2-elf/lib\libc.a(lib_a-strtod.o)
                0x000105d4                _strtod_r
                0x00011ab8                strtof
                0x00011bdc                strtod
 .text          0x00011bf8      0x318 c:/altera/12.0/nios2eds/bin/gnu/h-i686-mingw32/bin/../lib/gcc/nios2-elf/4.1.2/../../../../nios2-elf/lib\libc.a(lib_a-strtoll_r.o)
                0x00011bf8                _strtoll_r
 .text          0x00011f10      0x254 c:/altera/12.0/nios2eds/bin/gnu/h-i686-mingw32/bin/../lib/gcc/nios2-elf/4.1.2/../../../../nios2-elf/lib\libc.a(lib_a-strtoul.o)
                0x00011f10                _strtoul_r
                0x00012140                strtoul
 .text          0x00012164      0x2f0 c:/altera/12.0/nios2eds/bin/gnu/h-i686-mingw32/bin/../lib/gcc/nios2-elf/4.1.2/../../../../nios2-elf/lib\libc.a(lib_a-strtoull_r.o)
                0x00012164                _strtoull_r
 .text          0x00012454      0x294 c:/altera/12.0/nios2eds/bin/gnu/h-i686-mingw32/bin/../lib/gcc/nios2-elf/4.1.2/../../../../nios2-elf/lib\libc.a(lib_a-ungetc.o)
                0x00012454                __submore
                0x00012530                _ungetc_r
                0x000126cc                ungetc
 .text          0x000126e8       0xb4 c:/altera/12.0/nios2eds/bin/gnu/h-i686-mingw32/bin/../lib/gcc/nios2-elf/4.1.2/../../../../nios2-elf/lib\libc.a(lib_a-callocr.o)
                0x000126e8                _calloc_r
 .text          0x0001279c      0x8f4 c:/altera/12.0/nios2eds/bin/gnu/h-i686-mingw32/bin/../lib/gcc/nios2-elf/4.1.2/../../../../nios2-elf/lib\libc.a(lib_a-gdtoa-gethex.o)
                0x000127c0                __hexdig_init
                0x000128d8                __gethex
 .text          0x00013090      0x294 c:/altera/12.0/nios2eds/bin/gnu/h-i686-mingw32/bin/../lib/gcc/nios2-elf/4.1.2/../../../../nios2-elf/lib\libc.a(lib_a-gdtoa-hexnan.o)
                0x000130dc                __hexnan
 .text          0x00013324       0x98 c:/altera/12.0/nios2eds/bin/gnu/h-i686-mingw32/bin/../lib/gcc/nios2-elf/4.1.2\libgcc.a(_muldi3.o)
                0x00013324                __muldi3
 .text          0x000133bc       0xa4 c:/altera/12.0/nios2eds/bin/gnu/h-i686-mingw32/bin/../lib/gcc/nios2-elf/4.1.2\libgcc.a(_fixunsdfsi.o)
                0x000133bc                __fixunsdfsi
 .text          0x00013460      0x5dc c:/altera/12.0/nios2eds/bin/gnu/h-i686-mingw32/bin/../lib/gcc/nios2-elf/4.1.2\libgcc.a(_udivdi3.o)
                0x00013460                __udivdi3
 .text          0x00013a3c      0x5b0 c:/altera/12.0/nios2eds/bin/gnu/h-i686-mingw32/bin/../lib/gcc/nios2-elf/4.1.2\libgcc.a(_umoddi3.o)
                0x00013a3c                __umoddi3
 .text          0x00013fec       0x78 c:/altera/12.0/nios2eds/bin/gnu/h-i686-mingw32/bin/../lib/gcc/nios2-elf/4.1.2\libgcc.a(_ne_sf.o)
                0x00013fec                __nesf2
 .text          0x00014064       0x78 c:/altera/12.0/nios2eds/bin/gnu/h-i686-mingw32/bin/../lib/gcc/nios2-elf/4.1.2\libgcc.a(_gt_sf.o)
                0x00014064                __gtsf2
 .text          0x000140dc       0x78 c:/altera/12.0/nios2eds/bin/gnu/h-i686-mingw32/bin/../lib/gcc/nios2-elf/4.1.2\libgcc.a(_lt_sf.o)
                0x000140dc                __ltsf2
 .text          0x00014154      0x504 c:/altera/12.0/nios2eds/bin/gnu/h-i686-mingw32/bin/../lib/gcc/nios2-elf/4.1.2\libgcc.a(_addsub_df.o)
                0x00014564                __subdf3
                0x000145e4                __adddf3
 .text          0x00014658      0x3c4 c:/altera/12.0/nios2eds/bin/gnu/h-i686-mingw32/bin/../lib/gcc/nios2-elf/4.1.2\libgcc.a(_mul_df.o)
                0x00014658                __muldf3
 .text          0x00014a1c      0x258 c:/altera/12.0/nios2eds/bin/gnu/h-i686-mingw32/bin/../lib/gcc/nios2-elf/4.1.2\libgcc.a(_div_df.o)
                0x00014a1c                __divdf3
 .text          0x00014c74       0x88 c:/altera/12.0/nios2eds/bin/gnu/h-i686-mingw32/bin/../lib/gcc/nios2-elf/4.1.2\libgcc.a(_eq_df.o)
                0x00014c74                __eqdf2
 .text          0x00014cfc       0x88 c:/altera/12.0/nios2eds/bin/gnu/h-i686-mingw32/bin/../lib/gcc/nios2-elf/4.1.2\libgcc.a(_ne_df.o)
                0x00014cfc                __nedf2
 .text          0x00014d84       0x88 c:/altera/12.0/nios2eds/bin/gnu/h-i686-mingw32/bin/../lib/gcc/nios2-elf/4.1.2\libgcc.a(_gt_df.o)
                0x00014d84                __gtdf2
 .text          0x00014e0c       0x88 c:/altera/12.0/nios2eds/bin/gnu/h-i686-mingw32/bin/../lib/gcc/nios2-elf/4.1.2\libgcc.a(_ge_df.o)
                0x00014e0c                __gedf2
 .text          0x00014e94       0x88 c:/altera/12.0/nios2eds/bin/gnu/h-i686-mingw32/bin/../lib/gcc/nios2-elf/4.1.2\libgcc.a(_lt_df.o)
                0x00014e94                __ltdf2
 .text          0x00014f1c       0x88 c:/altera/12.0/nios2eds/bin/gnu/h-i686-mingw32/bin/../lib/gcc/nios2-elf/4.1.2\libgcc.a(_le_df.o)
                0x00014f1c                __ledf2
 .text          0x00014fa4       0xf8 c:/altera/12.0/nios2eds/bin/gnu/h-i686-mingw32/bin/../lib/gcc/nios2-elf/4.1.2\libgcc.a(_si_to_df.o)
                0x00014fa4                __floatsidf
 .text          0x0001509c       0xd8 c:/altera/12.0/nios2eds/bin/gnu/h-i686-mingw32/bin/../lib/gcc/nios2-elf/4.1.2\libgcc.a(_df_to_si.o)
                0x0001509c                __fixdfsi
 .text          0x00015174       0x74 c:/altera/12.0/nios2eds/bin/gnu/h-i686-mingw32/bin/../lib/gcc/nios2-elf/4.1.2\libgcc.a(_df_to_sf.o)
                0x00015174                __truncdfsf2
 .text          0x000151e8        0x0 c:/altera/12.0/nios2eds/bin/gnu/h-i686-mingw32/bin/../lib/gcc/nios2-elf/4.1.2\libgcc.a(_thenan_df.o)
 .text          0x000151e8      0x194 c:/altera/12.0/nios2eds/bin/gnu/h-i686-mingw32/bin/../lib/gcc/nios2-elf/4.1.2\libgcc.a(_usi_to_df.o)
                0x000151e8                __floatunsidf
 .text          0x0001537c        0x0 c:/altera/12.0/nios2eds/bin/gnu/h-i686-mingw32/bin/../lib/gcc/nios2-elf/4.1.2\libgcc.a(_clz.o)
 .text          0x0001537c       0x80 c:/altera/12.0/nios2eds/bin/gnu/h-i686-mingw32/bin/../lib/gcc/nios2-elf/4.1.2\libgcc.a(_clzsi2.o)
                0x0001537c                __clzsi2
 .text          0x000153fc       0xc8 c:/altera/12.0/nios2eds/bin/gnu/h-i686-mingw32/bin/../lib/gcc/nios2-elf/4.1.2\libgcc.a(_unpack_sf.o)
                0x000153fc                __unpack_f
 .text          0x000154c4       0xa8 c:/altera/12.0/nios2eds/bin/gnu/h-i686-mingw32/bin/../lib/gcc/nios2-elf/4.1.2\libgcc.a(_fpcmp_parts_sf.o)
                0x000154c4                __fpcmp_parts_f
 .text          0x0001556c       0x2c c:/altera/12.0/nios2eds/bin/gnu/h-i686-mingw32/bin/../lib/gcc/nios2-elf/4.1.2\libgcc.a(_make_sf.o)
                0x0001556c                __make_fp
 .text          0x00015598      0x314 c:/altera/12.0/nios2eds/bin/gnu/h-i686-mingw32/bin/../lib/gcc/nios2-elf/4.1.2\libgcc.a(_pack_df.o)
                0x00015598                __pack_d
 .text          0x000158ac      0x138 c:/altera/12.0/nios2eds/bin/gnu/h-i686-mingw32/bin/../lib/gcc/nios2-elf/4.1.2\libgcc.a(_unpack_df.o)
                0x000158ac                __unpack_d
 .text          0x000159e4       0xc8 c:/altera/12.0/nios2eds/bin/gnu/h-i686-mingw32/bin/../lib/gcc/nios2-elf/4.1.2\libgcc.a(_fpcmp_parts_df.o)
                0x000159e4                __fpcmp_parts_d
 .text          0x00015aac      0x160 c:/altera/12.0/nios2eds/bin/gnu/h-i686-mingw32/bin/../lib/gcc/nios2-elf/4.1.2\libgcc.a(_pack_sf.o)
                0x00015aac                __pack_f
 .text          0x00015c0c       0x78 ../web_server_bsp/\libucosii_bsp.a(alt_dcache_flush.o)
                0x00015c0c                alt_dcache_flush
 .text          0x00015c84       0xd0 ../web_server_bsp/\libucosii_bsp.a(alt_flash_dev.o)
                0x00015c84                alt_flash_open_dev
                0x00015d00                alt_flash_close_dev
 .text          0x00015d54      0x134 ../web_server_bsp/\libucosii_bsp.a(alt_fstat.o)
                0x00015d54                fstat
 .text          0x00015e88      0x120 ../web_server_bsp/\libucosii_bsp.a(alt_isatty.o)
                0x00015e88                isatty
 .text          0x00015fa8       0xec ../web_server_bsp/\libucosii_bsp.a(alt_load.o)
                0x00015fa8                alt_load
 .text          0x00016094      0x150 ../web_server_bsp/\libucosii_bsp.a(alt_lseek.o)
                0x00016094                lseek
 .text          0x000161e4       0xc8 ../web_server_bsp/\libucosii_bsp.a(alt_main.o)
                0x000161e4                alt_main
 .text          0x000162ac      0x2c4 ../web_server_bsp/\libucosii_bsp.a(alt_open.o)
                0x00016388                open
 .text          0x00016570       0x60 ../web_server_bsp/\libucosii_bsp.a(alt_release_fd.o)
                0x00016570                alt_release_fd
 .text          0x000165d0       0xbc ../web_server_bsp/\libucosii_bsp.a(alt_sbrk.o)
                0x000165d0                sbrk
 .text          0x0001668c      0x1a8 ../web_server_bsp/\libucosii_bsp.a(alt_tick.o)
                0x0001668c                alt_alarm_stop
                0x00016724                alt_tick
 .text          0x00016834      0x118 ../web_server_bsp/\libucosii_bsp.a(alt_usleep.o)
                0x00016834                usleep
 .text          0x0001694c      0x108 ../web_server_bsp/\libucosii_bsp.a(alt_env_lock.o)
                0x0001694c                __env_lock
                0x000169f8                __env_unlock
 .text          0x00016a54      0x1d8 ../web_server_bsp/\libucosii_bsp.a(alt_malloc_lock.o)
                0x00016a54                __malloc_lock
                0x00016b5c                __malloc_unlock
 .text          0x00016c2c     0x2128 ../web_server_bsp/\libucosii_bsp.a(os_core.o)
                0x00016c2c                OSEventNameGet
                0x00016d5c                OSEventNameSet
                0x00016ea0                OSEventPendMulti
                0x00017554                OSInit
                0x000175a8                OSIntEnter
                0x00017624                OSIntExit
                0x00017724                OSSchedLock
                0x000177b0                OSSchedUnlock
                0x00017894                OSStart
                0x00017904                OSStatInit
                0x000179b0                OSTimeTick
                0x00017bf0                OSVersion
                0x00017c10                OS_Dummy
                0x00017c2c                OS_EventTaskRdy
                0x00017dc0                OS_EventTaskWait
                0x00017ed0                OS_EventTaskWaitMulti
                0x00018024                OS_EventTaskRemove
                0x000180dc                OS_EventTaskRemoveMulti
                0x000181e0                OS_EventWaitListInit
                0x000185ac                OS_MemClr
                0x00018600                OS_MemCopy
                0x0001866c                OS_Sched
                0x000187b0                OS_StrCopy
                0x00018830                OS_StrLen
                0x00018888                OS_TaskIdle
                0x000188e4                OS_TaskStat
                0x000189ac                OS_TaskStatStkChk
                0x00018a74                OS_TCBInit
 .text          0x00018d54      0x18c ../web_server_bsp/\libucosii_bsp.a(os_dbg.o)
                0x00018d54                OSDebugInit
 .text          0x00018ee0     0x193c ../web_server_bsp/\libucosii_bsp.a(os_flag.o)
                0x00018ee0                OSFlagAccept
                0x00019214                OSFlagCreate
                0x00019350                OSFlagDel
                0x000195f8                OSFlagNameGet
                0x0001973c                OSFlagNameSet
                0x00019890                OSFlagPend
                0x00019ed4                OSFlagPendGetFlagsRdy
                0x00019f3c                OSFlagPost
                0x0001a2e4                OSFlagQuery
                0x0001a57c                OS_FlagInit
                0x0001a770                OS_FlagUnlink
 .text          0x0001a81c      0xc8c ../web_server_bsp/\libucosii_bsp.a(os_mbox.o)
                0x0001a81c                OSMboxAccept
                0x0001a8c0                OSMboxCreate
                0x0001a9d4                OSMboxDel
                0x0001ac74                OSMboxPend
                0x0001af3c                OSMboxPendAbort
                0x0001b0b8                OSMboxPost
                0x0001b1ec                OSMboxPostOpt
                0x0001b378                OSMboxQuery
 .text          0x0001b4a8      0x808 ../web_server_bsp/\libucosii_bsp.a(os_mem.o)
                0x0001b4a8                OSMemCreate
                0x0001b6c4                OSMemGet
                0x0001b7c8                OSMemNameGet
                0x0001b8d4                OSMemNameSet
                0x0001b9f4                OSMemPut
                0x0001bae4                OSMemQuery
                0x0001bbe0                OS_MemInit
 .text          0x0001bcb0     0x1334 ../web_server_bsp/\libucosii_bsp.a(os_q.o)
                0x0001bcb0                OSQAccept
                0x0001be04                OSQCreate
                0x0001c018                OSQDel
                0x0001c318                OSQFlush
                0x0001c3e0                OSQPend
                0x0001c700                OSQPendAbort
                0x0001c87c                OSQPost
                0x0001c9fc                OSQPostFront
                0x0001cb84                OSQPostOpt
                0x0001cdb8                OSQQuery
                0x0001cf38                OS_QInit
 .text          0x0001cfe4      0xbc8 ../web_server_bsp/\libucosii_bsp.a(os_sem.o)
                0x0001cfe4                OSSemAccept
                0x0001d0a4                OSSemCreate
                0x0001d1b8                OSSemDel
                0x0001d458                OSSemPend
                0x0001d6d4                OSSemPendAbort
                0x0001d850                OSSemPost
                0x0001d978                OSSemQuery
                0x0001daa8                OSSemSet
 .text          0x0001dbac     0x1a40 ../web_server_bsp/\libucosii_bsp.a(os_task.o)
                0x0001dbac                OSTaskChangePrio
                0x0001e120                OSTaskCreate
                0x0001e2f4                OSTaskCreateExt
                0x0001e4f4                OSTaskDel
                0x0001e900                OSTaskDelReq
                0x0001ea70                OSTaskNameGet
                0x0001ec28                OSTaskNameSet
                0x0001edec                OSTaskResume
                0x0001f004                OSTaskStkChk
                0x0001f200                OSTaskSuspend
                0x0001f42c                OSTaskQuery
                0x0001f570                OS_TaskStkClr
 .text          0x0001f5ec      0x598 ../web_server_bsp/\libucosii_bsp.a(os_time.o)
                0x0001f5ec                OSTimeDly
                0x0001f738                OSTimeDlyHMSM
                0x0001f8ac                OSTimeDlyResume
                0x0001fabc                OSTimeGet
                0x0001fb20                OSTimeSet
 .text          0x0001fb84      0x31c ../web_server_bsp/\libucosii_bsp.a(alt_sys_init.o)
                0x0001fb84                alt_irq_init
                0x0001fbb8                alt_sys_init
 .text          0x0001fea0      0x8c8 ../web_server_bsp/\libucosii_bsp.a(altera_avalon_cfi_flash.o)
                0x0001fea0                alt_flash_cfi_init
                0x0001ff74                alt_flash_cfi_write
                0x00020234                alt_flash_cfi_get_info
                0x000202c4                alt_flash_cfi_read
                0x0002032c                alt_write_value_to_flash
                0x00020490                alt_flash_program_block
 .text          0x00020768     0x1448 ../web_server_bsp/\libucosii_bsp.a(altera_avalon_cfi_flash_table.o)
                0x00020768                alt_read_query_entry_8bit
                0x000207a8                alt_read_query_entry_16bit
                0x000207ec                alt_read_query_entry_32bit
                0x00020834                alt_write_flash_command_8bit_device_8bit_mode
                0x00020870                alt_write_flash_command_16bit_device_8bit_mode
                0x000208ec                alt_write_flash_command_32bit_device_8bit_mode
                0x00020934                alt_write_flash_command_16bit_device_16bit_mode
                0x00020978                alt_write_flash_command_32bit_device_16bit_mode
                0x000209c0                alt_write_flash_command_32bit_device_32bit_mode
                0x00020a08                alt_write_native_8bit
                0x00020a3c                alt_write_native_16bit
                0x00020a70                alt_write_native_32bit
                0x00020aa0                alt_set_flash_width_func
                0x00020c80                alt_set_flash_algorithm_func
                0x00020da8                alt_read_cfi_table
                0x00021328                alt_read_cfi_width
                0x00021ad4                alt_check_primary_table
 .text          0x00021bb0      0x148 ../web_server_bsp/\libucosii_bsp.a(altera_avalon_jtag_uart_fd.o)
                0x00021bb0                altera_avalon_jtag_uart_read_fd
                0x00021c08                altera_avalon_jtag_uart_write_fd
                0x00021c60                altera_avalon_jtag_uart_close_fd
                0x00021ca8                altera_avalon_jtag_uart_ioctl_fd
 .text          0x00021cf8      0x584 ../web_server_bsp/\libucosii_bsp.a(altera_avalon_jtag_uart_init.o)
                0x00021cf8                altera_avalon_jtag_uart_init
                0x00022208                altera_avalon_jtag_uart_close
 .text          0x0002227c       0xf4 ../web_server_bsp/\libucosii_bsp.a(altera_avalon_jtag_uart_ioctl.o)
                0x0002227c                altera_avalon_jtag_uart_ioctl
 .text          0x00022370      0x2c0 ../web_server_bsp/\libucosii_bsp.a(altera_avalon_jtag_uart_read.o)
                0x00022370                altera_avalon_jtag_uart_read
 .text          0x00022630      0x2dc ../web_server_bsp/\libucosii_bsp.a(altera_avalon_jtag_uart_write.o)
                0x00022630                altera_avalon_jtag_uart_write
 .text          0x0002290c      0xf3c ../web_server_bsp/\libucosii_bsp.a(altera_avalon_lcd_16207.o)
                0x000230e0                altera_avalon_lcd_16207_write
                0x000236e4                altera_avalon_lcd_16207_init
 .text          0x00023848       0x58 ../web_server_bsp/\libucosii_bsp.a(altera_avalon_lcd_16207_fd.o)
                0x00023848                altera_avalon_lcd_16207_write_fd
 .text          0x000238a0      0xde4 ../web_server_bsp/\libucosii_bsp.a(altera_avalon_sgdma.o)
                0x000238a0                alt_avalon_sgdma_do_async_transfer
                0x000239dc                alt_avalon_sgdma_do_sync_transfer
                0x00023b00                alt_avalon_sgdma_construct_mem_to_mem_desc
                0x00023b70                alt_avalon_sgdma_construct_mem_to_mem_desc_burst
                0x00023bf0                alt_avalon_sgdma_construct_stream_to_mem_desc
                0x00023c44                alt_avalon_sgdma_construct_stream_to_mem_desc_burst
                0x00023cb4                alt_avalon_sgdma_construct_mem_to_stream_desc
                0x00023d28                alt_avalon_sgdma_construct_mem_to_stream_desc_burst
                0x00023dac                alt_avalon_sgdma_register_callback
                0x00023dfc                alt_avalon_sgdma_start
                0x00023e50                alt_avalon_sgdma_stop
                0x00023ea8                alt_avalon_sgdma_check_descriptor_status
                0x00023f18                alt_avalon_sgdma_open
                0x00023fd0                alt_avalon_sgdma_construct_descriptor
                0x00024058                alt_avalon_sgdma_enable_desc_poll
                0x000240d4                alt_avalon_sgdma_disable_desc_poll
                0x00024130                alt_avalon_sgdma_construct_descriptor_burst
                0x000245d8                alt_avalon_sgdma_init
 .text          0x00024684      0x100 ../web_server_bsp/\libucosii_bsp.a(altera_avalon_timer_sc.o)
                0x000246f4                alt_avalon_timer_sc_init
 .text          0x00024784     0x5350 ../web_server_bsp/\libucosii_bsp.a(altera_avalon_tse.o)
                0x00024784                no_printf
                0x000247b0                tse_mac_initTransInfo2
                0x00024810                tse_mac_sTxWrite
                0x00024900                tse_mac_aRxRead
                0x000249a4                tse_mac_SwReset
                0x00024a38                tse_mac_setMIImode
                0x00024a90                tse_mac_setGMIImode
                0x00024ae4                alt_tse_phy_add_profile
                0x00024cbc                alt_tse_system_add_sys
                0x000256d0                alt_tse_sys_enable_mdio_sharing
                0x00025848                alt_tse_mac_get_common_speed
                0x00025888                alt_tse_mac_set_common_speed
                0x000258d0                alt_tse_get_system_index
                0x0002594c                alt_tse_get_mac_group_index
                0x000259cc                alt_tse_get_mac_info_index
                0x00025a58                alt_tse_get_mac_info
                0x00025b38                alt_tse_mac_set_speed
                0x00025c24                alt_tse_mac_set_duplex
                0x00025cbc                getPHYSpeed
                0x00026ad4                alt_tse_phy_rd_mdio_addr
                0x00026b1c                alt_tse_phy_wr_mdio_addr
                0x00026b70                alt_tse_phy_wr_mdio_reg
                0x00026c98                alt_tse_phy_rd_mdio_reg
                0x00026d5c                alt_tse_phy_add_profile_default
                0x00026fd4                alt_tse_phy_print_profile
                0x000271c4                alt_tse_mac_group_init
                0x000278d0                alt_tse_mac_get_phy
                0x00027ce8                alt_tse_mac_associate_phy
                0x00027f20                alt_tse_phy_cfg_pcs
                0x00028040                alt_tse_phy_init
                0x00028154                alt_tse_phy_restart_an
                0x00028304                alt_tse_phy_check_link
                0x00028448                alt_tse_phy_get_cap
                0x00028988                alt_tse_phy_set_adv_1000
                0x00028b1c                alt_tse_phy_set_adv_100
                0x00028d2c                alt_tse_phy_set_adv_10
                0x00028ec4                alt_tse_phy_get_common_speed
                0x000291e0                alt_tse_phy_set_common_speed
                0x000296c4                marvell_phy_cfg
                0x0002976c                marvell_cfg_gmii
                0x00029860                marvell_cfg_sgmii
                0x00029954                marvell_cfg_rgmii
                0x00029a54                DP83848C_link_status_read
 .text          0x00029ad4       0xf8 ../web_server_bsp/\libucosii_bsp.a(altera_avalon_uart_fd.o)
                0x00029ad4                altera_avalon_uart_read_fd
                0x00029b2c                altera_avalon_uart_write_fd
                0x00029b84                altera_avalon_uart_close_fd
 .text          0x00029bcc      0x57c ../web_server_bsp/\libucosii_bsp.a(altera_avalon_uart_init.o)
                0x00029bcc                altera_avalon_uart_init
                0x0002a0e8                altera_avalon_uart_close
 .text          0x0002a148      0x310 ../web_server_bsp/\libucosii_bsp.a(altera_avalon_uart_read.o)
                0x0002a148                altera_avalon_uart_read
 .text          0x0002a458      0x2a8 ../web_server_bsp/\libucosii_bsp.a(altera_avalon_uart_write.o)
                0x0002a458                altera_avalon_uart_write
 .text          0x0002a700      0xb70 ../web_server_bsp/\libucosii_bsp.a(altera_ro_zipfs.o)
                0x0002a974                check_directory_header
                0x0002aecc                alt_ro_zipfs_open
                0x0002af64                alt_ro_zipfs_read
                0x0002b060                alt_ro_zipfs_seek
                0x0002b1a8                alt_ro_zipfs_fstat
                0x0002b218                alt_ro_zipfs_check_valid
 .text          0x0002b270     0x1778 ../web_server_bsp/\libucosii_bsp.a(ins_tse_mac.o)
                0x0002b270                triple_speed_ethernet_init
                0x0002b3cc                prep_tse_mac
                0x0002b624                tse_mac_init
                0x0002c10c                tse_mac_raw_send
                0x0002c404                tse_sgdmaRx_isr
                0x0002c4ac                tse_sgdma_read_init
                0x0002c654                tse_mac_rcv
                0x0002c8a4                tse_mac_stats
                0x0002c8e4                tse_mac_close
 .text          0x0002c9e8       0x54 ../web_server_bsp/\libucosii_bsp.a(alt_iniche_close.o)
                0x0002c9e8                close
 .text          0x0002ca3c      0x144 ../web_server_bsp/\libucosii_bsp.a(alt_iniche_dev.o)
                0x0002ca3c                iniche_devices_init
 .text          0x0002cb80       0x78 ../web_server_bsp/\libucosii_bsp.a(alt_iniche_read.o)
                0x0002cb80                read
 .text          0x0002cbf8       0x70 ../web_server_bsp/\libucosii_bsp.a(alt_iniche_write.o)
                0x0002cbf8                write
 .text          0x0002cc68      0xedc ../web_server_bsp/\libucosii_bsp.a(ipnet.o)
                0x0002cc68                Netinit
                0x0002d2b4                fixup_subnet_mask
                0x0002d414                netclose
                0x0002d4fc                pktdemux
                0x0002d8d0                c_older
                0x0002d9a0                ip2mac
 .text          0x0002db44      0x4b0 ../web_server_bsp/\libucosii_bsp.a(ipstart.o)
                0x0002db44                ip_startup
                0x0002de28                exit_hook
                0x0002de94                ip_exit
                0x0002df64                if_netnumber
 .text          0x0002dff4     0x1010 ../web_server_bsp/\libucosii_bsp.a(igmp_cmn.o)
                0x0002dff4                igmp_init
                0x0002e0a4                igmp_input
                0x0002e19c                igmp_fasttimo
                0x0002e338                igmp_send
                0x0002e5e0                igmp_joingroup
                0x0002e84c                igmp_leavegroup
                0x0002e8c8                igmp_validate
                0x0002ec24                igmp_print_stats
 .text          0x0002f004      0xb50 ../web_server_bsp/\libucosii_bsp.a(bsdsock.o)
                0x0002f004                bsd_accept
                0x0002f13c                bsd_getpeername
                0x0002f268                bsd_getsockname
                0x0002f394                bsd_i_sockoptlen
                0x0002f54c                bsd_getsockopt
                0x0002f66c                bsd_ioctl
                0x0002f770                bsd_inet_ntoa
                0x0002f7a0                bsd_recvfrom
                0x0002f900                bsd_select
                0x0002fa68                bsd_setsockopt
 .text          0x0002fb54      0x118 ../web_server_bsp/\libucosii_bsp.a(cksum.o)
                0x0002fb54                ccksum
                0x0002fc04                cksum
 .text          0x0002fc6c      0xa9c ../web_server_bsp/\libucosii_bsp.a(in_utils.o)
                0x0002fc6c                do_trap
                0x0002fc98                nextarg
                0x0002fd14                hexdump
                0x0002fe5c                print_ipad
                0x0002fed0                print_uptime
                0x0002fffc                panic
                0x00030040                print_eth
                0x000301a4                uslash
                0x00030224                ns_printf
                0x000303a8                std_out
                0x000303ec                con_page
                0x000304dc                parse_args
 .text          0x00030708      0x1c8 ../web_server_bsp/\libucosii_bsp.a(netmain.o)
                0x00030708                netmain
                0x000307fc                tk_netmain
                0x00030884                tk_nettick
 .text          0x000308d0      0x5e8 ../web_server_bsp/\libucosii_bsp.a(tk_crnos.o)
                0x000308d0                TK_OSTimeDly
                0x000308fc                TK_OSTaskResume
                0x0003096c                tcp_sleep
                0x00030b0c                tcp_wakeup
                0x00030c10                TK_OSTaskQuery
                0x00030c84                tk_yield
                0x00030cb0                tk_stats
 .text          0x00030eb8     0x2f40 ../web_server_bsp/\libucosii_bsp.a(dhcpclnt.o)
                0x00030eb8                dhc_get_srv_ipaddr
                0x00030f48                dhc_init
                0x00031004                dhc_set_callback
                0x00031048                dhc_upcall
                0x00031878                dhc_buildheader
                0x00031a94                dhc_discover
                0x00031fac                dhc_rx_offer
                0x000320b0                dhc_request
                0x00032bec                dhc_setip
                0x00032e6c                dhc_resetip
                0x00032f50                dhc_decline
                0x00033134                dhc_extract_opts
                0x000333f0                dhc_second
                0x0003398c                dhc_halt
                0x00033a14                dhc_reclaim
                0x00033be4                dhc_state_init
                0x00033c44                dhc_alldone
                0x00033cd4                dhc_ifacedone
                0x00033d48                dhc_set_state
 .text          0x00033df8       0xcc ../web_server_bsp/\libucosii_bsp.a(dhcputil.o)
                0x00033df8                find_opt
 .text          0x00033ec4      0x79c ../web_server_bsp/\libucosii_bsp.a(pktalloc.o)
                0x00033ec4                pk_init
                0x00034154                pk_alloc
                0x00034230                pk_validate
                0x000344e8                pk_free
                0x00034594                pk_get_max_intrsafe_buf_len
                0x000345b4                dump_buf_estats
 .text          0x00034660      0x288 ../web_server_bsp/\libucosii_bsp.a(q.o)
                0x00034660                getq
                0x00034728                putq
                0x000347d8                qdel
 .text          0x000348e8      0x31c ../web_server_bsp/\libucosii_bsp.a(udp_open.o)
                0x000348e8                udp_open
                0x00034b20                udp_close
 .text          0x00034c04      0x194 ../web_server_bsp/\libucosii_bsp.a(asm_cksum.o)
                0x00034c04                asm_cksum
 .text          0x00034d98      0x2a0 ../web_server_bsp/\libucosii_bsp.a(brdutils.o)
                0x00034d98                dtrap
                0x00034dc8                kbhit
                0x00034e74                getch
                0x00034ed4                clock_init
                0x00034f10                clock_c
                0x00034f2c                cticks_hook
                0x00034f98                irq_Mask
                0x00034ff4                irq_Unmask
 .text          0x00035038      0x488 ../web_server_bsp/\libucosii_bsp.a(osportco.o)
                0x00035038                LOCK_NET_RESOURCE
                0x000350f8                UNLOCK_NET_RESOURCE
                0x00035180                TK_NEWTASK
                0x00035394                wait_app_sem
                0x00035448                post_app_sem
 .text          0x000354c0      0x568 ../web_server_bsp/\libucosii_bsp.a(targnios.o)
                0x000354c0                alt_iniche_init
                0x000356dc                pre_task_setup
                0x00035750                post_task_setup
                0x00035770                prep_armintcp
                0x000357a8                calloc2
                0x000357dc                npalloc
                0x000358d0                npfree
                0x00035988                ncpalloc
                0x000359dc                ncpfree
 .text          0x00035a28     0x197c ../web_server_bsp/\libucosii_bsp.a(nptcp.o)
                0x00035a28                pffindtype
                0x00035ac8                pffindproto
                0x00035b98                m_getnbuf
                0x00035d40                m_free
                0x00035e74                m_freem
                0x00035eb8                m_copy
                0x000361dc                m_adj
                0x000363ac                mbuf_len
                0x00036404                dtom
                0x000364ac                remque
                0x0003651c                insque
                0x00036598                nptcp_init
                0x000366bc                tcp_rcv
                0x000368a8                ip_output
                0x00036ea0                in_broadcast
                0x00036ee0                np_stripoptions
                0x00036fc8                so_icmpdu
                0x00037320                tcp_tick
 .text          0x000373a4      0xa2c ../web_server_bsp/\libucosii_bsp.a(rawsock.o)
                0x000373a4                rawip_lookup
                0x00037414                rawip_soinput
                0x000375e8                rawip_usrreq
 .text          0x00037dd0     0x17fc ../web_server_bsp/\libucosii_bsp.a(sockcall.o)
                0x00037dd0                DOMAIN_CHECK
                0x00037e1c                t_socket
                0x00037eac                t_bind
                0x00038028                t_listen
                0x0003810c                t_accept
                0x000383a4                t_connect
                0x0003864c                t_getpeername
                0x00038690                t_getsockname
                0x000388d0                t_setsockopt
                0x00038aac                t_getsockopt
                0x00038c50                t_recv
                0x00038d40                t_recvfrom
                0x00038e90                t_sendto
                0x000390bc                t_send
                0x000392e4                t_shutdown
                0x000393c8                t_socketclose
                0x00039530                t_errno
 .text          0x000395cc     0x2374 ../web_server_bsp/\libucosii_bsp.a(socket.o)
                0x000395cc                socreate
                0x00039798                sobind
                0x000397f4                solisten
                0x000398e4                sofree
                0x00039a14                soclose
                0x00039d08                soabort
                0x00039d58                soaccept
                0x00039df4                soconnect
                0x00039ec8                sodisconnect
                0x00039f68                sosend
                0x0003a570                soreceive
                0x0003ad54                soshutdown
                0x0003adfc                sorflush
                0x0003aefc                sosetopt
                0x0003b3bc                sogetopt
                0x0003b8fc                sohasoutofband
 .text          0x0003b940     0x1318 ../web_server_bsp/\libucosii_bsp.a(socket2.o)
                0x0003b940                soisconnecting
                0x0003b9ac                soisconnected
                0x0003baa8                soisdisconnecting
                0x0003bb34                soisdisconnected
                0x0003bbf0                sonewconn
                0x0003be0c                soqinsque
                0x0003beb8                soqremque
                0x0003bfd8                socantsendmore
                0x0003c028                socantrcvmore
                0x0003c078                sbselqueue
                0x0003c0b0                sbwait
                0x0003c118                sbwakeup
                0x0003c1b4                soreserve
                0x0003c234                sbreserve
                0x0003c294                sbrelease
                0x0003c2dc                sbappend
                0x0003c384                sbappendrecord
                0x0003c464                sbappendaddr
                0x0003c66c                sbcompress
                0x0003c854                sbflush
                0x0003c8e4                sbdrop
                0x0003cab4                sbdropend
                0x0003cbc4                sbdroprecord
 .text          0x0003cc58      0x914 ../web_server_bsp/\libucosii_bsp.a(soselect.o)
                0x0003cc58                t_select
                0x0003ce78                sock_selscan
                0x0003cfd0                sock_select
                0x0003d1e4                in_pcbnotify
                0x0003d2b0                tcp_notify
                0x0003d318                ifd_clr
                0x0003d408                ifd_set
                0x0003d47c                ifd_isset
                0x0003d4fc                ifd_get
 .text          0x0003d56c     0x2fe8 ../web_server_bsp/\libucosii_bsp.a(tcp_in.o)
                0x0003d56c                tcp_reass
                0x0003d974                tcp_input
                0x0003fec8                tcp_dooptions
                0x00040058                tcp_pulloutofband
                0x00040184                tcp_xmit_timer
                0x000403f0                ip4_tcpmss
                0x00040438                tcp_mss
 .text          0x00040554     0x1360 ../web_server_bsp/\libucosii_bsp.a(tcp_out.o)
                0x00040554                tcp_output
                0x000416d0                tcp_setpersist
 .text          0x000418b4      0x9e8 ../web_server_bsp/\libucosii_bsp.a(tcp_subr.o)
                0x000418b4                tcp_init
                0x0004190c                tcp_template
                0x00041a24                tcp_respond
                0x00041eac                tcp_newtcpcb
                0x00041fc4                tcp_drop
                0x00042070                tcp_close
                0x00042158                tcp_quench
                0x000421a4                tcp_putseq
                0x00042224                tcp_getseq
 .text          0x0004229c      0x798 ../web_server_bsp/\libucosii_bsp.a(tcp_timr.o)
                0x0004229c                tcp_slowtimo
                0x0004253c                tcp_canceltimers
                0x00042598                tcp_timers
 .text          0x00042a34      0x9ec ../web_server_bsp/\libucosii_bsp.a(tcp_usr.o)
                0x00042a34                tcp_usrreq
                0x00043138                tcp_attach
                0x0004326c                tcp_disconnect
                0x00043340                tcp_usrclosed
 .text          0x00043420       0x4c ../web_server_bsp/\libucosii_bsp.a(tcpport.o)
                0x00043420                tcpinit
 .text          0x0004346c      0xd20 ../web_server_bsp/\libucosii_bsp.a(udpsock.o)
                0x0004346c                udp_lookup
                0x000434dc                udp_soinput
                0x00043694                udp_usrreq
                0x00043918                udp4_sockbind
                0x00043c54                udp4_socksend
                0x00044030                udp4_sockaddr
 .text          0x0004418c      0x154 ../web_server_bsp/\libucosii_bsp.a(alt_alarm_start.o)
                0x0004418c                alt_alarm_start
 .text          0x000442e0      0x14c ../web_server_bsp/\libucosii_bsp.a(alt_busy_sleep.o)
                0x000442e0                alt_busy_sleep
 .text          0x0004442c      0x15c ../web_server_bsp/\libucosii_bsp.a(alt_close.o)
                0x0004442c                alt_close
 .text          0x00044588       0x44 ../web_server_bsp/\libucosii_bsp.a(alt_dcache_flush_all.o)
                0x00044588                alt_dcache_flush_all
 .text          0x000445cc       0x2c ../web_server_bsp/\libucosii_bsp.a(alt_dev.o)
 .text          0x000445f8      0x114 ../web_server_bsp/\libucosii_bsp.a(alt_dev_llist_insert.o)
                0x000445f8                alt_dev_llist_insert
 .text          0x0004470c       0x64 ../web_server_bsp/\libucosii_bsp.a(alt_do_ctors.o)
                0x0004470c                _do_ctors
 .text          0x00044770       0x64 ../web_server_bsp/\libucosii_bsp.a(alt_do_dtors.o)
                0x00044770                _do_dtors
 .text          0x000447d4        0x0 ../web_server_bsp/\libucosii_bsp.a(alt_errno.o)
 .text          0x000447d4       0x94 ../web_server_bsp/\libucosii_bsp.a(alt_find_dev.o)
                0x000447d4                alt_find_dev
 .text          0x00044868      0x120 ../web_server_bsp/\libucosii_bsp.a(alt_find_file.o)
                0x00044868                alt_find_file
 .text          0x00044988       0x90 ../web_server_bsp/\libucosii_bsp.a(alt_fs_reg.o)
                0x00044988                alt_fs_reg
 .text          0x00044a18       0xf4 ../web_server_bsp/\libucosii_bsp.a(alt_get_fd.o)
                0x00044a18                alt_get_fd
 .text          0x00044b0c       0x30 ../web_server_bsp/\libucosii_bsp.a(alt_icache_flush_all.o)
                0x00044b0c                alt_icache_flush_all
 .text          0x00044b3c      0x1d4 ../web_server_bsp/\libucosii_bsp.a(alt_iic.o)
                0x00044b3c                alt_ic_isr_register
                0x00044b8c                alt_ic_irq_enable
                0x00044c28                alt_ic_irq_disable
                0x00044cc8                alt_ic_irq_enabled
 .text          0x00044d10       0xf8 ../web_server_bsp/\libucosii_bsp.a(alt_iic_isr_register.o)
                0x00044d10                alt_iic_isr_register
 .text          0x00044e08      0x13c ../web_server_bsp/\libucosii_bsp.a(alt_io_redirect.o)
                0x00044ecc                alt_io_redirect
 .text          0x00044f44        0x0 ../web_server_bsp/\libucosii_bsp.a(alt_irq_entry.o)
 .text          0x00044f44        0x0 ../web_server_bsp/\libucosii_bsp.a(alt_irq_handler.o)
 .text          0x00044f44        0x0 ../web_server_bsp/\libucosii_bsp.a(alt_irq_vars.o)
 .text          0x00044f44      0x180 ../web_server_bsp/\libucosii_bsp.a(alt_read.o)
                0x00044f44                alt_read
 .text          0x000450c4       0x38 ../web_server_bsp/\libucosii_bsp.a(alt_remap_cached.o)
                0x000450c4                alt_remap_cached
 .text          0x000450fc       0x40 ../web_server_bsp/\libucosii_bsp.a(alt_remap_uncached.o)
                0x000450fc                alt_remap_uncached
 .text          0x0004513c       0x64 ../web_server_bsp/\libucosii_bsp.a(alt_uncached_malloc.o)
                0x0004513c                alt_uncached_malloc
 .text          0x000451a0      0x180 ../web_server_bsp/\libucosii_bsp.a(alt_write.o)
                0x000451a0                alt_write
 .text          0x00045320       0x20 ../web_server_bsp/\libucosii_bsp.a(altera_nios2_qsys_irq.o)
                0x00045320                altera_nios2_qsys_irq_init
 .text          0x00045340       0xd0 ../web_server_bsp/\libucosii_bsp.a(os_cpu_a.o)
                0x00045340                OSCtxSw
                0x00045340                OSIntCtxSw
                0x000453cc                OSStartHighRdy
                0x000453ec                OSStartTsk
 .text          0x00045410      0x424 ../web_server_bsp/\libucosii_bsp.a(os_cpu_c.o)
                0x00045410                OSTaskStkInit
                0x00045720                OSTaskCreateHook
                0x00045740                OSTaskDelHook
                0x00045760                OSTaskSwHook
                0x0004577c                OSTaskStatHook
                0x00045798                OSTimeTickHook
                0x000457c0                OSInitHookBegin
                0x000457dc                OSInitHookEnd
                0x000457f8                OSTaskIdleHook
                0x00045814                OSTCBInitHook
 .text          0x00045834      0x460 ../web_server_bsp/\libucosii_bsp.a(altera_avalon_cfi_flash_amd.o)
                0x00045834                alt_program_amd
                0x0004589c                alt_erase_block_amd
 .text          0x00045c94      0x460 ../web_server_bsp/\libucosii_bsp.a(altera_avalon_cfi_flash_intel.o)
                0x00045c94                alt_program_intel
                0x00045d18                alt_erase_block_intel
 .text          0x000460f4      0x3d4 ../web_server_bsp/\libucosii_bsp.a(allports.o)
                0x000460f4                netmain_init
                0x000461f0                icmp_port_du
                0x00046278                station_state
                0x000463c4                sysuptime
                0x00046400                packet_check
                0x0004644c                mcastlist
                0x00046470                prep_modules
 .text          0x000464c8      0x480 ../web_server_bsp/\libucosii_bsp.a(timeouts.o)
                0x000464c8                inet_timer
                0x00046724                in_timerset
                0x000468a0                in_timerkill
 .text          0x00046948       0xa4 ../web_server_bsp/\libucosii_bsp.a(tk_misc.o)
                0x00046948                create_apptasks
                0x0004696c                task_stats
 .text          0x000469ec       0xb0 ../web_server_bsp/\libucosii_bsp.a(alt_iniche_fcntl.o)
                0x000469ec                fcntl
 .text          0x00046a9c     0x14a0 ../web_server_bsp/\libucosii_bsp.a(et_arp.o)
                0x00046a9c                etainit
                0x00046af0                et_send
                0x00046c6c                arp_free_pending
                0x00046cf4                arp_send_pending
                0x00046d68                send_arp
                0x00047200                find_oldest_arp
                0x000473a8                make_arp_entry
                0x000474bc                arpReply
                0x00047750                arprcv
                0x000479b0                send_via_arp
                0x00047b58                cb_arpent_tmo
                0x00047c70                grat_arp
 .text          0x00047f3c      0x298 ../web_server_bsp/\libucosii_bsp.a(iface.o)
                0x00047f3c                if_getbynum
                0x00047fc0                isbcast
                0x000480a0                reg_type
                0x0004813c                if_killsocks
 .text          0x000481d4     0x22a4 ../web_server_bsp/\libucosii_bsp.a(ip.o)
                0x000481d4                ip_init
                0x000482d0                ip_bldhead
                0x00048474                ip_write_internal
                0x00048bf4                ip_write
                0x00048e3c                ip_write2
                0x000491ec                ip_raw_write
                0x000492c4                ip_fragment_lc
                0x0004974c                ip_fragment
                0x00049d70                ip_mymach
                0x00049e1c                ip_dump
                0x0004a0d4                iproute
                0x0004a340                ip_copypkt
 .text          0x0004a478     0x1d9c ../web_server_bsp/\libucosii_bsp.a(ip_reasm.o)
                0x0004a478                ip_reasm_match_frag_with_ire
                0x0004a548                ip_reasm_determine_type_of_frag
                0x0004a634                ip_reasm_check_mem_useage
                0x0004a6cc                ip_reasm_incr_mem_useage
                0x0004a774                ip_reasm_decr_mem_useage
                0x0004a814                ip_reasm_process_first_fragment
                0x0004aaf4                ip_reassm
                0x0004ab94                ip_reasm_compute_overlap
                0x0004b124                ip_reasm_process_subsequent_fragments
                0x0004b6b8                ip_reasm_find_ire
                0x0004b71c                ip_reasm_copy_queued_fragments_into_reassy_buffer
                0x0004ba78                ip_reasm_process_timer_tick
                0x0004bb5c                ip_reasm_delete_ire
                0x0004bd24                ip_reasm_mark_compact_rfq
                0x0004be6c                ipr_stats
                0x0004c1c0                ip_reasm_send_icmp_timex
 .text          0x0004c214      0xe3c ../web_server_bsp/\libucosii_bsp.a(ipdemux.o)
                0x0004c214                ip_rcv
                0x0004c614                ip_rcv_phase2
                0x0004cc20                ip_demux
 .text          0x0004d050      0x2f0 ../web_server_bsp/\libucosii_bsp.a(ipmc.o)
                0x0004d050                in_addmulti
                0x0004d1b8                in_delmulti
                0x0004d2d0                lookup_mcast
 .text          0x0004d340       0xe4 ../web_server_bsp/\libucosii_bsp.a(ipport.o)
                0x0004d340                prep_ifaces
                0x0004d3d4                netexit
                0x0004d3fc                evtmap_setup
 .text          0x0004d424      0x550 ../web_server_bsp/\libucosii_bsp.a(ipraw.o)
                0x0004d424                ip_raw_open
                0x0004d514                ip_raw_close
                0x0004d5d4                ip_raw_input
                0x0004d80c                ip_raw_alloc
                0x0004d8d8                ip_raw_free
                0x0004d918                ip_raw_maxalloc
 .text          0x0004d974      0x6f0 ../web_server_bsp/\libucosii_bsp.a(iproute.o)
                0x0004d974                rt_lookup
                0x0004daf8                add_route
                0x0004df20                del_route
 .text          0x0004e064      0xe3c ../web_server_bsp/\libucosii_bsp.a(udp.o)
                0x0004e064                udpdemux
                0x0004e8bc                udp_send
                0x0004eb74                udpswap
                0x0004eca4                udp_socket
                0x0004ed74                udp_alloc
                0x0004ee34                udp_maxalloc
                0x0004ee60                udp_free
 .text          0x0004eea0      0x2e8 ../web_server_bsp/\libucosii_bsp.a(igmp.o)
                0x0004eea0                igmpv1_input
 .text          0x0004f188      0x7c0 ../web_server_bsp/\libucosii_bsp.a(igmp2.o)
                0x0004f188                igmpv2_input
                0x0004f2e8                igmpv2_process_report
                0x0004f434                igmpv2_process_query
                0x0004f680                igmpv2_chk_set_timer
                0x0004f7d8                igmpv2_chk4_rtr_alert_opt
 .text          0x0004f948      0x8fc ../web_server_bsp/\libucosii_bsp.a(ipopt.o)
                0x0004f948                IPADDR_TO_NETP
                0x0004fa90                ip_setmoptions
                0x00050080                ip_getmoptions
                0x000501c0                ip_freemoptions
 .text          0x00050244      0x6ac ../web_server_bsp/\libucosii_bsp.a(u_mctest.o)
                0x00050244                u_mctest_init
                0x00050274                u_mctest_run
 .text          0x000508f0      0x38c ../web_server_bsp/\libucosii_bsp.a(dhcsetup.o)
                0x000508f0                dhc_setup
                0x00050b78                dhc_main_ipset
 .text          0x00050c7c      0x40c ../web_server_bsp/\libucosii_bsp.a(memdev.o)
                0x00050c7c                init_memdev
                0x00050cf4                md_fopen
                0x00050d1c                md_fclose
                0x00050d3c                md_fread
                0x00050ebc                md_fwrite
                0x00050f3c                md_fseek
                0x00050f68                md_ftell
                0x00050f8c                md_fgetc
                0x00051064                md_unlink
 .text          0x00051088      0x810 ../web_server_bsp/\libucosii_bsp.a(parseip.o)
                0x00051088                parse_ipad
                0x000513a4                inet_addr
                0x0005140c                hextoa
                0x0005147c                inet_pton
                0x00051528                inet_ntop
                0x000515b4                print46_addr
                0x00051614                inet46_addr
                0x000516d8                inet_setport
                0x0005174c                convert_ip
 .text          0x00051898      0x1cc ../web_server_bsp/\libucosii_bsp.a(tcpcksum.o)
                0x00051898                tcp_cksum
 .text          0x00051a64      0x900 ../web_server_bsp/\libucosii_bsp.a(in_pcb.o)
                0x00051a64                in_pcballoc
                0x00051af8                in_pcbdetach
                0x00051b4c                in_pcbbind
                0x00051da0                in_pcbconnect
                0x00051fb0                in_pcbdisconnect
                0x00052010                in_setsockaddr
                0x0005208c                in_setpeeraddr
                0x00052108                in_pcblookup
 .text          0x00052364     0x1a74 ../web_server_bsp/\libucosii_bsp.a(vfsfiles.o)
                0x00052364                set_vfopen_error
                0x0005238c                get_vfopen_error
                0x000523ac                vf_alloc_and_link_vop
                0x00052428                vf_alloc_buffer
                0x00052500                vf_free_buffer
                0x00052550                vfopen_locked
                0x000528b8                vfopen
                0x00052908                vfclose_locked
                0x00052ab0                vfclose
                0x00052af0                vfflush
                0x00052b38                vfgets
                0x00052c1c                vfeof
                0x00052c74                vunlink_flag_open_files
                0x00052cd0                vunlink
                0x00052ef0                vfread
                0x0005309c                vfwrite_locked
                0x00053484                vfwrite
                0x000534e4                vfseek
                0x00053660                vftell
                0x00053794                vgetc_locked
                0x000538b4                vgetc
                0x000538fc                vfslookup_locked
                0x00053a34                vfslookup
                0x00053a7c                strippath
                0x00053c64                isvfile_locked
                0x00053cc8                isvfile
                0x00053d10                vferror
                0x00053d7c                vclearerr
 .text          0x00053dd8       0x24 ../web_server_bsp/\libucosii_bsp.a(vfsport.o)
                0x00053dd8                prep_vfs
 .text          0x00053dfc        0x0 ../web_server_bsp/\libucosii_bsp.a(alt_exception_entry.o)
 .text          0x00053dfc      0x1b4 ../web_server_bsp/\libucosii_bsp.a(alt_fcntl.o)
                0x00053dfc                alt_fcntl
 .text          0x00053fb0       0x90 ../web_server_bsp/\libucosii_bsp.a(alt_icache_flush.o)
                0x00053fb0                alt_icache_flush
 .text          0x00054040     0x130c ../web_server_bsp/\libucosii_bsp.a(icmp.o)
                0x00054040                icmprcv
                0x00054c74                icmp_destun
                0x00054fc4                icmp_timex
                0x000552f8                icmp_du
 .text          0x0005534c       0x14 c:/altera/12.0/nios2eds/bin/gnu/h-i686-mingw32/bin/../lib/gcc/nios2-elf/4.1.2/../../../../nios2-elf/lib\libc.a(lib_a-atexit.o)
                0x0005534c                atexit
 .text          0x00055360       0x1c c:/altera/12.0/nios2eds/bin/gnu/h-i686-mingw32/bin/../lib/gcc/nios2-elf/4.1.2/../../../../nios2-elf/lib\libc.a(lib_a-calloc.o)
                0x00055360                calloc
 .text          0x0005537c       0x38 c:/altera/12.0/nios2eds/bin/gnu/h-i686-mingw32/bin/../lib/gcc/nios2-elf/4.1.2/../../../../nios2-elf/lib\libc.a(lib_a-exit.o)
                0x0005537c                exit
 .text          0x000553b4       0x28 c:/altera/12.0/nios2eds/bin/gnu/h-i686-mingw32/bin/../lib/gcc/nios2-elf/4.1.2/../../../../nios2-elf/lib\libc.a(lib_a-malloc.o)
                0x000553b4                free
                0x000553c8                malloc
 .text          0x000553dc       0x34 c:/altera/12.0/nios2eds/bin/gnu/h-i686-mingw32/bin/../lib/gcc/nios2-elf/4.1.2/../../../../nios2-elf/lib\libc.a(lib_a-vprintf.o)
                0x000553dc                _vprintf_r
                0x000553f0                vprintf
 .text          0x00055410       0x74 c:/altera/12.0/nios2eds/bin/gnu/h-i686-mingw32/bin/../lib/gcc/nios2-elf/4.1.2/../../../../nios2-elf/lib\libc.a(lib_a-vsprintf.o)
                0x00055410                _vsprintf_r
                0x00055460                vsprintf
 .text          0x00055484      0x134 c:/altera/12.0/nios2eds/bin/gnu/h-i686-mingw32/bin/../lib/gcc/nios2-elf/4.1.2/../../../../nios2-elf/lib\libc.a(lib_a-__atexit.o)
                0x00055484                __register_exitproc
 .text          0x000555b8      0x1b4 c:/altera/12.0/nios2eds/bin/gnu/h-i686-mingw32/bin/../lib/gcc/nios2-elf/4.1.2/../../../../nios2-elf/lib\libc.a(lib_a-__call_atexit.o)
                0x000555bc                __call_exitprocs
 .text          0x0005576c       0x6c ../web_server_bsp/\libucosii_bsp.a(alt_exit.o)
                0x000557ac                _exit
 *(.gnu.warning.*)
 *(.fini)
                0x000557d8                PROVIDE (__etext, ABSOLUTE (.))
                0x000557d8                PROVIDE (_etext, ABSOLUTE (.))
                0x000557d8                PROVIDE (etext, ABSOLUTE (.))
 *(.eh_frame_hdr)
                0x000557d8                . = ALIGN (0x4)
                0x000557d8                PROVIDE (__preinit_array_start, ABSOLUTE (.))
 *(.preinit_array)
                0x000557d8                PROVIDE (__preinit_array_end, ABSOLUTE (.))
                0x000557d8                PROVIDE (__init_array_start, ABSOLUTE (.))
 *(.init_array)
                0x000557d8                PROVIDE (__init_array_end, ABSOLUTE (.))
                0x000557d8                PROVIDE (__fini_array_start, ABSOLUTE (.))
 *(.fini_array)
                0x000557d8                PROVIDE (__fini_array_end, ABSOLUTE (.))
 *(.eh_frame)
 .eh_frame      0x000557d8       0x40 c:/altera/12.0/nios2eds/bin/gnu/h-i686-mingw32/bin/../lib/gcc/nios2-elf/4.1.2\libgcc.a(_udivdi3.o)
 .eh_frame      0x00055818       0x2c c:/altera/12.0/nios2eds/bin/gnu/h-i686-mingw32/bin/../lib/gcc/nios2-elf/4.1.2\libgcc.a(_umoddi3.o)
                                 0x40 (size before relaxing)
 *(.gcc_except_table)
 *(.dynamic)
                0x00055844                PROVIDE (__CTOR_LIST__, ABSOLUTE (.))
 *(.ctors)
 *(SORT(.ctors.*))
 .ctors.65535   0x00055844        0x4 c:/altera/12.0/nios2eds/bin/gnu/h-i686-mingw32/bin/../lib/gcc/nios2-elf/4.1.2/../../../../nios2-elf/lib\libc.a(lib_a-__call_atexit.o)
                0x00055848                PROVIDE (__CTOR_END__, ABSOLUTE (.))
                0x00055848                PROVIDE (__DTOR_LIST__, ABSOLUTE (.))
 *(.dtors)
 *(SORT(.dtors.*))
                0x00055848                PROVIDE (__DTOR_END__, ABSOLUTE (.))
 *(.jcr)
                0x00055848                . = ALIGN (0x4)

.rodata         0x00055848     0x62e0
                0x00055848                PROVIDE (__ram_rodata_start, ABSOLUTE (.))
                0x00055848                . = ALIGN (0x4)
 *(.rodata .rodata.* .gnu.linkonce.r.*)
 .rodata        0x00055848      0x654 obj/default/alt_error_handler.o
 .rodata        0x00055e9c      0x888 obj/default/http.o
 .rodata        0x00056724      0x218 obj/default/network_utilities.o
 .rodata        0x0005693c      0x1ac obj/default/srec_flash.o
 .rodata        0x00056ae8       0x20 obj/default/tse_my_system.o
 .rodata        0x00056b08       0x64 obj/default/web_server.o
 .rodata        0x00056b6c      0x281 c:/altera/12.0/nios2eds/bin/gnu/h-i686-mingw32/bin/../lib/gcc/nios2-elf/4.1.2/../../../../nios2-elf/lib\libc.a(lib_a-ctype_.o)
                0x00056b6c                _ctype_
 *fill*         0x00056ded        0x3 00
 .rodata.str1.4
                0x00056df0        0x2 c:/altera/12.0/nios2eds/bin/gnu/h-i686-mingw32/bin/../lib/gcc/nios2-elf/4.1.2/../../../../nios2-elf/lib\libc.a(lib_a-impure.o)
                                  0x4 (size before relaxing)
 *fill*         0x00056df2        0x2 00
 .rodata.str1.4
                0x00056df4        0x3 c:/altera/12.0/nios2eds/bin/gnu/h-i686-mingw32/bin/../lib/gcc/nios2-elf/4.1.2/../../../../nios2-elf/lib\libc.a(lib_a-perror.o)
                                  0x4 (size before relaxing)
 *fill*         0x00056df7        0x1 00
 .rodata.str1.4
                0x00056df8        0x2 c:/altera/12.0/nios2eds/bin/gnu/h-i686-mingw32/bin/../lib/gcc/nios2-elf/4.1.2/../../../../nios2-elf/lib\libc.a(lib_a-puts.o)
                                  0x4 (size before relaxing)
 *fill*         0x00056dfa        0x2 00
 .rodata.str1.4
                0x00056dfc      0x7a2 c:/altera/12.0/nios2eds/bin/gnu/h-i686-mingw32/bin/../lib/gcc/nios2-elf/4.1.2/../../../../nios2-elf/lib\libc.a(lib_a-strerror.o)
                                0x7a8 (size before relaxing)
 *fill*         0x0005759e        0x2 00
 .rodata.str1.4
                0x000575a0       0x5e c:/altera/12.0/nios2eds/bin/gnu/h-i686-mingw32/bin/../lib/gcc/nios2-elf/4.1.2/../../../../nios2-elf/lib\libc.a(lib_a-vfprintf.o)
                                 0x60 (size before relaxing)
 .rodata        0x000575fe       0x20 c:/altera/12.0/nios2eds/bin/gnu/h-i686-mingw32/bin/../lib/gcc/nios2-elf/4.1.2/../../../../nios2-elf/lib\libc.a(lib_a-vfprintf.o)
 *fill*         0x0005761e        0x2 00
 .rodata.str1.4
                0x00057620        0x5 c:/altera/12.0/nios2eds/bin/gnu/h-i686-mingw32/bin/../lib/gcc/nios2-elf/4.1.2/../../../../nios2-elf/lib\libc.a(lib_a-vfscanf.o)
                                  0x8 (size before relaxing)
 *fill*         0x00057625        0x1 00
 .rodata        0x00057626       0x22 c:/altera/12.0/nios2eds/bin/gnu/h-i686-mingw32/bin/../lib/gcc/nios2-elf/4.1.2/../../../../nios2-elf/lib\libc.a(lib_a-vfscanf.o)
 .rodata.str1.4
                0x00057648       0x10 c:/altera/12.0/nios2eds/bin/gnu/h-i686-mingw32/bin/../lib/gcc/nios2-elf/4.1.2/../../../../nios2-elf/lib\libc.a(lib_a-dtoa.o)
                                 0x14 (size before relaxing)
 .rodata.str1.4
                0x00057658        0xf c:/altera/12.0/nios2eds/bin/gnu/h-i686-mingw32/bin/../lib/gcc/nios2-elf/4.1.2/../../../../nios2-elf/lib\libc.a(lib_a-locale.o)
                                 0x18 (size before relaxing)
 *fill*         0x00057667        0x1 00
 .rodata        0x00057668       0x30 c:/altera/12.0/nios2eds/bin/gnu/h-i686-mingw32/bin/../lib/gcc/nios2-elf/4.1.2/../../../../nios2-elf/lib\libc.a(lib_a-locale.o)
 .rodata.str1.4
                0x00000000        0x4 c:/altera/12.0/nios2eds/bin/gnu/h-i686-mingw32/bin/../lib/gcc/nios2-elf/4.1.2/../../../../nios2-elf/lib\libc.a(lib_a-mbrtowc.o)
 .rodata        0x00057698      0x124 c:/altera/12.0/nios2eds/bin/gnu/h-i686-mingw32/bin/../lib/gcc/nios2-elf/4.1.2/../../../../nios2-elf/lib\libc.a(lib_a-mprec.o)
                0x00057698                __mprec_tens
                0x00057760                __mprec_bigtens
                0x00057788                __mprec_tinytens
 .rodata.str1.4
                0x000577bc        0xf c:/altera/12.0/nios2eds/bin/gnu/h-i686-mingw32/bin/../lib/gcc/nios2-elf/4.1.2/../../../../nios2-elf/lib\libc.a(lib_a-strtod.o)
                                 0x10 (size before relaxing)
 *fill*         0x000577cb        0x1 00
 .rodata        0x000577cc       0x28 c:/altera/12.0/nios2eds/bin/gnu/h-i686-mingw32/bin/../lib/gcc/nios2-elf/4.1.2/../../../../nios2-elf/lib\libc.a(lib_a-strtod.o)
 .rodata.str1.4
                0x000577f4       0x1c c:/altera/12.0/nios2eds/bin/gnu/h-i686-mingw32/bin/../lib/gcc/nios2-elf/4.1.2/../../../../nios2-elf/lib\libc.a(lib_a-gdtoa-gethex.o)
 .rodata        0x00057810       0x14 c:/altera/12.0/nios2eds/bin/gnu/h-i686-mingw32/bin/../lib/gcc/nios2-elf/4.1.2\libgcc.a(_thenan_df.o)
                0x00057810                __thenan_df
 .rodata        0x00057824      0x100 c:/altera/12.0/nios2eds/bin/gnu/h-i686-mingw32/bin/../lib/gcc/nios2-elf/4.1.2\libgcc.a(_clz.o)
                0x00057824                __clz_tab
 .rodata        0x00057924       0x10 ../web_server_bsp/\libucosii_bsp.a(alt_main.o)
 .rodata        0x00057934      0x120 ../web_server_bsp/\libucosii_bsp.a(os_core.o)
                0x00057934                OSUnMapTbl
 .rodata        0x00057a54       0x78 ../web_server_bsp/\libucosii_bsp.a(alt_sys_init.o)
 .rodata        0x00057acc     0x1cc0 ../web_server_bsp/\libucosii_bsp.a(altera_avalon_tse.o)
 .rodata        0x0005978c      0x374 ../web_server_bsp/\libucosii_bsp.a(ins_tse_mac.o)
 .rodata        0x00059b00       0xd8 ../web_server_bsp/\libucosii_bsp.a(ipnet.o)
 .rodata        0x00059bd8       0xec ../web_server_bsp/\libucosii_bsp.a(ipstart.o)
 .rodata        0x00059cc4      0x54c ../web_server_bsp/\libucosii_bsp.a(igmp_cmn.o)
 .rodata        0x0005a210       0xb8 ../web_server_bsp/\libucosii_bsp.a(in_utils.o)
 .rodata        0x0005a2c8       0x34 ../web_server_bsp/\libucosii_bsp.a(netmain.o)
 .rodata        0x0005a2fc      0x1a8 ../web_server_bsp/\libucosii_bsp.a(tk_crnos.o)
 .rodata        0x0005a4a4        0x8 ../web_server_bsp/\libucosii_bsp.a(dhcpclnt.o)
 .rodata        0x0005a4ac      0x118 ../web_server_bsp/\libucosii_bsp.a(pktalloc.o)
 .rodata        0x0005a5c4       0x84 ../web_server_bsp/\libucosii_bsp.a(udp_open.o)
 .rodata        0x0005a648       0x2c ../web_server_bsp/\libucosii_bsp.a(brdutils.o)
 .rodata        0x0005a674      0x26c ../web_server_bsp/\libucosii_bsp.a(osportco.o)
 .rodata        0x0005a8e0       0xa0 ../web_server_bsp/\libucosii_bsp.a(targnios.o)
 .rodata        0x0005a980       0x90 ../web_server_bsp/\libucosii_bsp.a(nptcp.o)
 .rodata        0x0005aa10        0x8 ../web_server_bsp/\libucosii_bsp.a(sockcall.o)
 .rodata        0x0005aa18       0x50 ../web_server_bsp/\libucosii_bsp.a(socket.o)
 .rodata        0x0005aa68       0x40 ../web_server_bsp/\libucosii_bsp.a(socket2.o)
 .rodata        0x0005aaa8       0x20 ../web_server_bsp/\libucosii_bsp.a(tcp_in.o)
 .rodata        0x0005aac8       0x40 ../web_server_bsp/\libucosii_bsp.a(tcp_out.o)
 .rodata        0x0005ab08       0x24 ../web_server_bsp/\libucosii_bsp.a(tcp_subr.o)
 .rodata        0x0005ab2c       0x2c ../web_server_bsp/\libucosii_bsp.a(tcp_usr.o)
 .rodata        0x0005ab58        0xc ../web_server_bsp/\libucosii_bsp.a(alt_dev.o)
 .rodata        0x0005ab64        0x4 ../web_server_bsp/\libucosii_bsp.a(os_cpu_c.o)
 .rodata        0x0005ab68      0x1d4 ../web_server_bsp/\libucosii_bsp.a(allports.o)
 .rodata        0x0005ad3c       0x34 ../web_server_bsp/\libucosii_bsp.a(tk_misc.o)
 .rodata        0x0005ad70       0x44 ../web_server_bsp/\libucosii_bsp.a(et_arp.o)
 .rodata        0x0005adb4      0x1dc ../web_server_bsp/\libucosii_bsp.a(ip.o)
 .rodata        0x0005af90      0x158 ../web_server_bsp/\libucosii_bsp.a(ip_reasm.o)
 .rodata        0x0005b0e8      0x120 ../web_server_bsp/\libucosii_bsp.a(ipdemux.o)
 .rodata        0x0005b208       0x34 ../web_server_bsp/\libucosii_bsp.a(ipport.o)
 .rodata        0x0005b23c       0x24 ../web_server_bsp/\libucosii_bsp.a(ipraw.o)
 .rodata        0x0005b260       0x38 ../web_server_bsp/\libucosii_bsp.a(iproute.o)
 .rodata        0x0005b298       0xe8 ../web_server_bsp/\libucosii_bsp.a(udp.o)
 .rodata        0x0005b380      0x2d0 ../web_server_bsp/\libucosii_bsp.a(u_mctest.o)
 .rodata        0x0005b650       0xf8 ../web_server_bsp/\libucosii_bsp.a(dhcsetup.o)
 .rodata        0x0005b748       0x94 ../web_server_bsp/\libucosii_bsp.a(parseip.o)
 .rodata        0x0005b7dc       0x34 ../web_server_bsp/\libucosii_bsp.a(vfsfiles.o)
 .rodata        0x0005b810      0x318 ../web_server_bsp/\libucosii_bsp.a(icmp.o)
 *(.rodata1)
                0x0005bb28                . = ALIGN (0x4)
                0x0005bb28                PROVIDE (__ram_rodata_end, ABSOLUTE (.))
                0x00055848                PROVIDE (__flash_rodata_start, LOADADDR (.rodata))

.rwdata         0x0005bb28     0x229c load address 0x0005ddc4
                0x0005bb28                PROVIDE (__ram_rwdata_start, ABSOLUTE (.))
                0x0005bb28                . = ALIGN (0x4)
 *(.got.plt)
 *(.got)
 *(.data1)
 *(.data .data.* .gnu.linkonce.d.*)
 .data          0x0005bb28        0x0 ../web_server_bsp//obj/HAL/src/crt0.o
 .data          0x0005bb28        0x0 obj/default/alt_error_handler.o
 .data          0x0005bb28        0x0 obj/default/http.o
 .data          0x0005bb28        0x0 obj/default/network_utilities.o
 .data          0x0005bb28        0x0 obj/default/srec_flash.o
 .data          0x0005bb28      0x120 obj/default/tse_my_system.o
                0x0005bb28                tse_mac_device
 .data          0x0005bc48       0x28 obj/default/web_server.o
                0x0005bc48                wstask
 .data          0x0005bc70        0x0 c:/altera/12.0/nios2eds/bin/gnu/h-i686-mingw32/bin/../lib/gcc/nios2-elf/4.1.2\libgcc.a(lib2-divmod.o)
 .data          0x0005bc70        0x0 c:/altera/12.0/nios2eds/bin/gnu/h-i686-mingw32/bin/../lib/gcc/nios2-elf/4.1.2/../../../../nios2-elf/lib\libc.a(lib_a-atoi.o)
 .data          0x0005bc70        0x0 c:/altera/12.0/nios2eds/bin/gnu/h-i686-mingw32/bin/../lib/gcc/nios2-elf/4.1.2/../../../../nios2-elf/lib\libc.a(lib_a-ctype_.o)
 .data          0x0005bc70        0x0 c:/altera/12.0/nios2eds/bin/gnu/h-i686-mingw32/bin/../lib/gcc/nios2-elf/4.1.2/../../../../nios2-elf/lib\libc.a(lib_a-fclose.o)
 .data          0x0005bc70        0x0 c:/altera/12.0/nios2eds/bin/gnu/h-i686-mingw32/bin/../lib/gcc/nios2-elf/4.1.2/../../../../nios2-elf/lib\libc.a(lib_a-fflush.o)
 .data          0x0005bc70        0x0 c:/altera/12.0/nios2eds/bin/gnu/h-i686-mingw32/bin/../lib/gcc/nios2-elf/4.1.2/../../../../nios2-elf/lib\libc.a(lib_a-fgetpos.o)
 .data          0x0005bc70        0x0 c:/altera/12.0/nios2eds/bin/gnu/h-i686-mingw32/bin/../lib/gcc/nios2-elf/4.1.2/../../../../nios2-elf/lib\libc.a(lib_a-findfp.o)
 .data          0x0005bc70        0x0 c:/altera/12.0/nios2eds/bin/gnu/h-i686-mingw32/bin/../lib/gcc/nios2-elf/4.1.2/../../../../nios2-elf/lib\libc.a(lib_a-fopen.o)
 .data          0x0005bc70        0x0 c:/altera/12.0/nios2eds/bin/gnu/h-i686-mingw32/bin/../lib/gcc/nios2-elf/4.1.2/../../../../nios2-elf/lib\libc.a(lib_a-fprintf.o)
 .data          0x0005bc70        0x0 c:/altera/12.0/nios2eds/bin/gnu/h-i686-mingw32/bin/../lib/gcc/nios2-elf/4.1.2/../../../../nios2-elf/lib\libc.a(lib_a-fread.o)
 .data          0x0005bc70        0x0 c:/altera/12.0/nios2eds/bin/gnu/h-i686-mingw32/bin/../lib/gcc/nios2-elf/4.1.2/../../../../nios2-elf/lib\libc.a(lib_a-freer.o)
 .data          0x0005bc70        0x0 c:/altera/12.0/nios2eds/bin/gnu/h-i686-mingw32/bin/../lib/gcc/nios2-elf/4.1.2/../../../../nios2-elf/lib\libc.a(lib_a-fseek.o)
 .data          0x0005bc70        0x0 c:/altera/12.0/nios2eds/bin/gnu/h-i686-mingw32/bin/../lib/gcc/nios2-elf/4.1.2/../../../../nios2-elf/lib\libc.a(lib_a-fstatr.o)
 .data          0x0005bc70        0x0 c:/altera/12.0/nios2eds/bin/gnu/h-i686-mingw32/bin/../lib/gcc/nios2-elf/4.1.2/../../../../nios2-elf/lib\libc.a(lib_a-ftell.o)
 .data          0x0005bc70        0x0 c:/altera/12.0/nios2eds/bin/gnu/h-i686-mingw32/bin/../lib/gcc/nios2-elf/4.1.2/../../../../nios2-elf/lib\libc.a(lib_a-fwalk.o)
 .data          0x0005bc70        0x0 c:/altera/12.0/nios2eds/bin/gnu/h-i686-mingw32/bin/../lib/gcc/nios2-elf/4.1.2/../../../../nios2-elf/lib\libc.a(lib_a-fwrite.o)
 .data          0x0005bc70        0x0 c:/altera/12.0/nios2eds/bin/gnu/h-i686-mingw32/bin/../lib/gcc/nios2-elf/4.1.2/../../../../nios2-elf/lib\libc.a(lib_a-getc.o)
 .data          0x0005bc70      0x400 c:/altera/12.0/nios2eds/bin/gnu/h-i686-mingw32/bin/../lib/gcc/nios2-elf/4.1.2/../../../../nios2-elf/lib\libc.a(lib_a-impure.o)
 .data          0x0005c070        0x0 c:/altera/12.0/nios2eds/bin/gnu/h-i686-mingw32/bin/../lib/gcc/nios2-elf/4.1.2/../../../../nios2-elf/lib\libc.a(lib_a-int_errno.o)
 .data          0x0005c070        0x0 c:/altera/12.0/nios2eds/bin/gnu/h-i686-mingw32/bin/../lib/gcc/nios2-elf/4.1.2/../../../../nios2-elf/lib\libc.a(lib_a-makebuf.o)
 .data          0x0005c070      0x408 c:/altera/12.0/nios2eds/bin/gnu/h-i686-mingw32/bin/../lib/gcc/nios2-elf/4.1.2/../../../../nios2-elf/lib\libc.a(lib_a-mallocr.o)
                0x0005c070                __malloc_av_
 .data          0x0005c478        0x0 c:/altera/12.0/nios2eds/bin/gnu/h-i686-mingw32/bin/../lib/gcc/nios2-elf/4.1.2/../../../../nios2-elf/lib\libc.a(lib_a-memcpy.o)
 .data          0x0005c478        0x0 c:/altera/12.0/nios2eds/bin/gnu/h-i686-mingw32/bin/../lib/gcc/nios2-elf/4.1.2/../../../../nios2-elf/lib\libc.a(lib_a-memmove.o)
 .data          0x0005c478        0x0 c:/altera/12.0/nios2eds/bin/gnu/h-i686-mingw32/bin/../lib/gcc/nios2-elf/4.1.2/../../../../nios2-elf/lib\libc.a(lib_a-memset.o)
 .data          0x0005c478        0x0 c:/altera/12.0/nios2eds/bin/gnu/h-i686-mingw32/bin/../lib/gcc/nios2-elf/4.1.2/../../../../nios2-elf/lib\libc.a(lib_a-openr.o)
 .data          0x0005c478        0x0 c:/altera/12.0/nios2eds/bin/gnu/h-i686-mingw32/bin/../lib/gcc/nios2-elf/4.1.2/../../../../nios2-elf/lib\libc.a(lib_a-perror.o)
 .data          0x0005c478        0x0 c:/altera/12.0/nios2eds/bin/gnu/h-i686-mingw32/bin/../lib/gcc/nios2-elf/4.1.2/../../../../nios2-elf/lib\libc.a(lib_a-printf.o)
 .data          0x0005c478        0x0 c:/altera/12.0/nios2eds/bin/gnu/h-i686-mingw32/bin/../lib/gcc/nios2-elf/4.1.2/../../../../nios2-elf/lib\libc.a(lib_a-putc.o)
 .data          0x0005c478        0x0 c:/altera/12.0/nios2eds/bin/gnu/h-i686-mingw32/bin/../lib/gcc/nios2-elf/4.1.2/../../../../nios2-elf/lib\libc.a(lib_a-putchar.o)
 .data          0x0005c478        0x0 c:/altera/12.0/nios2eds/bin/gnu/h-i686-mingw32/bin/../lib/gcc/nios2-elf/4.1.2/../../../../nios2-elf/lib\libc.a(lib_a-puts.o)
 .data          0x0005c478        0x0 c:/altera/12.0/nios2eds/bin/gnu/h-i686-mingw32/bin/../lib/gcc/nios2-elf/4.1.2/../../../../nios2-elf/lib\libc.a(lib_a-refill.o)
 .data          0x0005c478        0x0 c:/altera/12.0/nios2eds/bin/gnu/h-i686-mingw32/bin/../lib/gcc/nios2-elf/4.1.2/../../../../nios2-elf/lib\libc.a(lib_a-rget.o)
 .data          0x0005c478        0x0 c:/altera/12.0/nios2eds/bin/gnu/h-i686-mingw32/bin/../lib/gcc/nios2-elf/4.1.2/../../../../nios2-elf/lib\libc.a(lib_a-sbrkr.o)
 .data          0x0005c478        0x0 c:/altera/12.0/nios2eds/bin/gnu/h-i686-mingw32/bin/../lib/gcc/nios2-elf/4.1.2/../../../../nios2-elf/lib\libc.a(lib_a-sprintf.o)
 .data          0x0005c478        0x0 c:/altera/12.0/nios2eds/bin/gnu/h-i686-mingw32/bin/../lib/gcc/nios2-elf/4.1.2/../../../../nios2-elf/lib\libc.a(lib_a-sscanf.o)
 .data          0x0005c478        0x0 c:/altera/12.0/nios2eds/bin/gnu/h-i686-mingw32/bin/../lib/gcc/nios2-elf/4.1.2/../../../../nios2-elf/lib\libc.a(lib_a-stdio.o)
 .data          0x0005c478        0x0 c:/altera/12.0/nios2eds/bin/gnu/h-i686-mingw32/bin/../lib/gcc/nios2-elf/4.1.2/../../../../nios2-elf/lib\libc.a(lib_a-strcasecmp.o)
 .data          0x0005c478        0x0 c:/altera/12.0/nios2eds/bin/gnu/h-i686-mingw32/bin/../lib/gcc/nios2-elf/4.1.2/../../../../nios2-elf/lib\libc.a(lib_a-strcat.o)
 .data          0x0005c478        0x0 c:/altera/12.0/nios2eds/bin/gnu/h-i686-mingw32/bin/../lib/gcc/nios2-elf/4.1.2/../../../../nios2-elf/lib\libc.a(lib_a-strchr.o)
 .data          0x0005c478        0x0 c:/altera/12.0/nios2eds/bin/gnu/h-i686-mingw32/bin/../lib/gcc/nios2-elf/4.1.2/../../../../nios2-elf/lib\libc.a(lib_a-strcmp.o)
 .data          0x0005c478        0x0 c:/altera/12.0/nios2eds/bin/gnu/h-i686-mingw32/bin/../lib/gcc/nios2-elf/4.1.2/../../../../nios2-elf/lib\libc.a(lib_a-strcpy.o)
 .data          0x0005c478        0x0 c:/altera/12.0/nios2eds/bin/gnu/h-i686-mingw32/bin/../lib/gcc/nios2-elf/4.1.2/../../../../nios2-elf/lib\libc.a(lib_a-strerror.o)
 .data          0x0005c478        0x0 c:/altera/12.0/nios2eds/bin/gnu/h-i686-mingw32/bin/../lib/gcc/nios2-elf/4.1.2/../../../../nios2-elf/lib\libc.a(lib_a-strlen.o)
 .data          0x0005c478        0x0 c:/altera/12.0/nios2eds/bin/gnu/h-i686-mingw32/bin/../lib/gcc/nios2-elf/4.1.2/../../../../nios2-elf/lib\libc.a(lib_a-strncmp.o)
 .data          0x0005c478        0x0 c:/altera/12.0/nios2eds/bin/gnu/h-i686-mingw32/bin/../lib/gcc/nios2-elf/4.1.2/../../../../nios2-elf/lib\libc.a(lib_a-strncpy.o)
 .data          0x0005c478        0x0 c:/altera/12.0/nios2eds/bin/gnu/h-i686-mingw32/bin/../lib/gcc/nios2-elf/4.1.2/../../../../nios2-elf/lib\libc.a(lib_a-strstr.o)
 .data          0x0005c478        0x0 c:/altera/12.0/nios2eds/bin/gnu/h-i686-mingw32/bin/../lib/gcc/nios2-elf/4.1.2/../../../../nios2-elf/lib\libc.a(lib_a-strtok.o)
 .data          0x0005c478        0x0 c:/altera/12.0/nios2eds/bin/gnu/h-i686-mingw32/bin/../lib/gcc/nios2-elf/4.1.2/../../../../nios2-elf/lib\libc.a(lib_a-strtok_r.o)
 .data          0x0005c478        0x0 c:/altera/12.0/nios2eds/bin/gnu/h-i686-mingw32/bin/../lib/gcc/nios2-elf/4.1.2/../../../../nios2-elf/lib\libc.a(lib_a-strtol.o)
 .data          0x0005c478        0x0 c:/altera/12.0/nios2eds/bin/gnu/h-i686-mingw32/bin/../lib/gcc/nios2-elf/4.1.2/../../../../nios2-elf/lib\libc.a(lib_a-u_strerr.o)
 .data          0x0005c478        0x0 c:/altera/12.0/nios2eds/bin/gnu/h-i686-mingw32/bin/../lib/gcc/nios2-elf/4.1.2/../../../../nios2-elf/lib\libc.a(lib_a-vfprintf.o)
 .data          0x0005c478        0x0 c:/altera/12.0/nios2eds/bin/gnu/h-i686-mingw32/bin/../lib/gcc/nios2-elf/4.1.2/../../../../nios2-elf/lib\libc.a(lib_a-vfscanf.o)
 .data          0x0005c478        0x0 c:/altera/12.0/nios2eds/bin/gnu/h-i686-mingw32/bin/../lib/gcc/nios2-elf/4.1.2/../../../../nios2-elf/lib\libc.a(lib_a-wbuf.o)
 .data          0x0005c478        0x0 c:/altera/12.0/nios2eds/bin/gnu/h-i686-mingw32/bin/../lib/gcc/nios2-elf/4.1.2/../../../../nios2-elf/lib\libc.a(lib_a-writer.o)
 .data          0x0005c478        0x0 c:/altera/12.0/nios2eds/bin/gnu/h-i686-mingw32/bin/../lib/gcc/nios2-elf/4.1.2/../../../../nios2-elf/lib\libc.a(lib_a-wsetup.o)
 .data          0x0005c478        0x0 c:/altera/12.0/nios2eds/bin/gnu/h-i686-mingw32/bin/../lib/gcc/nios2-elf/4.1.2/../../../../nios2-elf/lib\libc.a(lib_a-closer.o)
 .data          0x0005c478        0x0 c:/altera/12.0/nios2eds/bin/gnu/h-i686-mingw32/bin/../lib/gcc/nios2-elf/4.1.2/../../../../nios2-elf/lib\libc.a(lib_a-dtoa.o)
 .data          0x0005c478        0x0 c:/altera/12.0/nios2eds/bin/gnu/h-i686-mingw32/bin/../lib/gcc/nios2-elf/4.1.2/../../../../nios2-elf/lib\libc.a(lib_a-flags.o)
 .data          0x0005c478        0x0 c:/altera/12.0/nios2eds/bin/gnu/h-i686-mingw32/bin/../lib/gcc/nios2-elf/4.1.2/../../../../nios2-elf/lib\libc.a(lib_a-fputc.o)
 .data          0x0005c478        0x0 c:/altera/12.0/nios2eds/bin/gnu/h-i686-mingw32/bin/../lib/gcc/nios2-elf/4.1.2/../../../../nios2-elf/lib\libc.a(lib_a-fputs.o)
 .data          0x0005c478        0x0 c:/altera/12.0/nios2eds/bin/gnu/h-i686-mingw32/bin/../lib/gcc/nios2-elf/4.1.2/../../../../nios2-elf/lib\libc.a(lib_a-fvwrite.o)
 .data          0x0005c478        0x0 c:/altera/12.0/nios2eds/bin/gnu/h-i686-mingw32/bin/../lib/gcc/nios2-elf/4.1.2/../../../../nios2-elf/lib\libc.a(lib_a-isattyr.o)
 .data          0x0005c478        0x0 c:/altera/12.0/nios2eds/bin/gnu/h-i686-mingw32/bin/../lib/gcc/nios2-elf/4.1.2/../../../../nios2-elf/lib\libc.a(lib_a-iswspace.o)
 .data          0x0005c478        0xc c:/altera/12.0/nios2eds/bin/gnu/h-i686-mingw32/bin/../lib/gcc/nios2-elf/4.1.2/../../../../nios2-elf/lib\libc.a(lib_a-locale.o)
                0x0005c478                __lc_ctype
 .data          0x0005c484        0x0 c:/altera/12.0/nios2eds/bin/gnu/h-i686-mingw32/bin/../lib/gcc/nios2-elf/4.1.2/../../../../nios2-elf/lib\libc.a(lib_a-lseekr.o)
 .data          0x0005c484        0x0 c:/altera/12.0/nios2eds/bin/gnu/h-i686-mingw32/bin/../lib/gcc/nios2-elf/4.1.2/../../../../nios2-elf/lib\libc.a(lib_a-mbrtowc.o)
 .data          0x0005c484        0x0 c:/altera/12.0/nios2eds/bin/gnu/h-i686-mingw32/bin/../lib/gcc/nios2-elf/4.1.2/../../../../nios2-elf/lib\libc.a(lib_a-mbtowc_r.o)
 .data          0x0005c484        0x0 c:/altera/12.0/nios2eds/bin/gnu/h-i686-mingw32/bin/../lib/gcc/nios2-elf/4.1.2/../../../../nios2-elf/lib\libc.a(lib_a-memchr.o)
 .data          0x0005c484        0x0 c:/altera/12.0/nios2eds/bin/gnu/h-i686-mingw32/bin/../lib/gcc/nios2-elf/4.1.2/../../../../nios2-elf/lib\libc.a(lib_a-memcmp.o)
 .data          0x0005c484        0x0 c:/altera/12.0/nios2eds/bin/gnu/h-i686-mingw32/bin/../lib/gcc/nios2-elf/4.1.2/../../../../nios2-elf/lib\libc.a(lib_a-mprec.o)
 .data          0x0005c484        0x0 c:/altera/12.0/nios2eds/bin/gnu/h-i686-mingw32/bin/../lib/gcc/nios2-elf/4.1.2/../../../../nios2-elf/lib\libc.a(lib_a-readr.o)
 .data          0x0005c484        0x0 c:/altera/12.0/nios2eds/bin/gnu/h-i686-mingw32/bin/../lib/gcc/nios2-elf/4.1.2/../../../../nios2-elf/lib\libc.a(lib_a-reallocr.o)
 .data          0x0005c484        0x0 c:/altera/12.0/nios2eds/bin/gnu/h-i686-mingw32/bin/../lib/gcc/nios2-elf/4.1.2/../../../../nios2-elf/lib\libc.a(lib_a-s_isinfd.o)
 .data          0x0005c484        0x0 c:/altera/12.0/nios2eds/bin/gnu/h-i686-mingw32/bin/../lib/gcc/nios2-elf/4.1.2/../../../../nios2-elf/lib\libc.a(lib_a-s_isnand.o)
 .data          0x0005c484        0x0 c:/altera/12.0/nios2eds/bin/gnu/h-i686-mingw32/bin/../lib/gcc/nios2-elf/4.1.2/../../../../nios2-elf/lib\libc.a(lib_a-sccl.o)
 .data          0x0005c484        0x0 c:/altera/12.0/nios2eds/bin/gnu/h-i686-mingw32/bin/../lib/gcc/nios2-elf/4.1.2/../../../../nios2-elf/lib\libc.a(lib_a-sf_nan.o)
 .data          0x0005c484       0x28 c:/altera/12.0/nios2eds/bin/gnu/h-i686-mingw32/bin/../lib/gcc/nios2-elf/4.1.2/../../../../nios2-elf/lib\libc.a(lib_a-strtod.o)
 .data          0x0005c4ac        0x0 c:/altera/12.0/nios2eds/bin/gnu/h-i686-mingw32/bin/../lib/gcc/nios2-elf/4.1.2/../../../../nios2-elf/lib\libc.a(lib_a-strtoll_r.o)
 .data          0x0005c4ac        0x0 c:/altera/12.0/nios2eds/bin/gnu/h-i686-mingw32/bin/../lib/gcc/nios2-elf/4.1.2/../../../../nios2-elf/lib\libc.a(lib_a-strtoul.o)
 .data          0x0005c4ac        0x0 c:/altera/12.0/nios2eds/bin/gnu/h-i686-mingw32/bin/../lib/gcc/nios2-elf/4.1.2/../../../../nios2-elf/lib\libc.a(lib_a-strtoull_r.o)
 .data          0x0005c4ac        0x0 c:/altera/12.0/nios2eds/bin/gnu/h-i686-mingw32/bin/../lib/gcc/nios2-elf/4.1.2/../../../../nios2-elf/lib\libc.a(lib_a-ungetc.o)
 .data          0x0005c4ac        0x0 c:/altera/12.0/nios2eds/bin/gnu/h-i686-mingw32/bin/../lib/gcc/nios2-elf/4.1.2/../../../../nios2-elf/lib\libc.a(lib_a-callocr.o)
 .data          0x0005c4ac        0x0 c:/altera/12.0/nios2eds/bin/gnu/h-i686-mingw32/bin/../lib/gcc/nios2-elf/4.1.2/../../../../nios2-elf/lib\libc.a(lib_a-gdtoa-gethex.o)
 .data          0x0005c4ac        0x0 c:/altera/12.0/nios2eds/bin/gnu/h-i686-mingw32/bin/../lib/gcc/nios2-elf/4.1.2/../../../../nios2-elf/lib\libc.a(lib_a-gdtoa-hexnan.o)
 .data          0x0005c4ac        0x0 c:/altera/12.0/nios2eds/bin/gnu/h-i686-mingw32/bin/../lib/gcc/nios2-elf/4.1.2\libgcc.a(_muldi3.o)
 .data          0x0005c4ac        0x0 c:/altera/12.0/nios2eds/bin/gnu/h-i686-mingw32/bin/../lib/gcc/nios2-elf/4.1.2\libgcc.a(_fixunsdfsi.o)
 .data          0x0005c4ac        0x0 c:/altera/12.0/nios2eds/bin/gnu/h-i686-mingw32/bin/../lib/gcc/nios2-elf/4.1.2\libgcc.a(_udivdi3.o)
 .data          0x0005c4ac        0x0 c:/altera/12.0/nios2eds/bin/gnu/h-i686-mingw32/bin/../lib/gcc/nios2-elf/4.1.2\libgcc.a(_umoddi3.o)
 .data          0x0005c4ac        0x0 c:/altera/12.0/nios2eds/bin/gnu/h-i686-mingw32/bin/../lib/gcc/nios2-elf/4.1.2\libgcc.a(_ne_sf.o)
 .data          0x0005c4ac        0x0 c:/altera/12.0/nios2eds/bin/gnu/h-i686-mingw32/bin/../lib/gcc/nios2-elf/4.1.2\libgcc.a(_gt_sf.o)
 .data          0x0005c4ac        0x0 c:/altera/12.0/nios2eds/bin/gnu/h-i686-mingw32/bin/../lib/gcc/nios2-elf/4.1.2\libgcc.a(_lt_sf.o)
 .data          0x0005c4ac        0x0 c:/altera/12.0/nios2eds/bin/gnu/h-i686-mingw32/bin/../lib/gcc/nios2-elf/4.1.2\libgcc.a(_addsub_df.o)
 .data          0x0005c4ac        0x0 c:/altera/12.0/nios2eds/bin/gnu/h-i686-mingw32/bin/../lib/gcc/nios2-elf/4.1.2\libgcc.a(_mul_df.o)
 .data          0x0005c4ac        0x0 c:/altera/12.0/nios2eds/bin/gnu/h-i686-mingw32/bin/../lib/gcc/nios2-elf/4.1.2\libgcc.a(_div_df.o)
 .data          0x0005c4ac        0x0 c:/altera/12.0/nios2eds/bin/gnu/h-i686-mingw32/bin/../lib/gcc/nios2-elf/4.1.2\libgcc.a(_eq_df.o)
 .data          0x0005c4ac        0x0 c:/altera/12.0/nios2eds/bin/gnu/h-i686-mingw32/bin/../lib/gcc/nios2-elf/4.1.2\libgcc.a(_ne_df.o)
 .data          0x0005c4ac        0x0 c:/altera/12.0/nios2eds/bin/gnu/h-i686-mingw32/bin/../lib/gcc/nios2-elf/4.1.2\libgcc.a(_gt_df.o)
 .data          0x0005c4ac        0x0 c:/altera/12.0/nios2eds/bin/gnu/h-i686-mingw32/bin/../lib/gcc/nios2-elf/4.1.2\libgcc.a(_ge_df.o)
 .data          0x0005c4ac        0x0 c:/altera/12.0/nios2eds/bin/gnu/h-i686-mingw32/bin/../lib/gcc/nios2-elf/4.1.2\libgcc.a(_lt_df.o)
 .data          0x0005c4ac        0x0 c:/altera/12.0/nios2eds/bin/gnu/h-i686-mingw32/bin/../lib/gcc/nios2-elf/4.1.2\libgcc.a(_le_df.o)
 .data          0x0005c4ac        0x0 c:/altera/12.0/nios2eds/bin/gnu/h-i686-mingw32/bin/../lib/gcc/nios2-elf/4.1.2\libgcc.a(_si_to_df.o)
 .data          0x0005c4ac        0x0 c:/altera/12.0/nios2eds/bin/gnu/h-i686-mingw32/bin/../lib/gcc/nios2-elf/4.1.2\libgcc.a(_df_to_si.o)
 .data          0x0005c4ac        0x0 c:/altera/12.0/nios2eds/bin/gnu/h-i686-mingw32/bin/../lib/gcc/nios2-elf/4.1.2\libgcc.a(_df_to_sf.o)
 .data          0x0005c4ac        0x0 c:/altera/12.0/nios2eds/bin/gnu/h-i686-mingw32/bin/../lib/gcc/nios2-elf/4.1.2\libgcc.a(_thenan_df.o)
 .data          0x0005c4ac        0x0 c:/altera/12.0/nios2eds/bin/gnu/h-i686-mingw32/bin/../lib/gcc/nios2-elf/4.1.2\libgcc.a(_usi_to_df.o)
 .data          0x0005c4ac        0x0 c:/altera/12.0/nios2eds/bin/gnu/h-i686-mingw32/bin/../lib/gcc/nios2-elf/4.1.2\libgcc.a(_clz.o)
 .data          0x0005c4ac        0x0 c:/altera/12.0/nios2eds/bin/gnu/h-i686-mingw32/bin/../lib/gcc/nios2-elf/4.1.2\libgcc.a(_clzsi2.o)
 .data          0x0005c4ac        0x0 c:/altera/12.0/nios2eds/bin/gnu/h-i686-mingw32/bin/../lib/gcc/nios2-elf/4.1.2\libgcc.a(_unpack_sf.o)
 .data          0x0005c4ac        0x0 c:/altera/12.0/nios2eds/bin/gnu/h-i686-mingw32/bin/../lib/gcc/nios2-elf/4.1.2\libgcc.a(_fpcmp_parts_sf.o)
 .data          0x0005c4ac        0x0 c:/altera/12.0/nios2eds/bin/gnu/h-i686-mingw32/bin/../lib/gcc/nios2-elf/4.1.2\libgcc.a(_make_sf.o)
 .data          0x0005c4ac        0x0 c:/altera/12.0/nios2eds/bin/gnu/h-i686-mingw32/bin/../lib/gcc/nios2-elf/4.1.2\libgcc.a(_pack_df.o)
 .data          0x0005c4ac        0x0 c:/altera/12.0/nios2eds/bin/gnu/h-i686-mingw32/bin/../lib/gcc/nios2-elf/4.1.2\libgcc.a(_unpack_df.o)
 .data          0x0005c4ac        0x0 c:/altera/12.0/nios2eds/bin/gnu/h-i686-mingw32/bin/../lib/gcc/nios2-elf/4.1.2\libgcc.a(_fpcmp_parts_df.o)
 .data          0x0005c4ac        0x0 c:/altera/12.0/nios2eds/bin/gnu/h-i686-mingw32/bin/../lib/gcc/nios2-elf/4.1.2\libgcc.a(_pack_sf.o)
 .data          0x0005c4ac        0x0 ../web_server_bsp/\libucosii_bsp.a(alt_dcache_flush.o)
 .data          0x0005c4ac        0x0 ../web_server_bsp/\libucosii_bsp.a(alt_flash_dev.o)
 .data          0x0005c4ac        0x0 ../web_server_bsp/\libucosii_bsp.a(alt_fstat.o)
 .data          0x0005c4ac        0x0 ../web_server_bsp/\libucosii_bsp.a(alt_isatty.o)
 .data          0x0005c4ac        0x0 ../web_server_bsp/\libucosii_bsp.a(alt_load.o)
 .data          0x0005c4ac        0x0 ../web_server_bsp/\libucosii_bsp.a(alt_lseek.o)
 .data          0x0005c4ac        0x0 ../web_server_bsp/\libucosii_bsp.a(alt_main.o)
 .data          0x0005c4ac        0x0 ../web_server_bsp/\libucosii_bsp.a(alt_open.o)
 .data          0x0005c4ac        0x0 ../web_server_bsp/\libucosii_bsp.a(alt_release_fd.o)
 .data          0x0005c4ac        0x0 ../web_server_bsp/\libucosii_bsp.a(alt_sbrk.o)
 .data          0x0005c4ac        0x0 ../web_server_bsp/\libucosii_bsp.a(alt_tick.o)
 .data          0x0005c4ac        0x0 ../web_server_bsp/\libucosii_bsp.a(alt_usleep.o)
 .data          0x0005c4ac        0x0 ../web_server_bsp/\libucosii_bsp.a(alt_env_lock.o)
 .data          0x0005c4ac        0x0 ../web_server_bsp/\libucosii_bsp.a(alt_malloc_lock.o)
 .data          0x0005c4ac        0x0 ../web_server_bsp/\libucosii_bsp.a(os_core.o)
 .data          0x0005c4ac        0x0 ../web_server_bsp/\libucosii_bsp.a(os_dbg.o)
 .data          0x0005c4ac        0x0 ../web_server_bsp/\libucosii_bsp.a(os_flag.o)
 .data          0x0005c4ac        0x0 ../web_server_bsp/\libucosii_bsp.a(os_mbox.o)
 .data          0x0005c4ac        0x0 ../web_server_bsp/\libucosii_bsp.a(os_mem.o)
 .data          0x0005c4ac        0x0 ../web_server_bsp/\libucosii_bsp.a(os_q.o)
 .data          0x0005c4ac        0x0 ../web_server_bsp/\libucosii_bsp.a(os_sem.o)
 .data          0x0005c4ac        0x0 ../web_server_bsp/\libucosii_bsp.a(os_task.o)
 .data          0x0005c4ac        0x0 ../web_server_bsp/\libucosii_bsp.a(os_time.o)
 .data          0x0005c4ac     0x13c8 ../web_server_bsp/\libucosii_bsp.a(alt_sys_init.o)
 .data          0x0005d874        0x0 ../web_server_bsp/\libucosii_bsp.a(altera_avalon_cfi_flash.o)
 .data          0x0005d874        0x0 ../web_server_bsp/\libucosii_bsp.a(altera_avalon_cfi_flash_table.o)
 .data          0x0005d874        0x0 ../web_server_bsp/\libucosii_bsp.a(altera_avalon_jtag_uart_fd.o)
 .data          0x0005d874        0x0 ../web_server_bsp/\libucosii_bsp.a(altera_avalon_jtag_uart_init.o)
 .data          0x0005d874        0x0 ../web_server_bsp/\libucosii_bsp.a(altera_avalon_jtag_uart_ioctl.o)
 .data          0x0005d874        0x0 ../web_server_bsp/\libucosii_bsp.a(altera_avalon_jtag_uart_read.o)
 .data          0x0005d874        0x0 ../web_server_bsp/\libucosii_bsp.a(altera_avalon_jtag_uart_write.o)
 .data          0x0005d874        0x0 ../web_server_bsp/\libucosii_bsp.a(altera_avalon_lcd_16207.o)
 .data          0x0005d874        0x0 ../web_server_bsp/\libucosii_bsp.a(altera_avalon_lcd_16207_fd.o)
 .data          0x0005d874        0x0 ../web_server_bsp/\libucosii_bsp.a(altera_avalon_sgdma.o)
 .data          0x0005d874        0x0 ../web_server_bsp/\libucosii_bsp.a(altera_avalon_timer_sc.o)
 .data          0x0005d874        0x0 ../web_server_bsp/\libucosii_bsp.a(altera_avalon_tse.o)
 .data          0x0005d874        0x0 ../web_server_bsp/\libucosii_bsp.a(altera_avalon_uart_fd.o)
 .data          0x0005d874        0x0 ../web_server_bsp/\libucosii_bsp.a(altera_avalon_uart_init.o)
 .data          0x0005d874        0x0 ../web_server_bsp/\libucosii_bsp.a(altera_avalon_uart_read.o)
 .data          0x0005d874        0x0 ../web_server_bsp/\libucosii_bsp.a(altera_avalon_uart_write.o)
 .data          0x0005d874        0x0 ../web_server_bsp/\libucosii_bsp.a(altera_ro_zipfs.o)
 .data          0x0005d874        0x0 ../web_server_bsp/\libucosii_bsp.a(ins_tse_mac.o)
 .data          0x0005d874        0x0 ../web_server_bsp/\libucosii_bsp.a(alt_iniche_close.o)
 .data          0x0005d874        0x0 ../web_server_bsp/\libucosii_bsp.a(alt_iniche_dev.o)
 .data          0x0005d874        0x0 ../web_server_bsp/\libucosii_bsp.a(alt_iniche_read.o)
 .data          0x0005d874        0x0 ../web_server_bsp/\libucosii_bsp.a(alt_iniche_write.o)
 .data          0x0005d874        0x0 ../web_server_bsp/\libucosii_bsp.a(ipnet.o)
 .data          0x0005d874        0x0 ../web_server_bsp/\libucosii_bsp.a(ipstart.o)
 .data          0x0005d874        0x0 ../web_server_bsp/\libucosii_bsp.a(igmp_cmn.o)
 .data          0x0005d874        0x0 ../web_server_bsp/\libucosii_bsp.a(bsdsock.o)
 .data          0x0005d874        0x0 ../web_server_bsp/\libucosii_bsp.a(cksum.o)
 .data          0x0005d874        0x0 ../web_server_bsp/\libucosii_bsp.a(in_utils.o)
 .data          0x0005d874       0x30 ../web_server_bsp/\libucosii_bsp.a(netmain.o)
                0x0005d874                nettasks
 .data          0x0005d8a4        0x0 ../web_server_bsp/\libucosii_bsp.a(tk_crnos.o)
 .data          0x0005d8a4        0x0 ../web_server_bsp/\libucosii_bsp.a(dhcpclnt.o)
 .data          0x0005d8a4        0x0 ../web_server_bsp/\libucosii_bsp.a(dhcputil.o)
 .data          0x0005d8a4        0x0 ../web_server_bsp/\libucosii_bsp.a(pktalloc.o)
 .data          0x0005d8a4        0x0 ../web_server_bsp/\libucosii_bsp.a(q.o)
 .data          0x0005d8a4        0x0 ../web_server_bsp/\libucosii_bsp.a(udp_open.o)
 .data          0x0005d8a4        0x0 ../web_server_bsp/\libucosii_bsp.a(asm_cksum.o)
 .data          0x0005d8a4        0x0 ../web_server_bsp/\libucosii_bsp.a(brdutils.o)
 .data          0x0005d8a4        0x0 ../web_server_bsp/\libucosii_bsp.a(osportco.o)
 .data          0x0005d8a4        0x0 ../web_server_bsp/\libucosii_bsp.a(targnios.o)
 .data          0x0005d8a4       0x48 ../web_server_bsp/\libucosii_bsp.a(nptcp.o)
                0x0005d8a4                tcp_protosw
                0x0005d8bc                udp_protosw
                0x0005d8d4                rawip_protosw
 .data          0x0005d8ec        0x0 ../web_server_bsp/\libucosii_bsp.a(rawsock.o)
 .data          0x0005d8ec        0x0 ../web_server_bsp/\libucosii_bsp.a(sockcall.o)
 .data          0x0005d8ec        0x0 ../web_server_bsp/\libucosii_bsp.a(socket.o)
 .data          0x0005d8ec        0x0 ../web_server_bsp/\libucosii_bsp.a(socket2.o)
 .data          0x0005d8ec        0x0 ../web_server_bsp/\libucosii_bsp.a(soselect.o)
 .data          0x0005d8ec        0x0 ../web_server_bsp/\libucosii_bsp.a(tcp_in.o)
 .data          0x0005d8ec        0xb ../web_server_bsp/\libucosii_bsp.a(tcp_out.o)
                0x0005d8ec                tcp_outflags
 .data          0x0005d8f7        0x0 ../web_server_bsp/\libucosii_bsp.a(tcp_subr.o)
 .data          0x0005d8f7        0xd ../web_server_bsp/\libucosii_bsp.a(tcp_timr.o)
                0x0005d8f7                tcp_backoff
 .data          0x0005d904        0x0 ../web_server_bsp/\libucosii_bsp.a(tcp_usr.o)
 .data          0x0005d904        0x0 ../web_server_bsp/\libucosii_bsp.a(tcpport.o)
 .data          0x0005d904        0x0 ../web_server_bsp/\libucosii_bsp.a(udpsock.o)
 .data          0x0005d904        0x0 ../web_server_bsp/\libucosii_bsp.a(alt_alarm_start.o)
 .data          0x0005d904        0x0 ../web_server_bsp/\libucosii_bsp.a(alt_busy_sleep.o)
 .data          0x0005d904        0x0 ../web_server_bsp/\libucosii_bsp.a(alt_close.o)
 .data          0x0005d904        0x0 ../web_server_bsp/\libucosii_bsp.a(alt_dcache_flush_all.o)
 .data          0x0005d904      0x1a8 ../web_server_bsp/\libucosii_bsp.a(alt_dev.o)
                0x0005d904                alt_dev_null
                0x0005d92c                alt_fd_list
 .data          0x0005daac        0x0 ../web_server_bsp/\libucosii_bsp.a(alt_dev_llist_insert.o)
 .data          0x0005daac        0x0 ../web_server_bsp/\libucosii_bsp.a(alt_do_ctors.o)
 .data          0x0005daac        0x0 ../web_server_bsp/\libucosii_bsp.a(alt_do_dtors.o)
 .data          0x0005daac        0x0 ../web_server_bsp/\libucosii_bsp.a(alt_errno.o)
 .data          0x0005daac        0x0 ../web_server_bsp/\libucosii_bsp.a(alt_find_dev.o)
 .data          0x0005daac        0x0 ../web_server_bsp/\libucosii_bsp.a(alt_find_file.o)
 .data          0x0005daac        0x0 ../web_server_bsp/\libucosii_bsp.a(alt_fs_reg.o)
 .data          0x0005daac        0x0 ../web_server_bsp/\libucosii_bsp.a(alt_get_fd.o)
 .data          0x0005daac        0x0 ../web_server_bsp/\libucosii_bsp.a(alt_icache_flush_all.o)
 .data          0x0005daac        0x0 ../web_server_bsp/\libucosii_bsp.a(alt_iic.o)
 .data          0x0005daac        0x0 ../web_server_bsp/\libucosii_bsp.a(alt_iic_isr_register.o)
 .data          0x0005daac        0x0 ../web_server_bsp/\libucosii_bsp.a(alt_io_redirect.o)
 .data          0x0005daac        0x0 ../web_server_bsp/\libucosii_bsp.a(alt_irq_entry.o)
 .data          0x0005daac        0x0 ../web_server_bsp/\libucosii_bsp.a(alt_irq_handler.o)
 .data          0x0005daac        0x0 ../web_server_bsp/\libucosii_bsp.a(alt_irq_vars.o)
 .data          0x0005daac        0x0 ../web_server_bsp/\libucosii_bsp.a(alt_read.o)
 .data          0x0005daac        0x0 ../web_server_bsp/\libucosii_bsp.a(alt_remap_cached.o)
 .data          0x0005daac        0x0 ../web_server_bsp/\libucosii_bsp.a(alt_remap_uncached.o)
 .data          0x0005daac        0x0 ../web_server_bsp/\libucosii_bsp.a(alt_uncached_malloc.o)
 .data          0x0005daac        0x0 ../web_server_bsp/\libucosii_bsp.a(alt_write.o)
 .data          0x0005daac        0x0 ../web_server_bsp/\libucosii_bsp.a(altera_nios2_qsys_irq.o)
 .data          0x0005daac        0x0 ../web_server_bsp/\libucosii_bsp.a(os_cpu_a.o)
 .data          0x0005daac        0x0 ../web_server_bsp/\libucosii_bsp.a(os_cpu_c.o)
 .data          0x0005daac        0x0 ../web_server_bsp/\libucosii_bsp.a(altera_avalon_cfi_flash_amd.o)
 .data          0x0005daac        0x0 ../web_server_bsp/\libucosii_bsp.a(altera_avalon_cfi_flash_intel.o)
 .data          0x0005daac       0x18 ../web_server_bsp/\libucosii_bsp.a(allports.o)
                0x0005daac                icmpdu_types
 .data          0x0005dac4        0x0 ../web_server_bsp/\libucosii_bsp.a(timeouts.o)
 .data          0x0005dac4        0x0 ../web_server_bsp/\libucosii_bsp.a(tk_misc.o)
 .data          0x0005dac4        0x0 ../web_server_bsp/\libucosii_bsp.a(alt_iniche_fcntl.o)
 .data          0x0005dac4        0x0 ../web_server_bsp/\libucosii_bsp.a(et_arp.o)
 .data          0x0005dac4        0x0 ../web_server_bsp/\libucosii_bsp.a(iface.o)
 .data          0x0005dac4        0x0 ../web_server_bsp/\libucosii_bsp.a(ip.o)
 .data          0x0005dac4        0x0 ../web_server_bsp/\libucosii_bsp.a(ip_reasm.o)
 .data          0x0005dac4        0x0 ../web_server_bsp/\libucosii_bsp.a(ipdemux.o)
 .data          0x0005dac4        0x0 ../web_server_bsp/\libucosii_bsp.a(ipmc.o)
 .data          0x0005dac4        0x0 ../web_server_bsp/\libucosii_bsp.a(ipport.o)
 .data          0x0005dac4        0x0 ../web_server_bsp/\libucosii_bsp.a(ipraw.o)
 .data          0x0005dac4        0x9 ../web_server_bsp/\libucosii_bsp.a(iproute.o)
                0x0005dac4                rtp_priority
 .data          0x0005dacd        0x0 ../web_server_bsp/\libucosii_bsp.a(udp.o)
 .data          0x0005dacd        0x0 ../web_server_bsp/\libucosii_bsp.a(igmp.o)
 .data          0x0005dacd        0x0 ../web_server_bsp/\libucosii_bsp.a(igmp2.o)
 .data          0x0005dacd        0x0 ../web_server_bsp/\libucosii_bsp.a(ipopt.o)
 .data          0x0005dacd        0x0 ../web_server_bsp/\libucosii_bsp.a(u_mctest.o)
 .data          0x0005dacd        0x0 ../web_server_bsp/\libucosii_bsp.a(dhcsetup.o)
 *fill*         0x0005dacd        0x3 00
 .data          0x0005dad0       0xd4 ../web_server_bsp/\libucosii_bsp.a(memdev.o)
                0x0005dad0                mdio
                0x0005daf4                mdlist
 .data          0x0005dba4        0x0 ../web_server_bsp/\libucosii_bsp.a(parseip.o)
 .data          0x0005dba4        0x0 ../web_server_bsp/\libucosii_bsp.a(tcpcksum.o)
 .data          0x0005dba4        0x0 ../web_server_bsp/\libucosii_bsp.a(in_pcb.o)
 .data          0x0005dba4       0x80 ../web_server_bsp/\libucosii_bsp.a(vfsfiles.o)
                0x0005dba4                vfs_root_path
 .data          0x0005dc24        0x0 ../web_server_bsp/\libucosii_bsp.a(vfsport.o)
 .data          0x0005dc24        0x0 ../web_server_bsp/\libucosii_bsp.a(alt_exception_entry.o)
 .data          0x0005dc24        0x0 ../web_server_bsp/\libucosii_bsp.a(alt_fcntl.o)
 .data          0x0005dc24        0x0 ../web_server_bsp/\libucosii_bsp.a(alt_icache_flush.o)
 .data          0x0005dc24       0x18 ../web_server_bsp/\libucosii_bsp.a(icmp.o)
 .data          0x0005dc3c        0x0 c:/altera/12.0/nios2eds/bin/gnu/h-i686-mingw32/bin/../lib/gcc/nios2-elf/4.1.2/../../../../nios2-elf/lib\libc.a(lib_a-atexit.o)
 .data          0x0005dc3c        0x0 c:/altera/12.0/nios2eds/bin/gnu/h-i686-mingw32/bin/../lib/gcc/nios2-elf/4.1.2/../../../../nios2-elf/lib\libc.a(lib_a-calloc.o)
 .data          0x0005dc3c        0x0 c:/altera/12.0/nios2eds/bin/gnu/h-i686-mingw32/bin/../lib/gcc/nios2-elf/4.1.2/../../../../nios2-elf/lib\libc.a(lib_a-exit.o)
 .data          0x0005dc3c        0x0 c:/altera/12.0/nios2eds/bin/gnu/h-i686-mingw32/bin/../lib/gcc/nios2-elf/4.1.2/../../../../nios2-elf/lib\libc.a(lib_a-malloc.o)
 .data          0x0005dc3c        0x0 c:/altera/12.0/nios2eds/bin/gnu/h-i686-mingw32/bin/../lib/gcc/nios2-elf/4.1.2/../../../../nios2-elf/lib\libc.a(lib_a-vprintf.o)
 .data          0x0005dc3c        0x0 c:/altera/12.0/nios2eds/bin/gnu/h-i686-mingw32/bin/../lib/gcc/nios2-elf/4.1.2/../../../../nios2-elf/lib\libc.a(lib_a-vsprintf.o)
 .data          0x0005dc3c        0x0 c:/altera/12.0/nios2eds/bin/gnu/h-i686-mingw32/bin/../lib/gcc/nios2-elf/4.1.2/../../../../nios2-elf/lib\libc.a(lib_a-__atexit.o)
 .data          0x0005dc3c        0x0 c:/altera/12.0/nios2eds/bin/gnu/h-i686-mingw32/bin/../lib/gcc/nios2-elf/4.1.2/../../../../nios2-elf/lib\libc.a(lib_a-__call_atexit.o)
 .data          0x0005dc3c        0x0 ../web_server_bsp/\libucosii_bsp.a(alt_exit.o)
                0x00065c3c                _gp = ABSOLUTE ((. + 0x8000))
                0x00065c3c                PROVIDE (gp, _gp)
 *(.rwdata .rwdata.*)
 *(.sdata .sdata.* .gnu.linkonce.s.*)
 .sdata         0x0005dc3c       0x30 obj/default/http.o
                0x0005dc3c                mapping
                0x0005dc44                sweep_field
                0x0005dc4c                seg_field
                0x0005dc54                lcd_field
                0x0005dc5c                upload_field
                0x0005dc64                flash_field
 .sdata         0x0005dc6c        0x4 c:/altera/12.0/nios2eds/bin/gnu/h-i686-mingw32/bin/../lib/gcc/nios2-elf/4.1.2/../../../../nios2-elf/lib\libc.a(lib_a-ctype_.o)
                0x0005dc6c                __ctype_ptr
 .sdata         0x0005dc70        0x8 c:/altera/12.0/nios2eds/bin/gnu/h-i686-mingw32/bin/../lib/gcc/nios2-elf/4.1.2/../../../../nios2-elf/lib\libc.a(lib_a-impure.o)
                0x0005dc70                _impure_ptr
                0x0005dc74                _global_impure_ptr
 .sdata         0x0005dc78        0x8 c:/altera/12.0/nios2eds/bin/gnu/h-i686-mingw32/bin/../lib/gcc/nios2-elf/4.1.2/../../../../nios2-elf/lib\libc.a(lib_a-mallocr.o)
                0x0005dc78                __malloc_trim_threshold
                0x0005dc7c                __malloc_sbrk_base
 .sdata         0x0005dc80        0x8 c:/altera/12.0/nios2eds/bin/gnu/h-i686-mingw32/bin/../lib/gcc/nios2-elf/4.1.2/../../../../nios2-elf/lib\libc.a(lib_a-locale.o)
                0x0005dc80                __mb_cur_max
 .sdata         0x0005dc88        0x8 ../web_server_bsp/\libucosii_bsp.a(alt_flash_dev.o)
                0x0005dc88                alt_flash_dev_list
 .sdata         0x0005dc90        0x4 ../web_server_bsp/\libucosii_bsp.a(alt_sbrk.o)
 .sdata         0x0005dc94        0x8 ../web_server_bsp/\libucosii_bsp.a(alt_tick.o)
                0x0005dc94                alt_alarm_list
 .sdata         0x0005dc9c        0x4 ../web_server_bsp/\libucosii_bsp.a(alt_env_lock.o)
 .sdata         0x0005dca0        0x4 ../web_server_bsp/\libucosii_bsp.a(alt_malloc_lock.o)
 .sdata         0x0005dca4       0x74 ../web_server_bsp/\libucosii_bsp.a(os_dbg.o)
                0x0005dca4                OSDebugEn
                0x0005dca8                OSEndiannessTest
                0x0005dcac                OSEventEn
                0x0005dcae                OSEventMax
                0x0005dcb0                OSEventNameSize
                0x0005dcb2                OSEventSize
                0x0005dcb4                OSEventTblSize
                0x0005dcb6                OSEventMultiEn
                0x0005dcb8                OSFlagEn
                0x0005dcba                OSFlagGrpSize
                0x0005dcbc                OSFlagNodeSize
                0x0005dcbe                OSFlagWidth
                0x0005dcc0                OSFlagMax
                0x0005dcc2                OSFlagNameSize
                0x0005dcc4                OSLowestPrio
                0x0005dcc6                OSMboxEn
                0x0005dcc8                OSMemEn
                0x0005dcca                OSMemMax
                0x0005dccc                OSMemNameSize
                0x0005dcce                OSMemSize
                0x0005dcd0                OSMemTblSize
                0x0005dcd2                OSMutexEn
                0x0005dcd4                OSPtrSize
                0x0005dcd6                OSQEn
                0x0005dcd8                OSQMax
                0x0005dcda                OSQSize
                0x0005dcdc                OSRdyTblSize
                0x0005dcde                OSSemEn
                0x0005dce0                OSStkWidth
                0x0005dce2                OSTaskCreateEn
                0x0005dce4                OSTaskCreateExtEn
                0x0005dce6                OSTaskDelEn
                0x0005dce8                OSTaskIdleStkSize
                0x0005dcea                OSTaskProfileEn
                0x0005dcec                OSTaskMax
                0x0005dcee                OSTaskNameSize
                0x0005dcf0                OSTaskStatEn
                0x0005dcf2                OSTaskStatStkSize
                0x0005dcf4                OSTaskStatStkChkEn
                0x0005dcf6                OSTaskSwHookEn
                0x0005dcf8                OSTCBPrioTblMax
                0x0005dcfa                OSTCBSize
                0x0005dcfc                OSTicksPerSec
                0x0005dcfe                OSTimeTickHookEn
                0x0005dd00                OSVersionNbr
                0x0005dd02                OSTmrEn
                0x0005dd04                OSTmrCfgMax
                0x0005dd06                OSTmrCfgNameSize
                0x0005dd08                OSTmrCfgWheelSize
                0x0005dd0a                OSTmrCfgTicksPerSec
                0x0005dd0c                OSTmrSize
                0x0005dd0e                OSTmrTblSize
                0x0005dd10                OSTmrWheelSize
                0x0005dd12                OSTmrWheelTblSize
                0x0005dd14                OSDataSize
 .sdata         0x0005dd18        0x4 ../web_server_bsp/\libucosii_bsp.a(alt_sys_init.o)
                0x0005dd18                tse_mac_name
 .sdata         0x0005dd1c        0x4 ../web_server_bsp/\libucosii_bsp.a(altera_avalon_lcd_16207.o)
 .sdata         0x0005dd20        0x8 ../web_server_bsp/\libucosii_bsp.a(altera_avalon_sgdma.o)
                0x0005dd20                alt_sgdma_list
 .sdata         0x0005dd28        0x1 ../web_server_bsp/\libucosii_bsp.a(altera_avalon_tse.o)
                0x0005dd28                max_mac_system
 *fill*         0x0005dd29        0x3 00
 .sdata         0x0005dd2c        0x8 ../web_server_bsp/\libucosii_bsp.a(alt_iniche_dev.o)
                0x0005dd2c                alt_iniche_dev_list
 .sdata         0x0005dd34        0x4 ../web_server_bsp/\libucosii_bsp.a(ipstart.o)
                0x0005dd34                ipmcfail_str
 .sdata         0x0005dd38        0x4 ../web_server_bsp/\libucosii_bsp.a(cksum.o)
 .sdata         0x0005dd3c        0x4 ../web_server_bsp/\libucosii_bsp.a(netmain.o)
                0x0005dd3c                num_net_tasks
 .sdata         0x0005dd40        0xc ../web_server_bsp/\libucosii_bsp.a(dhcpclnt.o)
                0x0005dd40                xids
                0x0005dd44                reqlist
                0x0005dd48                reqlist_len
 .sdata         0x0005dd4c       0x10 ../web_server_bsp/\libucosii_bsp.a(pktalloc.o)
                0x0005dd4c                lilbufs
                0x0005dd50                lilbufsiz
                0x0005dd54                bigbufs
                0x0005dd58                bigbufsiz
 .sdata         0x0005dd5c        0x4 ../web_server_bsp/\libucosii_bsp.a(brdutils.o)
                0x0005dd5c                kb_last
 .sdata         0x0005dd60        0x4 ../web_server_bsp/\libucosii_bsp.a(nptcp.o)
                0x0005dd60                TCPTV_MSL
 .sdata         0x0005dd64        0x2 ../web_server_bsp/\libucosii_bsp.a(socket.o)
                0x0005dd64                socket_defaults
 .sdata         0x0005dd66        0x1 ../web_server_bsp/\libucosii_bsp.a(tcp_in.o)
                0x0005dd66                tcprexmtthresh
 *fill*         0x0005dd67        0x1 00
 .sdata         0x0005dd68        0x4 ../web_server_bsp/\libucosii_bsp.a(tcp_subr.o)
                0x0005dd68                tcp_ttl
 .sdata         0x0005dd6c        0x8 ../web_server_bsp/\libucosii_bsp.a(tcp_timr.o)
                0x0005dd6c                tcp_keepidle
                0x0005dd70                tcp_keepintvl
 .sdata         0x0005dd74        0x8 ../web_server_bsp/\libucosii_bsp.a(tcp_usr.o)
                0x0005dd74                tcp_sendspace
                0x0005dd78                tcp_recvspace
 .sdata         0x0005dd7c       0x14 ../web_server_bsp/\libucosii_bsp.a(alt_dev.o)
                0x0005dd7c                alt_fs_list
                0x0005dd84                alt_dev_list
                0x0005dd8c                alt_max_fd
 .sdata         0x0005dd90        0x4 ../web_server_bsp/\libucosii_bsp.a(alt_errno.o)
                0x0005dd90                alt_errno
 .sdata         0x0005dd94        0x4 ../web_server_bsp/\libucosii_bsp.a(alt_irq_vars.o)
                0x0005dd94                alt_priority_mask
 .sdata         0x0005dd98       0x10 ../web_server_bsp/\libucosii_bsp.a(allports.o)
                0x0005dd98                name
                0x0005dd9c                prompt
                0x0005dda0                pingdelay
                0x0005dda4                deflength
 .sdata         0x0005dda8        0x4 ../web_server_bsp/\libucosii_bsp.a(et_arp.o)
                0x0005dda8                arp_ageout
 .sdata         0x0005ddac        0x8 ../web_server_bsp/\libucosii_bsp.a(ip.o)
                0x0005ddb0                ipRoutes
 .sdata         0x0005ddb4        0x4 ../web_server_bsp/\libucosii_bsp.a(u_mctest.o)
 .sdata         0x0005ddb8        0x4 ../web_server_bsp/\libucosii_bsp.a(memdev.o)
                0x0005ddb8                mdlist_size
 .sdata         0x0005ddbc        0x4 ../web_server_bsp/\libucosii_bsp.a(parseip.o)
                0x0005ddbc                pton_error
 .sdata         0x0005ddc0        0x4 ../web_server_bsp/\libucosii_bsp.a(vfsfiles.o)
                0x0005ddc0                http_root_path
 *(.sdata2 .sdata2.* .gnu.linkonce.s2.*)
                0x0005ddc4                . = ALIGN (0x4)
                0x0005ddc4                _edata = ABSOLUTE (.)
                0x0005ddc4                PROVIDE (edata, ABSOLUTE (.))
                0x0005ddc4                PROVIDE (__ram_rwdata_end, ABSOLUTE (.))
                0x0005ddc4                PROVIDE (__flash_rwdata_start, LOADADDR (.rwdata))

.bss            0x00060060   0x5ea0ec
                0x00060060                __bss_start = ABSOLUTE (.)
                0x00060060                PROVIDE (__sbss_start, ABSOLUTE (.))
                0x00060060                PROVIDE (___sbss_start, ABSOLUTE (.))
 *(.dynsbss)
 *(.sbss .sbss.* .gnu.linkonce.sb.*)
 .sbss          0x00060060        0x4 obj/default/http.o
                0x00060060                segnum
                0x00060062                lednum
 .sbss          0x00060064        0xc obj/default/network_utilities.o
                0x00060064                last_flash_sector_offset
                0x00060068                last_flash_sector
                0x0006006c                lcd_sem
 .sbss          0x00060070        0x8 obj/default/srec_flash.o
                0x00060070                line_count
                0x00060074                current_flash_block
 .sbss          0x00060078        0x9 obj/default/web_server.o
                0x00060078                lcdDevice
                0x0006007c                board_control_mbox
                0x00060080                to_wstask
 *fill*         0x00060081        0x3 00
 .sbss          0x00060084        0x4 c:/altera/12.0/nios2eds/bin/gnu/h-i686-mingw32/bin/../lib/gcc/nios2-elf/4.1.2/../../../../nios2-elf/lib\libc.a(lib_a-int_errno.o)
                0x00060084                errno
 .sbss          0x00060088        0xc c:/altera/12.0/nios2eds/bin/gnu/h-i686-mingw32/bin/../lib/gcc/nios2-elf/4.1.2/../../../../nios2-elf/lib\libc.a(lib_a-mallocr.o)
                0x00060088                __malloc_top_pad
                0x0006008c                __malloc_max_sbrked_mem
                0x00060090                __malloc_max_total_mem
 .sbss          0x00060094        0xc c:/altera/12.0/nios2eds/bin/gnu/h-i686-mingw32/bin/../lib/gcc/nios2-elf/4.1.2/../../../../nios2-elf/lib\libc.a(lib_a-locale.o)
                0x00060094                __nlocale_changed
                0x00060098                __mlocale_changed
                0x0006009c                _PathLocale
 .sbss          0x000600a0        0xc ../web_server_bsp/\libucosii_bsp.a(alt_main.o)
                0x000600a0                alt_argc
                0x000600a4                alt_argv
                0x000600a8                alt_envp
 .sbss          0x000600ac        0x8 ../web_server_bsp/\libucosii_bsp.a(alt_tick.o)
                0x000600ac                _alt_tick_rate
                0x000600b0                _alt_nticks
 .sbss          0x000600b4        0x8 ../web_server_bsp/\libucosii_bsp.a(alt_env_lock.o)
                0x000600b8                alt_envsem
 .sbss          0x000600bc        0x8 ../web_server_bsp/\libucosii_bsp.a(alt_malloc_lock.o)
                0x000600c0                alt_heapsem
 .sbss          0x000600c4       0x50 ../web_server_bsp/\libucosii_bsp.a(os_core.o)
                0x000600c4                OSLockNesting
                0x000600c5                OSRunning
                0x000600c8                OSIdleCtr
                0x000600cc                OSPrioHighRdy
                0x000600cd                OSPrioCur
                0x000600d0                OSTCBList
                0x000600d4                OSTickStepState
                0x000600d8                OSCtxSwCtr
                0x000600dc                OSIdleCtrMax
                0x000600e0                OSTCBFreeList
                0x000600e4                OSCPUUsage
                0x000600e5                OSTaskCtr
                0x000600e8                OSMemFreeList
                0x000600ec                OSTCBHighRdy
                0x000600f0                OSQFreeList
                0x000600f4                OSRdyGrp
                0x000600f5                OSRdyTbl
                0x000600f8                OSEventFreeList
                0x000600fc                OSIntNesting
                0x00060100                OSTCBCur
                0x00060104                OSTime
                0x00060108                OSFlagFreeList
                0x0006010c                OSStatRdy
                0x00060110                OSIdleCtrRun
 .sbss          0x00060114        0x4 ../web_server_bsp/\libucosii_bsp.a(altera_avalon_tse.o)
                0x00060114                phy_profile_count
                0x00060115                mac_group_count
 .sbss          0x00060118        0x1 ../web_server_bsp/\libucosii_bsp.a(ins_tse_mac.o)
                0x00060118                number_of_tse_mac
 *fill*         0x00060119        0x3 00
 .sbss          0x0006011c        0xc ../web_server_bsp/\libucosii_bsp.a(ipnet.o)
                0x0006011c                MaxLnh
                0x00060120                MaxMtu
                0x00060124                NDEBUG
 .sbss          0x00060128        0x8 ../web_server_bsp/\libucosii_bsp.a(ipstart.o)
                0x00060128                ifNumber
 .sbss          0x00060130       0x10 ../web_server_bsp/\libucosii_bsp.a(igmp_cmn.o)
                0x00060130                igmp_timers_are_running
                0x00060134                igmp_cticks
                0x00060138                igmp_all_hosts_group
                0x0006013c                igmp_all_rtrs_group
 .sbss          0x00060140        0xe ../web_server_bsp/\libucosii_bsp.a(netmain.o)
                0x00060140                netmain_wakes
                0x00060144                nettick_wakes
                0x00060148                iniche_net_ready
                0x0006014c                to_netmain
                0x0006014d                to_nettick
 *fill*         0x0006014e        0x2 00
 .sbss          0x00060150        0x4 ../web_server_bsp/\libucosii_bsp.a(tk_crnos.o)
                0x00060150                tcp_sleep_timeout
 .sbss          0x00060154       0x34 ../web_server_bsp/\libucosii_bsp.a(dhcpclnt.o)
                0x00060154                dhc_conn
                0x00060158                dsc_errors
                0x0006015c                dsc_discovers
                0x00060160                dsc_offers
                0x00060164                dsc_requests
                0x00060168                dsc_acks
                0x0006016c                dsc_bpreplys
                0x00060170                dsc_declines
                0x00060174                dsc_releases
                0x00060178                dsc_naks
                0x0006017c                dsc_renew
                0x00060180                dsc_rebind
                0x00060184                dsc_rlyerrs
 .sbss          0x00060188        0x4 ../web_server_bsp/\libucosii_bsp.a(udp_open.o)
                0x00060188                firstudp
 .sbss          0x0006018c       0x18 ../web_server_bsp/\libucosii_bsp.a(brdutils.o)
                0x00060190                cticks_initialized
                0x00060194                irq_level
                0x0006019c                cticks_factor
                0x000601a0                OS_TPS
 .sbss          0x000601a4       0x18 ../web_server_bsp/\libucosii_bsp.a(osportco.o)
                0x000601a4                tcp_sleep_count
                0x000601a8                tcp_wakeup_count
                0x000601ac                netq_intmask
                0x000601b0                old_mode
                0x000601b4                global_TCPwakeup_setIndx
                0x000601b8                cticks
 .sbss          0x000601bc        0xc ../web_server_bsp/\libucosii_bsp.a(targnios.o)
                0x000601bc                memtrapsize
                0x000601c0                mheap_sem_ptr
                0x000601c4                rcvdq_sem_ptr
 .sbss          0x000601c8       0x12 ../web_server_bsp/\libucosii_bsp.a(nptcp.o)
                0x000601c8                nextslow
                0x000601d0                mbstat
                0x000601d8                select_wait
 *fill*         0x000601da        0x2 00
 .sbss          0x000601dc        0x8 ../web_server_bsp/\libucosii_bsp.a(tcp_in.o)
                0x000601dc                tcpprintfs
                0x000601e0                dropline
 .sbss          0x000601e4        0x4 ../web_server_bsp/\libucosii_bsp.a(tcp_out.o)
                0x000601e4                tcp_optionbuf
 .sbss          0x000601e8        0x8 ../web_server_bsp/\libucosii_bsp.a(tcp_timr.o)
                0x000601e8                tcp_maxidle
                0x000601ec                tcp_iss
 .sbss          0x000601f0        0x4 ../web_server_bsp/\libucosii_bsp.a(alt_dev.o)
                0x000601f0                alt_fd_list_lock
 .sbss          0x000601f4        0x4 ../web_server_bsp/\libucosii_bsp.a(alt_irq_vars.o)
                0x000601f4                alt_irq_active
 .sbss          0x000601f8        0x8 ../web_server_bsp/\libucosii_bsp.a(allports.o)
                0x000601f8                activehost
 .sbss          0x00060200        0xc ../web_server_bsp/\libucosii_bsp.a(timeouts.o)
                0x00060200                nextppp
                0x00060204                port_1s_callout
 .sbss          0x0006020c       0x1c ../web_server_bsp/\libucosii_bsp.a(et_arp.o)
                0x00060210                arpcache
                0x00060214                arpReqsIn
                0x00060218                arpReqsOut
                0x0006021c                arpRepsIn
                0x00060220                arpRepsOut
 .sbss          0x00060228        0x4 ../web_server_bsp/\libucosii_bsp.a(ip.o)
                0x00060228                rt_mib
 .sbss          0x0006022c        0xc ../web_server_bsp/\libucosii_bsp.a(ip_reasm.o)
                0x0006022c                ipr_curr_mem
                0x00060230                h_ireq
                0x00060234                ire_cticks
 .sbss          0x00060238       0x11 ../web_server_bsp/\libucosii_bsp.a(ipport.o)
                0x00060238                port_prep
                0x0006023c                net_system_exit
                0x00060240                so_evtmap_create
                0x00060244                so_evtmap_delete
                0x00060248                so_evtmap
 *fill*         0x00060249        0x3 00
 .sbss          0x0006024c        0x4 ../web_server_bsp/\libucosii_bsp.a(ipraw.o)
                0x0006024c                ipraw_eps
 .sbss          0x00060250        0x4 ../web_server_bsp/\libucosii_bsp.a(iproute.o)
                0x00060250                cachedRoute
 .sbss          0x00060254        0x2 ../web_server_bsp/\libucosii_bsp.a(udp.o)
 *fill*         0x00060256        0x2 00
 .sbss          0x00060258        0x8 ../web_server_bsp/\libucosii_bsp.a(in_pcb.o)
                0x00060258                inpcb_cachehits
                0x0006025c                inpcb_cachemiss
 .sbss          0x00060260       0x20 ../web_server_bsp/\libucosii_bsp.a(vfsfiles.o)
                0x00060260                vfsystems
                0x00060264                vfiles
                0x00060268                vfsfiles
                0x0006026c                vfopen_error
                0x00060270                vfs_dir_stale
                0x00060274                vfs_open_files
                0x00060278                vfs_total_rw_space
                0x0006027c                vfs_total_dyna_files
 .sbss          0x00060280        0x4 ../web_server_bsp/\libucosii_bsp.a(icmp.o)
                0x00060280                icmpdu_hook
 *(.sbss2 .sbss2.* .gnu.linkonce.sb2.*)
 *(.scommon)
                0x00060284                PROVIDE (__sbss_end, ABSOLUTE (.))
                0x00060284                PROVIDE (___sbss_end, ABSOLUTE (.))
 *(.dynbss)
 *(.bss .bss.* .gnu.linkonce.b.*)
 .bss           0x00060284        0x0 ../web_server_bsp//obj/HAL/src/crt0.o
 .bss           0x00060284        0x0 obj/default/alt_error_handler.o
 .bss           0x00060284     0xcb10 obj/default/http.o
 .bss           0x0006cd94        0x0 obj/default/network_utilities.o
 .bss           0x0006cd94        0x0 obj/default/srec_flash.o
 .bss           0x0006cd94        0x0 obj/default/tse_my_system.o
 .bss           0x0006cd94        0x0 obj/default/web_server.o
 .bss           0x0006cd94        0x0 c:/altera/12.0/nios2eds/bin/gnu/h-i686-mingw32/bin/../lib/gcc/nios2-elf/4.1.2\libgcc.a(lib2-divmod.o)
 .bss           0x0006cd94        0x0 c:/altera/12.0/nios2eds/bin/gnu/h-i686-mingw32/bin/../lib/gcc/nios2-elf/4.1.2/../../../../nios2-elf/lib\libc.a(lib_a-atoi.o)
 .bss           0x0006cd94        0x0 c:/altera/12.0/nios2eds/bin/gnu/h-i686-mingw32/bin/../lib/gcc/nios2-elf/4.1.2/../../../../nios2-elf/lib\libc.a(lib_a-ctype_.o)
 .bss           0x0006cd94        0x0 c:/altera/12.0/nios2eds/bin/gnu/h-i686-mingw32/bin/../lib/gcc/nios2-elf/4.1.2/../../../../nios2-elf/lib\libc.a(lib_a-fclose.o)
 .bss           0x0006cd94        0x0 c:/altera/12.0/nios2eds/bin/gnu/h-i686-mingw32/bin/../lib/gcc/nios2-elf/4.1.2/../../../../nios2-elf/lib\libc.a(lib_a-fflush.o)
 .bss           0x0006cd94        0x0 c:/altera/12.0/nios2eds/bin/gnu/h-i686-mingw32/bin/../lib/gcc/nios2-elf/4.1.2/../../../../nios2-elf/lib\libc.a(lib_a-fgetpos.o)
 .bss           0x0006cd94        0x0 c:/altera/12.0/nios2eds/bin/gnu/h-i686-mingw32/bin/../lib/gcc/nios2-elf/4.1.2/../../../../nios2-elf/lib\libc.a(lib_a-findfp.o)
 .bss           0x0006cd94        0x0 c:/altera/12.0/nios2eds/bin/gnu/h-i686-mingw32/bin/../lib/gcc/nios2-elf/4.1.2/../../../../nios2-elf/lib\libc.a(lib_a-fopen.o)
 .bss           0x0006cd94        0x0 c:/altera/12.0/nios2eds/bin/gnu/h-i686-mingw32/bin/../lib/gcc/nios2-elf/4.1.2/../../../../nios2-elf/lib\libc.a(lib_a-fprintf.o)
 .bss           0x0006cd94        0x0 c:/altera/12.0/nios2eds/bin/gnu/h-i686-mingw32/bin/../lib/gcc/nios2-elf/4.1.2/../../../../nios2-elf/lib\libc.a(lib_a-fread.o)
 .bss           0x0006cd94        0x0 c:/altera/12.0/nios2eds/bin/gnu/h-i686-mingw32/bin/../lib/gcc/nios2-elf/4.1.2/../../../../nios2-elf/lib\libc.a(lib_a-freer.o)
 .bss           0x0006cd94        0x0 c:/altera/12.0/nios2eds/bin/gnu/h-i686-mingw32/bin/../lib/gcc/nios2-elf/4.1.2/../../../../nios2-elf/lib\libc.a(lib_a-fseek.o)
 .bss           0x0006cd94        0x0 c:/altera/12.0/nios2eds/bin/gnu/h-i686-mingw32/bin/../lib/gcc/nios2-elf/4.1.2/../../../../nios2-elf/lib\libc.a(lib_a-fstatr.o)
 .bss           0x0006cd94        0x0 c:/altera/12.0/nios2eds/bin/gnu/h-i686-mingw32/bin/../lib/gcc/nios2-elf/4.1.2/../../../../nios2-elf/lib\libc.a(lib_a-ftell.o)
 .bss           0x0006cd94        0x0 c:/altera/12.0/nios2eds/bin/gnu/h-i686-mingw32/bin/../lib/gcc/nios2-elf/4.1.2/../../../../nios2-elf/lib\libc.a(lib_a-fwalk.o)
 .bss           0x0006cd94        0x0 c:/altera/12.0/nios2eds/bin/gnu/h-i686-mingw32/bin/../lib/gcc/nios2-elf/4.1.2/../../../../nios2-elf/lib\libc.a(lib_a-fwrite.o)
 .bss           0x0006cd94        0x0 c:/altera/12.0/nios2eds/bin/gnu/h-i686-mingw32/bin/../lib/gcc/nios2-elf/4.1.2/../../../../nios2-elf/lib\libc.a(lib_a-getc.o)
 .bss           0x0006cd94        0x0 c:/altera/12.0/nios2eds/bin/gnu/h-i686-mingw32/bin/../lib/gcc/nios2-elf/4.1.2/../../../../nios2-elf/lib\libc.a(lib_a-impure.o)
 .bss           0x0006cd94        0x0 c:/altera/12.0/nios2eds/bin/gnu/h-i686-mingw32/bin/../lib/gcc/nios2-elf/4.1.2/../../../../nios2-elf/lib\libc.a(lib_a-int_errno.o)
 .bss           0x0006cd94        0x0 c:/altera/12.0/nios2eds/bin/gnu/h-i686-mingw32/bin/../lib/gcc/nios2-elf/4.1.2/../../../../nios2-elf/lib\libc.a(lib_a-makebuf.o)
 .bss           0x0006cd94       0x28 c:/altera/12.0/nios2eds/bin/gnu/h-i686-mingw32/bin/../lib/gcc/nios2-elf/4.1.2/../../../../nios2-elf/lib\libc.a(lib_a-mallocr.o)
                0x0006cd94                __malloc_current_mallinfo
 .bss           0x0006cdbc        0x0 c:/altera/12.0/nios2eds/bin/gnu/h-i686-mingw32/bin/../lib/gcc/nios2-elf/4.1.2/../../../../nios2-elf/lib\libc.a(lib_a-memcpy.o)
 .bss           0x0006cdbc        0x0 c:/altera/12.0/nios2eds/bin/gnu/h-i686-mingw32/bin/../lib/gcc/nios2-elf/4.1.2/../../../../nios2-elf/lib\libc.a(lib_a-memmove.o)
 .bss           0x0006cdbc        0x0 c:/altera/12.0/nios2eds/bin/gnu/h-i686-mingw32/bin/../lib/gcc/nios2-elf/4.1.2/../../../../nios2-elf/lib\libc.a(lib_a-memset.o)
 .bss           0x0006cdbc        0x0 c:/altera/12.0/nios2eds/bin/gnu/h-i686-mingw32/bin/../lib/gcc/nios2-elf/4.1.2/../../../../nios2-elf/lib\libc.a(lib_a-openr.o)
 .bss           0x0006cdbc        0x0 c:/altera/12.0/nios2eds/bin/gnu/h-i686-mingw32/bin/../lib/gcc/nios2-elf/4.1.2/../../../../nios2-elf/lib\libc.a(lib_a-perror.o)
 .bss           0x0006cdbc        0x0 c:/altera/12.0/nios2eds/bin/gnu/h-i686-mingw32/bin/../lib/gcc/nios2-elf/4.1.2/../../../../nios2-elf/lib\libc.a(lib_a-printf.o)
 .bss           0x0006cdbc        0x0 c:/altera/12.0/nios2eds/bin/gnu/h-i686-mingw32/bin/../lib/gcc/nios2-elf/4.1.2/../../../../nios2-elf/lib\libc.a(lib_a-putc.o)
 .bss           0x0006cdbc        0x0 c:/altera/12.0/nios2eds/bin/gnu/h-i686-mingw32/bin/../lib/gcc/nios2-elf/4.1.2/../../../../nios2-elf/lib\libc.a(lib_a-putchar.o)
 .bss           0x0006cdbc        0x0 c:/altera/12.0/nios2eds/bin/gnu/h-i686-mingw32/bin/../lib/gcc/nios2-elf/4.1.2/../../../../nios2-elf/lib\libc.a(lib_a-puts.o)
 .bss           0x0006cdbc        0x0 c:/altera/12.0/nios2eds/bin/gnu/h-i686-mingw32/bin/../lib/gcc/nios2-elf/4.1.2/../../../../nios2-elf/lib\libc.a(lib_a-refill.o)
 .bss           0x0006cdbc        0x0 c:/altera/12.0/nios2eds/bin/gnu/h-i686-mingw32/bin/../lib/gcc/nios2-elf/4.1.2/../../../../nios2-elf/lib\libc.a(lib_a-rget.o)
 .bss           0x0006cdbc        0x0 c:/altera/12.0/nios2eds/bin/gnu/h-i686-mingw32/bin/../lib/gcc/nios2-elf/4.1.2/../../../../nios2-elf/lib\libc.a(lib_a-sbrkr.o)
 .bss           0x0006cdbc        0x0 c:/altera/12.0/nios2eds/bin/gnu/h-i686-mingw32/bin/../lib/gcc/nios2-elf/4.1.2/../../../../nios2-elf/lib\libc.a(lib_a-sprintf.o)
 .bss           0x0006cdbc        0x0 c:/altera/12.0/nios2eds/bin/gnu/h-i686-mingw32/bin/../lib/gcc/nios2-elf/4.1.2/../../../../nios2-elf/lib\libc.a(lib_a-sscanf.o)
 .bss           0x0006cdbc        0x0 c:/altera/12.0/nios2eds/bin/gnu/h-i686-mingw32/bin/../lib/gcc/nios2-elf/4.1.2/../../../../nios2-elf/lib\libc.a(lib_a-stdio.o)
 .bss           0x0006cdbc        0x0 c:/altera/12.0/nios2eds/bin/gnu/h-i686-mingw32/bin/../lib/gcc/nios2-elf/4.1.2/../../../../nios2-elf/lib\libc.a(lib_a-strcasecmp.o)
 .bss           0x0006cdbc        0x0 c:/altera/12.0/nios2eds/bin/gnu/h-i686-mingw32/bin/../lib/gcc/nios2-elf/4.1.2/../../../../nios2-elf/lib\libc.a(lib_a-strcat.o)
 .bss           0x0006cdbc        0x0 c:/altera/12.0/nios2eds/bin/gnu/h-i686-mingw32/bin/../lib/gcc/nios2-elf/4.1.2/../../../../nios2-elf/lib\libc.a(lib_a-strchr.o)
 .bss           0x0006cdbc        0x0 c:/altera/12.0/nios2eds/bin/gnu/h-i686-mingw32/bin/../lib/gcc/nios2-elf/4.1.2/../../../../nios2-elf/lib\libc.a(lib_a-strcmp.o)
 .bss           0x0006cdbc        0x0 c:/altera/12.0/nios2eds/bin/gnu/h-i686-mingw32/bin/../lib/gcc/nios2-elf/4.1.2/../../../../nios2-elf/lib\libc.a(lib_a-strcpy.o)
 .bss           0x0006cdbc        0x0 c:/altera/12.0/nios2eds/bin/gnu/h-i686-mingw32/bin/../lib/gcc/nios2-elf/4.1.2/../../../../nios2-elf/lib\libc.a(lib_a-strerror.o)
 .bss           0x0006cdbc        0x0 c:/altera/12.0/nios2eds/bin/gnu/h-i686-mingw32/bin/../lib/gcc/nios2-elf/4.1.2/../../../../nios2-elf/lib\libc.a(lib_a-strlen.o)
 .bss           0x0006cdbc        0x0 c:/altera/12.0/nios2eds/bin/gnu/h-i686-mingw32/bin/../lib/gcc/nios2-elf/4.1.2/../../../../nios2-elf/lib\libc.a(lib_a-strncmp.o)
 .bss           0x0006cdbc        0x0 c:/altera/12.0/nios2eds/bin/gnu/h-i686-mingw32/bin/../lib/gcc/nios2-elf/4.1.2/../../../../nios2-elf/lib\libc.a(lib_a-strncpy.o)
 .bss           0x0006cdbc        0x0 c:/altera/12.0/nios2eds/bin/gnu/h-i686-mingw32/bin/../lib/gcc/nios2-elf/4.1.2/../../../../nios2-elf/lib\libc.a(lib_a-strstr.o)
 .bss           0x0006cdbc        0x0 c:/altera/12.0/nios2eds/bin/gnu/h-i686-mingw32/bin/../lib/gcc/nios2-elf/4.1.2/../../../../nios2-elf/lib\libc.a(lib_a-strtok.o)
 .bss           0x0006cdbc        0x0 c:/altera/12.0/nios2eds/bin/gnu/h-i686-mingw32/bin/../lib/gcc/nios2-elf/4.1.2/../../../../nios2-elf/lib\libc.a(lib_a-strtok_r.o)
 .bss           0x0006cdbc        0x0 c:/altera/12.0/nios2eds/bin/gnu/h-i686-mingw32/bin/../lib/gcc/nios2-elf/4.1.2/../../../../nios2-elf/lib\libc.a(lib_a-strtol.o)
 .bss           0x0006cdbc        0x0 c:/altera/12.0/nios2eds/bin/gnu/h-i686-mingw32/bin/../lib/gcc/nios2-elf/4.1.2/../../../../nios2-elf/lib\libc.a(lib_a-u_strerr.o)
 .bss           0x0006cdbc        0x0 c:/altera/12.0/nios2eds/bin/gnu/h-i686-mingw32/bin/../lib/gcc/nios2-elf/4.1.2/../../../../nios2-elf/lib\libc.a(lib_a-vfprintf.o)
 .bss           0x0006cdbc        0x0 c:/altera/12.0/nios2eds/bin/gnu/h-i686-mingw32/bin/../lib/gcc/nios2-elf/4.1.2/../../../../nios2-elf/lib\libc.a(lib_a-vfscanf.o)
 .bss           0x0006cdbc        0x0 c:/altera/12.0/nios2eds/bin/gnu/h-i686-mingw32/bin/../lib/gcc/nios2-elf/4.1.2/../../../../nios2-elf/lib\libc.a(lib_a-wbuf.o)
 .bss           0x0006cdbc        0x0 c:/altera/12.0/nios2eds/bin/gnu/h-i686-mingw32/bin/../lib/gcc/nios2-elf/4.1.2/../../../../nios2-elf/lib\libc.a(lib_a-writer.o)
 .bss           0x0006cdbc        0x0 c:/altera/12.0/nios2eds/bin/gnu/h-i686-mingw32/bin/../lib/gcc/nios2-elf/4.1.2/../../../../nios2-elf/lib\libc.a(lib_a-wsetup.o)
 .bss           0x0006cdbc        0x0 c:/altera/12.0/nios2eds/bin/gnu/h-i686-mingw32/bin/../lib/gcc/nios2-elf/4.1.2/../../../../nios2-elf/lib\libc.a(lib_a-closer.o)
 .bss           0x0006cdbc        0x0 c:/altera/12.0/nios2eds/bin/gnu/h-i686-mingw32/bin/../lib/gcc/nios2-elf/4.1.2/../../../../nios2-elf/lib\libc.a(lib_a-dtoa.o)
 .bss           0x0006cdbc        0x0 c:/altera/12.0/nios2eds/bin/gnu/h-i686-mingw32/bin/../lib/gcc/nios2-elf/4.1.2/../../../../nios2-elf/lib\libc.a(lib_a-flags.o)
 .bss           0x0006cdbc        0x0 c:/altera/12.0/nios2eds/bin/gnu/h-i686-mingw32/bin/../lib/gcc/nios2-elf/4.1.2/../../../../nios2-elf/lib\libc.a(lib_a-fputc.o)
 .bss           0x0006cdbc        0x0 c:/altera/12.0/nios2eds/bin/gnu/h-i686-mingw32/bin/../lib/gcc/nios2-elf/4.1.2/../../../../nios2-elf/lib\libc.a(lib_a-fputs.o)
 .bss           0x0006cdbc        0x0 c:/altera/12.0/nios2eds/bin/gnu/h-i686-mingw32/bin/../lib/gcc/nios2-elf/4.1.2/../../../../nios2-elf/lib\libc.a(lib_a-fvwrite.o)
 .bss           0x0006cdbc        0x0 c:/altera/12.0/nios2eds/bin/gnu/h-i686-mingw32/bin/../lib/gcc/nios2-elf/4.1.2/../../../../nios2-elf/lib\libc.a(lib_a-isattyr.o)
 .bss           0x0006cdbc        0x0 c:/altera/12.0/nios2eds/bin/gnu/h-i686-mingw32/bin/../lib/gcc/nios2-elf/4.1.2/../../../../nios2-elf/lib\libc.a(lib_a-iswspace.o)
 .bss           0x0006cdbc        0x0 c:/altera/12.0/nios2eds/bin/gnu/h-i686-mingw32/bin/../lib/gcc/nios2-elf/4.1.2/../../../../nios2-elf/lib\libc.a(lib_a-locale.o)
 .bss           0x0006cdbc        0x0 c:/altera/12.0/nios2eds/bin/gnu/h-i686-mingw32/bin/../lib/gcc/nios2-elf/4.1.2/../../../../nios2-elf/lib\libc.a(lib_a-lseekr.o)
 .bss           0x0006cdbc        0x0 c:/altera/12.0/nios2eds/bin/gnu/h-i686-mingw32/bin/../lib/gcc/nios2-elf/4.1.2/../../../../nios2-elf/lib\libc.a(lib_a-mbrtowc.o)
 .bss           0x0006cdbc        0x0 c:/altera/12.0/nios2eds/bin/gnu/h-i686-mingw32/bin/../lib/gcc/nios2-elf/4.1.2/../../../../nios2-elf/lib\libc.a(lib_a-mbtowc_r.o)
 .bss           0x0006cdbc        0x0 c:/altera/12.0/nios2eds/bin/gnu/h-i686-mingw32/bin/../lib/gcc/nios2-elf/4.1.2/../../../../nios2-elf/lib\libc.a(lib_a-memchr.o)
 .bss           0x0006cdbc        0x0 c:/altera/12.0/nios2eds/bin/gnu/h-i686-mingw32/bin/../lib/gcc/nios2-elf/4.1.2/../../../../nios2-elf/lib\libc.a(lib_a-memcmp.o)
 .bss           0x0006cdbc        0x0 c:/altera/12.0/nios2eds/bin/gnu/h-i686-mingw32/bin/../lib/gcc/nios2-elf/4.1.2/../../../../nios2-elf/lib\libc.a(lib_a-mprec.o)
 .bss           0x0006cdbc        0x0 c:/altera/12.0/nios2eds/bin/gnu/h-i686-mingw32/bin/../lib/gcc/nios2-elf/4.1.2/../../../../nios2-elf/lib\libc.a(lib_a-readr.o)
 .bss           0x0006cdbc        0x0 c:/altera/12.0/nios2eds/bin/gnu/h-i686-mingw32/bin/../lib/gcc/nios2-elf/4.1.2/../../../../nios2-elf/lib\libc.a(lib_a-reallocr.o)
 .bss           0x0006cdbc        0x0 c:/altera/12.0/nios2eds/bin/gnu/h-i686-mingw32/bin/../lib/gcc/nios2-elf/4.1.2/../../../../nios2-elf/lib\libc.a(lib_a-s_isinfd.o)
 .bss           0x0006cdbc        0x0 c:/altera/12.0/nios2eds/bin/gnu/h-i686-mingw32/bin/../lib/gcc/nios2-elf/4.1.2/../../../../nios2-elf/lib\libc.a(lib_a-s_isnand.o)
 .bss           0x0006cdbc        0x0 c:/altera/12.0/nios2eds/bin/gnu/h-i686-mingw32/bin/../lib/gcc/nios2-elf/4.1.2/../../../../nios2-elf/lib\libc.a(lib_a-sccl.o)
 .bss           0x0006cdbc        0x0 c:/altera/12.0/nios2eds/bin/gnu/h-i686-mingw32/bin/../lib/gcc/nios2-elf/4.1.2/../../../../nios2-elf/lib\libc.a(lib_a-sf_nan.o)
 .bss           0x0006cdbc        0x0 c:/altera/12.0/nios2eds/bin/gnu/h-i686-mingw32/bin/../lib/gcc/nios2-elf/4.1.2/../../../../nios2-elf/lib\libc.a(lib_a-strtod.o)
 .bss           0x0006cdbc        0x0 c:/altera/12.0/nios2eds/bin/gnu/h-i686-mingw32/bin/../lib/gcc/nios2-elf/4.1.2/../../../../nios2-elf/lib\libc.a(lib_a-strtoll_r.o)
 .bss           0x0006cdbc        0x0 c:/altera/12.0/nios2eds/bin/gnu/h-i686-mingw32/bin/../lib/gcc/nios2-elf/4.1.2/../../../../nios2-elf/lib\libc.a(lib_a-strtoul.o)
 .bss           0x0006cdbc        0x0 c:/altera/12.0/nios2eds/bin/gnu/h-i686-mingw32/bin/../lib/gcc/nios2-elf/4.1.2/../../../../nios2-elf/lib\libc.a(lib_a-strtoull_r.o)
 .bss           0x0006cdbc        0x0 c:/altera/12.0/nios2eds/bin/gnu/h-i686-mingw32/bin/../lib/gcc/nios2-elf/4.1.2/../../../../nios2-elf/lib\libc.a(lib_a-ungetc.o)
 .bss           0x0006cdbc        0x0 c:/altera/12.0/nios2eds/bin/gnu/h-i686-mingw32/bin/../lib/gcc/nios2-elf/4.1.2/../../../../nios2-elf/lib\libc.a(lib_a-callocr.o)
 .bss           0x0006cdbc        0x0 c:/altera/12.0/nios2eds/bin/gnu/h-i686-mingw32/bin/../lib/gcc/nios2-elf/4.1.2/../../../../nios2-elf/lib\libc.a(lib_a-gdtoa-gethex.o)
 .bss           0x0006cdbc        0x0 c:/altera/12.0/nios2eds/bin/gnu/h-i686-mingw32/bin/../lib/gcc/nios2-elf/4.1.2/../../../../nios2-elf/lib\libc.a(lib_a-gdtoa-hexnan.o)
 .bss           0x0006cdbc        0x0 c:/altera/12.0/nios2eds/bin/gnu/h-i686-mingw32/bin/../lib/gcc/nios2-elf/4.1.2\libgcc.a(_muldi3.o)
 .bss           0x0006cdbc        0x0 c:/altera/12.0/nios2eds/bin/gnu/h-i686-mingw32/bin/../lib/gcc/nios2-elf/4.1.2\libgcc.a(_fixunsdfsi.o)
 .bss           0x0006cdbc        0x0 c:/altera/12.0/nios2eds/bin/gnu/h-i686-mingw32/bin/../lib/gcc/nios2-elf/4.1.2\libgcc.a(_udivdi3.o)
 .bss           0x0006cdbc        0x0 c:/altera/12.0/nios2eds/bin/gnu/h-i686-mingw32/bin/../lib/gcc/nios2-elf/4.1.2\libgcc.a(_umoddi3.o)
 .bss           0x0006cdbc        0x0 c:/altera/12.0/nios2eds/bin/gnu/h-i686-mingw32/bin/../lib/gcc/nios2-elf/4.1.2\libgcc.a(_ne_sf.o)
 .bss           0x0006cdbc        0x0 c:/altera/12.0/nios2eds/bin/gnu/h-i686-mingw32/bin/../lib/gcc/nios2-elf/4.1.2\libgcc.a(_gt_sf.o)
 .bss           0x0006cdbc        0x0 c:/altera/12.0/nios2eds/bin/gnu/h-i686-mingw32/bin/../lib/gcc/nios2-elf/4.1.2\libgcc.a(_lt_sf.o)
 .bss           0x0006cdbc        0x0 c:/altera/12.0/nios2eds/bin/gnu/h-i686-mingw32/bin/../lib/gcc/nios2-elf/4.1.2\libgcc.a(_addsub_df.o)
 .bss           0x0006cdbc        0x0 c:/altera/12.0/nios2eds/bin/gnu/h-i686-mingw32/bin/../lib/gcc/nios2-elf/4.1.2\libgcc.a(_mul_df.o)
 .bss           0x0006cdbc        0x0 c:/altera/12.0/nios2eds/bin/gnu/h-i686-mingw32/bin/../lib/gcc/nios2-elf/4.1.2\libgcc.a(_div_df.o)
 .bss           0x0006cdbc        0x0 c:/altera/12.0/nios2eds/bin/gnu/h-i686-mingw32/bin/../lib/gcc/nios2-elf/4.1.2\libgcc.a(_eq_df.o)
 .bss           0x0006cdbc        0x0 c:/altera/12.0/nios2eds/bin/gnu/h-i686-mingw32/bin/../lib/gcc/nios2-elf/4.1.2\libgcc.a(_ne_df.o)
 .bss           0x0006cdbc        0x0 c:/altera/12.0/nios2eds/bin/gnu/h-i686-mingw32/bin/../lib/gcc/nios2-elf/4.1.2\libgcc.a(_gt_df.o)
 .bss           0x0006cdbc        0x0 c:/altera/12.0/nios2eds/bin/gnu/h-i686-mingw32/bin/../lib/gcc/nios2-elf/4.1.2\libgcc.a(_ge_df.o)
 .bss           0x0006cdbc        0x0 c:/altera/12.0/nios2eds/bin/gnu/h-i686-mingw32/bin/../lib/gcc/nios2-elf/4.1.2\libgcc.a(_lt_df.o)
 .bss           0x0006cdbc        0x0 c:/altera/12.0/nios2eds/bin/gnu/h-i686-mingw32/bin/../lib/gcc/nios2-elf/4.1.2\libgcc.a(_le_df.o)
 .bss           0x0006cdbc        0x0 c:/altera/12.0/nios2eds/bin/gnu/h-i686-mingw32/bin/../lib/gcc/nios2-elf/4.1.2\libgcc.a(_si_to_df.o)
 .bss           0x0006cdbc        0x0 c:/altera/12.0/nios2eds/bin/gnu/h-i686-mingw32/bin/../lib/gcc/nios2-elf/4.1.2\libgcc.a(_df_to_si.o)
 .bss           0x0006cdbc        0x0 c:/altera/12.0/nios2eds/bin/gnu/h-i686-mingw32/bin/../lib/gcc/nios2-elf/4.1.2\libgcc.a(_df_to_sf.o)
 .bss           0x0006cdbc        0x0 c:/altera/12.0/nios2eds/bin/gnu/h-i686-mingw32/bin/../lib/gcc/nios2-elf/4.1.2\libgcc.a(_thenan_df.o)
 .bss           0x0006cdbc        0x0 c:/altera/12.0/nios2eds/bin/gnu/h-i686-mingw32/bin/../lib/gcc/nios2-elf/4.1.2\libgcc.a(_usi_to_df.o)
 .bss           0x0006cdbc        0x0 c:/altera/12.0/nios2eds/bin/gnu/h-i686-mingw32/bin/../lib/gcc/nios2-elf/4.1.2\libgcc.a(_clz.o)
 .bss           0x0006cdbc        0x0 c:/altera/12.0/nios2eds/bin/gnu/h-i686-mingw32/bin/../lib/gcc/nios2-elf/4.1.2\libgcc.a(_clzsi2.o)
 .bss           0x0006cdbc        0x0 c:/altera/12.0/nios2eds/bin/gnu/h-i686-mingw32/bin/../lib/gcc/nios2-elf/4.1.2\libgcc.a(_unpack_sf.o)
 .bss           0x0006cdbc        0x0 c:/altera/12.0/nios2eds/bin/gnu/h-i686-mingw32/bin/../lib/gcc/nios2-elf/4.1.2\libgcc.a(_fpcmp_parts_sf.o)
 .bss           0x0006cdbc        0x0 c:/altera/12.0/nios2eds/bin/gnu/h-i686-mingw32/bin/../lib/gcc/nios2-elf/4.1.2\libgcc.a(_make_sf.o)
 .bss           0x0006cdbc        0x0 c:/altera/12.0/nios2eds/bin/gnu/h-i686-mingw32/bin/../lib/gcc/nios2-elf/4.1.2\libgcc.a(_pack_df.o)
 .bss           0x0006cdbc        0x0 c:/altera/12.0/nios2eds/bin/gnu/h-i686-mingw32/bin/../lib/gcc/nios2-elf/4.1.2\libgcc.a(_unpack_df.o)
 .bss           0x0006cdbc        0x0 c:/altera/12.0/nios2eds/bin/gnu/h-i686-mingw32/bin/../lib/gcc/nios2-elf/4.1.2\libgcc.a(_fpcmp_parts_df.o)
 .bss           0x0006cdbc        0x0 c:/altera/12.0/nios2eds/bin/gnu/h-i686-mingw32/bin/../lib/gcc/nios2-elf/4.1.2\libgcc.a(_pack_sf.o)
 .bss           0x0006cdbc        0x0 ../web_server_bsp/\libucosii_bsp.a(alt_dcache_flush.o)
 .bss           0x0006cdbc        0x0 ../web_server_bsp/\libucosii_bsp.a(alt_flash_dev.o)
 .bss           0x0006cdbc        0x0 ../web_server_bsp/\libucosii_bsp.a(alt_fstat.o)
 .bss           0x0006cdbc        0x0 ../web_server_bsp/\libucosii_bsp.a(alt_isatty.o)
 .bss           0x0006cdbc        0x0 ../web_server_bsp/\libucosii_bsp.a(alt_load.o)
 .bss           0x0006cdbc        0x0 ../web_server_bsp/\libucosii_bsp.a(alt_lseek.o)
 .bss           0x0006cdbc        0x0 ../web_server_bsp/\libucosii_bsp.a(alt_main.o)
 .bss           0x0006cdbc        0x0 ../web_server_bsp/\libucosii_bsp.a(alt_open.o)
 .bss           0x0006cdbc        0x0 ../web_server_bsp/\libucosii_bsp.a(alt_release_fd.o)
 .bss           0x0006cdbc        0x0 ../web_server_bsp/\libucosii_bsp.a(alt_sbrk.o)
 .bss           0x0006cdbc        0x0 ../web_server_bsp/\libucosii_bsp.a(alt_tick.o)
 .bss           0x0006cdbc        0x0 ../web_server_bsp/\libucosii_bsp.a(alt_usleep.o)
 .bss           0x0006cdbc        0x0 ../web_server_bsp/\libucosii_bsp.a(alt_env_lock.o)
 .bss           0x0006cdbc        0x0 ../web_server_bsp/\libucosii_bsp.a(alt_malloc_lock.o)
 .bss           0x0006cdbc        0x0 ../web_server_bsp/\libucosii_bsp.a(os_core.o)
 .bss           0x0006cdbc        0x0 ../web_server_bsp/\libucosii_bsp.a(os_dbg.o)
 .bss           0x0006cdbc        0x0 ../web_server_bsp/\libucosii_bsp.a(os_flag.o)
 .bss           0x0006cdbc        0x0 ../web_server_bsp/\libucosii_bsp.a(os_mbox.o)
 .bss           0x0006cdbc        0x0 ../web_server_bsp/\libucosii_bsp.a(os_mem.o)
 .bss           0x0006cdbc        0x0 ../web_server_bsp/\libucosii_bsp.a(os_q.o)
 .bss           0x0006cdbc        0x0 ../web_server_bsp/\libucosii_bsp.a(os_sem.o)
 .bss           0x0006cdbc        0x0 ../web_server_bsp/\libucosii_bsp.a(os_task.o)
 .bss           0x0006cdbc        0x0 ../web_server_bsp/\libucosii_bsp.a(os_time.o)
 .bss           0x0006cdbc        0x0 ../web_server_bsp/\libucosii_bsp.a(alt_sys_init.o)
 .bss           0x0006cdbc        0x0 ../web_server_bsp/\libucosii_bsp.a(altera_avalon_cfi_flash.o)
 .bss           0x0006cdbc        0x0 ../web_server_bsp/\libucosii_bsp.a(altera_avalon_cfi_flash_table.o)
 .bss           0x0006cdbc        0x0 ../web_server_bsp/\libucosii_bsp.a(altera_avalon_jtag_uart_fd.o)
 .bss           0x0006cdbc        0x0 ../web_server_bsp/\libucosii_bsp.a(altera_avalon_jtag_uart_init.o)
 .bss           0x0006cdbc        0x0 ../web_server_bsp/\libucosii_bsp.a(altera_avalon_jtag_uart_ioctl.o)
 .bss           0x0006cdbc        0x0 ../web_server_bsp/\libucosii_bsp.a(altera_avalon_jtag_uart_read.o)
 .bss           0x0006cdbc        0x0 ../web_server_bsp/\libucosii_bsp.a(altera_avalon_jtag_uart_write.o)
 .bss           0x0006cdbc        0x0 ../web_server_bsp/\libucosii_bsp.a(altera_avalon_lcd_16207.o)
 .bss           0x0006cdbc        0x0 ../web_server_bsp/\libucosii_bsp.a(altera_avalon_lcd_16207_fd.o)
 .bss           0x0006cdbc        0x0 ../web_server_bsp/\libucosii_bsp.a(altera_avalon_sgdma.o)
 .bss           0x0006cdbc        0x0 ../web_server_bsp/\libucosii_bsp.a(altera_avalon_timer_sc.o)
 .bss           0x0006cdbc        0x0 ../web_server_bsp/\libucosii_bsp.a(altera_avalon_tse.o)
 .bss           0x0006cdbc        0x0 ../web_server_bsp/\libucosii_bsp.a(altera_avalon_uart_fd.o)
 .bss           0x0006cdbc        0x0 ../web_server_bsp/\libucosii_bsp.a(altera_avalon_uart_init.o)
 .bss           0x0006cdbc        0x0 ../web_server_bsp/\libucosii_bsp.a(altera_avalon_uart_read.o)
 .bss           0x0006cdbc        0x0 ../web_server_bsp/\libucosii_bsp.a(altera_avalon_uart_write.o)
 .bss           0x0006cdbc        0x0 ../web_server_bsp/\libucosii_bsp.a(altera_ro_zipfs.o)
 .bss           0x0006cdbc        0x0 ../web_server_bsp/\libucosii_bsp.a(ins_tse_mac.o)
 .bss           0x0006cdbc        0x0 ../web_server_bsp/\libucosii_bsp.a(alt_iniche_close.o)
 .bss           0x0006cdbc        0x0 ../web_server_bsp/\libucosii_bsp.a(alt_iniche_dev.o)
 .bss           0x0006cdbc        0x0 ../web_server_bsp/\libucosii_bsp.a(alt_iniche_read.o)
 .bss           0x0006cdbc        0x0 ../web_server_bsp/\libucosii_bsp.a(alt_iniche_write.o)
 .bss           0x0006cdbc        0x0 ../web_server_bsp/\libucosii_bsp.a(ipnet.o)
 .bss           0x0006cdbc       0x3c ../web_server_bsp/\libucosii_bsp.a(ipstart.o)
 .bss           0x0006cdf8        0x0 ../web_server_bsp/\libucosii_bsp.a(igmp_cmn.o)
 .bss           0x0006cdf8        0x0 ../web_server_bsp/\libucosii_bsp.a(bsdsock.o)
 .bss           0x0006cdf8        0x0 ../web_server_bsp/\libucosii_bsp.a(cksum.o)
 .bss           0x0006cdf8       0x18 ../web_server_bsp/\libucosii_bsp.a(in_utils.o)
 .bss           0x0006ce10        0x0 ../web_server_bsp/\libucosii_bsp.a(netmain.o)
 .bss           0x0006ce10        0x0 ../web_server_bsp/\libucosii_bsp.a(tk_crnos.o)
 .bss           0x0006ce10        0x0 ../web_server_bsp/\libucosii_bsp.a(dhcpclnt.o)
 .bss           0x0006ce10        0x0 ../web_server_bsp/\libucosii_bsp.a(dhcputil.o)
 .bss           0x0006ce10        0x0 ../web_server_bsp/\libucosii_bsp.a(pktalloc.o)
 .bss           0x0006ce10        0x0 ../web_server_bsp/\libucosii_bsp.a(q.o)
 .bss           0x0006ce10        0x0 ../web_server_bsp/\libucosii_bsp.a(udp_open.o)
 .bss           0x0006ce10        0x0 ../web_server_bsp/\libucosii_bsp.a(asm_cksum.o)
 .bss           0x0006ce10        0x0 ../web_server_bsp/\libucosii_bsp.a(brdutils.o)
 .bss           0x0006ce10        0x0 ../web_server_bsp/\libucosii_bsp.a(osportco.o)
 .bss           0x0006ce10        0x0 ../web_server_bsp/\libucosii_bsp.a(targnios.o)
 .bss           0x0006ce10        0x0 ../web_server_bsp/\libucosii_bsp.a(nptcp.o)
 .bss           0x0006ce10        0x0 ../web_server_bsp/\libucosii_bsp.a(rawsock.o)
 .bss           0x0006ce10        0x0 ../web_server_bsp/\libucosii_bsp.a(sockcall.o)
 .bss           0x0006ce10        0x0 ../web_server_bsp/\libucosii_bsp.a(socket.o)
 .bss           0x0006ce10        0x0 ../web_server_bsp/\libucosii_bsp.a(socket2.o)
 .bss           0x0006ce10        0x0 ../web_server_bsp/\libucosii_bsp.a(soselect.o)
 .bss           0x0006ce10        0x0 ../web_server_bsp/\libucosii_bsp.a(tcp_in.o)
 .bss           0x0006ce10        0x0 ../web_server_bsp/\libucosii_bsp.a(tcp_out.o)
 .bss           0x0006ce10        0x0 ../web_server_bsp/\libucosii_bsp.a(tcp_subr.o)
 .bss           0x0006ce10        0x0 ../web_server_bsp/\libucosii_bsp.a(tcp_timr.o)
 .bss           0x0006ce10        0x0 ../web_server_bsp/\libucosii_bsp.a(tcp_usr.o)
 .bss           0x0006ce10        0x0 ../web_server_bsp/\libucosii_bsp.a(tcpport.o)
 .bss           0x0006ce10        0x0 ../web_server_bsp/\libucosii_bsp.a(udpsock.o)
 .bss           0x0006ce10        0x0 ../web_server_bsp/\libucosii_bsp.a(alt_alarm_start.o)
 .bss           0x0006ce10        0x0 ../web_server_bsp/\libucosii_bsp.a(alt_busy_sleep.o)
 .bss           0x0006ce10        0x0 ../web_server_bsp/\libucosii_bsp.a(alt_close.o)
 .bss           0x0006ce10        0x0 ../web_server_bsp/\libucosii_bsp.a(alt_dcache_flush_all.o)
 .bss           0x0006ce10        0x0 ../web_server_bsp/\libucosii_bsp.a(alt_dev.o)
 .bss           0x0006ce10        0x0 ../web_server_bsp/\libucosii_bsp.a(alt_dev_llist_insert.o)
 .bss           0x0006ce10        0x0 ../web_server_bsp/\libucosii_bsp.a(alt_do_ctors.o)
 .bss           0x0006ce10        0x0 ../web_server_bsp/\libucosii_bsp.a(alt_do_dtors.o)
 .bss           0x0006ce10        0x0 ../web_server_bsp/\libucosii_bsp.a(alt_errno.o)
 .bss           0x0006ce10        0x0 ../web_server_bsp/\libucosii_bsp.a(alt_find_dev.o)
 .bss           0x0006ce10        0x0 ../web_server_bsp/\libucosii_bsp.a(alt_find_file.o)
 .bss           0x0006ce10        0x0 ../web_server_bsp/\libucosii_bsp.a(alt_fs_reg.o)
 .bss           0x0006ce10        0x0 ../web_server_bsp/\libucosii_bsp.a(alt_get_fd.o)
 .bss           0x0006ce10        0x0 ../web_server_bsp/\libucosii_bsp.a(alt_icache_flush_all.o)
 .bss           0x0006ce10        0x0 ../web_server_bsp/\libucosii_bsp.a(alt_iic.o)
 .bss           0x0006ce10        0x0 ../web_server_bsp/\libucosii_bsp.a(alt_iic_isr_register.o)
 .bss           0x0006ce10        0x0 ../web_server_bsp/\libucosii_bsp.a(alt_io_redirect.o)
 .bss           0x0006ce10        0x0 ../web_server_bsp/\libucosii_bsp.a(alt_irq_entry.o)
 .bss           0x0006ce10        0x0 ../web_server_bsp/\libucosii_bsp.a(alt_irq_handler.o)
 .bss           0x0006ce10        0x0 ../web_server_bsp/\libucosii_bsp.a(alt_irq_vars.o)
 .bss           0x0006ce10        0x0 ../web_server_bsp/\libucosii_bsp.a(alt_read.o)
 .bss           0x0006ce10        0x0 ../web_server_bsp/\libucosii_bsp.a(alt_remap_cached.o)
 .bss           0x0006ce10        0x0 ../web_server_bsp/\libucosii_bsp.a(alt_remap_uncached.o)
 .bss           0x0006ce10        0x0 ../web_server_bsp/\libucosii_bsp.a(alt_uncached_malloc.o)
 .bss           0x0006ce10        0x0 ../web_server_bsp/\libucosii_bsp.a(alt_write.o)
 .bss           0x0006ce10        0x0 ../web_server_bsp/\libucosii_bsp.a(altera_nios2_qsys_irq.o)
 .bss           0x0006ce10        0x0 ../web_server_bsp/\libucosii_bsp.a(os_cpu_a.o)
 .bss           0x0006ce10        0x0 ../web_server_bsp/\libucosii_bsp.a(os_cpu_c.o)
 .bss           0x0006ce10        0x0 ../web_server_bsp/\libucosii_bsp.a(altera_avalon_cfi_flash_amd.o)
 .bss           0x0006ce10        0x0 ../web_server_bsp/\libucosii_bsp.a(altera_avalon_cfi_flash_intel.o)
 .bss           0x0006ce10        0x0 ../web_server_bsp/\libucosii_bsp.a(allports.o)
 .bss           0x0006ce10        0x0 ../web_server_bsp/\libucosii_bsp.a(timeouts.o)
 .bss           0x0006ce10        0x0 ../web_server_bsp/\libucosii_bsp.a(tk_misc.o)
 .bss           0x0006ce10        0x0 ../web_server_bsp/\libucosii_bsp.a(alt_iniche_fcntl.o)
 .bss           0x0006ce10        0x0 ../web_server_bsp/\libucosii_bsp.a(et_arp.o)
 .bss           0x0006ce10        0x0 ../web_server_bsp/\libucosii_bsp.a(iface.o)
 .bss           0x0006ce10        0x0 ../web_server_bsp/\libucosii_bsp.a(ip.o)
 .bss           0x0006ce10        0x0 ../web_server_bsp/\libucosii_bsp.a(ip_reasm.o)
 .bss           0x0006ce10        0x0 ../web_server_bsp/\libucosii_bsp.a(ipdemux.o)
 .bss           0x0006ce10        0x0 ../web_server_bsp/\libucosii_bsp.a(ipmc.o)
 .bss           0x0006ce10        0x0 ../web_server_bsp/\libucosii_bsp.a(ipport.o)
 .bss           0x0006ce10        0x0 ../web_server_bsp/\libucosii_bsp.a(ipraw.o)
 .bss           0x0006ce10        0x0 ../web_server_bsp/\libucosii_bsp.a(iproute.o)
 .bss           0x0006ce10        0x0 ../web_server_bsp/\libucosii_bsp.a(udp.o)
 .bss           0x0006ce10        0x0 ../web_server_bsp/\libucosii_bsp.a(igmp.o)
 .bss           0x0006ce10        0x0 ../web_server_bsp/\libucosii_bsp.a(igmp2.o)
 .bss           0x0006ce10        0x0 ../web_server_bsp/\libucosii_bsp.a(ipopt.o)
 .bss           0x0006ce10        0x0 ../web_server_bsp/\libucosii_bsp.a(u_mctest.o)
 .bss           0x0006ce10        0x0 ../web_server_bsp/\libucosii_bsp.a(dhcsetup.o)
 .bss           0x0006ce10        0x0 ../web_server_bsp/\libucosii_bsp.a(memdev.o)
 .bss           0x0006ce10       0x1e ../web_server_bsp/\libucosii_bsp.a(parseip.o)
 .bss           0x0006ce2e        0x0 ../web_server_bsp/\libucosii_bsp.a(tcpcksum.o)
 .bss           0x0006ce2e        0x0 ../web_server_bsp/\libucosii_bsp.a(in_pcb.o)
 .bss           0x0006ce2e        0x0 ../web_server_bsp/\libucosii_bsp.a(vfsfiles.o)
 .bss           0x0006ce2e        0x0 ../web_server_bsp/\libucosii_bsp.a(vfsport.o)
 .bss           0x0006ce2e        0x0 ../web_server_bsp/\libucosii_bsp.a(alt_exception_entry.o)
 .bss           0x0006ce2e        0x0 ../web_server_bsp/\libucosii_bsp.a(alt_fcntl.o)
 .bss           0x0006ce2e        0x0 ../web_server_bsp/\libucosii_bsp.a(alt_icache_flush.o)
 .bss           0x0006ce2e        0x0 ../web_server_bsp/\libucosii_bsp.a(icmp.o)
 .bss           0x0006ce2e        0x0 c:/altera/12.0/nios2eds/bin/gnu/h-i686-mingw32/bin/../lib/gcc/nios2-elf/4.1.2/../../../../nios2-elf/lib\libc.a(lib_a-atexit.o)
 .bss           0x0006ce2e        0x0 c:/altera/12.0/nios2eds/bin/gnu/h-i686-mingw32/bin/../lib/gcc/nios2-elf/4.1.2/../../../../nios2-elf/lib\libc.a(lib_a-calloc.o)
 .bss           0x0006ce2e        0x0 c:/altera/12.0/nios2eds/bin/gnu/h-i686-mingw32/bin/../lib/gcc/nios2-elf/4.1.2/../../../../nios2-elf/lib\libc.a(lib_a-exit.o)
 .bss           0x0006ce2e        0x0 c:/altera/12.0/nios2eds/bin/gnu/h-i686-mingw32/bin/../lib/gcc/nios2-elf/4.1.2/../../../../nios2-elf/lib\libc.a(lib_a-malloc.o)
 .bss           0x0006ce2e        0x0 c:/altera/12.0/nios2eds/bin/gnu/h-i686-mingw32/bin/../lib/gcc/nios2-elf/4.1.2/../../../../nios2-elf/lib\libc.a(lib_a-vprintf.o)
 .bss           0x0006ce2e        0x0 c:/altera/12.0/nios2eds/bin/gnu/h-i686-mingw32/bin/../lib/gcc/nios2-elf/4.1.2/../../../../nios2-elf/lib\libc.a(lib_a-vsprintf.o)
 .bss           0x0006ce2e        0x0 c:/altera/12.0/nios2eds/bin/gnu/h-i686-mingw32/bin/../lib/gcc/nios2-elf/4.1.2/../../../../nios2-elf/lib\libc.a(lib_a-__atexit.o)
 .bss           0x0006ce2e        0x0 c:/altera/12.0/nios2eds/bin/gnu/h-i686-mingw32/bin/../lib/gcc/nios2-elf/4.1.2/../../../../nios2-elf/lib\libc.a(lib_a-__call_atexit.o)
 .bss           0x0006ce2e        0x0 ../web_server_bsp/\libucosii_bsp.a(alt_exit.o)
 *(COMMON)
 *fill*         0x0006ce2e        0x2 00
 COMMON         0x0006ce30   0x5d0df8 obj/default/http.o
                0x0006ce30                upload_buf
                0x00625bb8                board_funcs
                0x00625bf6                http_rx_buffer
                0x00631bf8                flash_inf
                0x00631c28                http_tx_buffer
 COMMON         0x0063dc28      0x104 obj/default/srec_flash.o
                0x0063dc28                frag
 COMMON         0x0063dd2c     0x8000 obj/default/web_server.o
                0x0063dd2c                SSDTaskStk
                0x0063fd2c                WSInitialTaskStk
                0x00641d2c                LEDTaskStk
                0x00643d2c                BCTaskStk
 COMMON         0x00645d2c      0x100 c:/altera/12.0/nios2eds/bin/gnu/h-i686-mingw32/bin/../lib/gcc/nios2-elf/4.1.2/../../../../nios2-elf/lib\libc.a(lib_a-gdtoa-gethex.o)
                0x00645d2c                __hexdig
 COMMON         0x00645e2c     0x3224 ../web_server_bsp/\libucosii_bsp.a(os_core.o)
                0x00645e2c                OSFlagTbl
                0x0064619c                OSMemTbl
                0x00646dcc                OSTaskStatStk
                0x006475cc                OSQTbl
                0x006477ac                OSTaskIdleStk
                0x00647fac                OSEventTbl
                0x00648aec                OSTCBTbl
                0x00648ffc                OSTCBPrioTbl
 COMMON         0x00649050       0xe0 ../web_server_bsp/\libucosii_bsp.a(alt_sys_init.o)
                0x00649050                tse_mac_if
 COMMON         0x00649130       0x20 ../web_server_bsp/\libucosii_bsp.a(altera_avalon_tse.o)
                0x00649130                pmac_groups
                0x00649140                pphy_profiles
 COMMON         0x00649150      0x160 ../web_server_bsp/\libucosii_bsp.a(ins_tse_mac.o)
                0x00649150                tse_iniche_dev_driver_data
                0x00649180                tse
 COMMON         0x006492b0       0x14 ../web_server_bsp/\libucosii_bsp.a(ipnet.o)
                0x006492b0                rcvdq
 COMMON         0x006492c4      0x310 ../web_server_bsp/\libucosii_bsp.a(ipstart.o)
                0x006492c4                netstatic
                0x006495c4                nets
 COMMON         0x006495d4       0x64 ../web_server_bsp/\libucosii_bsp.a(igmp_cmn.o)
                0x006495d4                igmpstats
 COMMON         0x00649638       0x24 ../web_server_bsp/\libucosii_bsp.a(in_utils.o)
                0x00649638                eth_prt_buf
                0x0064964a                ipreturn
 COMMON         0x0064965c       0xf0 ../web_server_bsp/\libucosii_bsp.a(dhcpclnt.o)
                0x0064965c                dhc_states
 COMMON         0x0064974c      0x128 ../web_server_bsp/\libucosii_bsp.a(pktalloc.o)
                0x0064974c                lilfreeq
                0x00649760                memestats
                0x00649770                pktlog
                0x00649860                bigfreeq
 COMMON         0x00649874      0x1ec ../web_server_bsp/\libucosii_bsp.a(osportco.o)
                0x00649874                global_tcb_ext
                0x00649970                global_TCPwakeup_set
 COMMON         0x00649a60       0x58 ../web_server_bsp/\libucosii_bsp.a(targnios.o)
                0x00649a60                resid_semaphore
                0x00649aa0                app_semaphore
 COMMON         0x00649ab8       0x78 ../web_server_bsp/\libucosii_bsp.a(nptcp.o)
                0x00649ab8                soq
                0x00649acc                tcpmib
                0x00649b08                mbufq
                0x00649b1c                mfreeq
 COMMON         0x00649b30       0x28 ../web_server_bsp/\libucosii_bsp.a(tcp_in.o)
                0x00649b30                tcp_saveti
 COMMON         0x00649b58      0x10c ../web_server_bsp/\libucosii_bsp.a(tcp_subr.o)
                0x00649b58                tcb
                0x00649b84                tcpstat
 COMMON         0x00649c64      0x100 ../web_server_bsp/\libucosii_bsp.a(alt_irq_handler.o)
                0x00649c64                alt_irq
 COMMON         0x00649d64       0x64 ../web_server_bsp/\libucosii_bsp.a(timeouts.o)
                0x00649d64                intimers
 COMMON         0x00649dc8      0x100 ../web_server_bsp/\libucosii_bsp.a(et_arp.o)
                0x00649dc8                arp_table
 COMMON         0x00649ec8       0x14 ../web_server_bsp/\libucosii_bsp.a(iface.o)
                0x00649ec8                netlist
 COMMON         0x00649edc       0x50 ../web_server_bsp/\libucosii_bsp.a(ip.o)
                0x00649edc                ip_mib
 COMMON         0x00649f2c       0x18 ../web_server_bsp/\libucosii_bsp.a(ip_reasm.o)
                0x00649f2c                ire_stats
 COMMON         0x00649f44       0x10 ../web_server_bsp/\libucosii_bsp.a(udp.o)
                0x00649f44                udp_mib
 COMMON         0x00649f54       0x68 ../web_server_bsp/\libucosii_bsp.a(icmp.o)
                0x00649f54                icmp_mib
 COMMON         0x00649fbc      0x190 c:/altera/12.0/nios2eds/bin/gnu/h-i686-mingw32/bin/../lib/gcc/nios2-elf/4.1.2/../../../../nios2-elf/lib\libc.a(lib_a-atexit.o)
                0x00649fbc                _atexit0
                0x0064a14c                . = ALIGN (0x4)
                0x0064a14c                __bss_end = ABSOLUTE (.)

.sdram          0x0064a14c        0x0
                0x0064a14c                PROVIDE (_alt_partition_sdram_start, ABSOLUTE (.))
 *(.sdram. sdram.*)
                0x0064a14c                . = ALIGN (0x4)
                0x0064a14c                PROVIDE (_alt_partition_sdram_end, ABSOLUTE (.))
                0x0064a14c                _end = ABSOLUTE (.)
                0x0064a14c                end = ABSOLUTE (.)
                0x0064a14c                __alt_stack_base = ABSOLUTE (.)
                0x0064a14c                PROVIDE (_alt_partition_sdram_load_addr, LOADADDR (.sdram))

.sram           0x08000000        0x0 load address 0x0064a14c
                0x08000000                PROVIDE (_alt_partition_sram_start, ABSOLUTE (.))
 *(.sram. sram.*)
                0x08000000                . = ALIGN (0x4)
                0x08000000                PROVIDE (_alt_partition_sram_end, ABSOLUTE (.))
                0x0064a14c                PROVIDE (_alt_partition_sram_load_addr, LOADADDR (.sram))

.onchip_memory2
                0x08200000        0x0 load address 0x0064a14c
                0x08200000                PROVIDE (_alt_partition_onchip_memory2_start, ABSOLUTE (.))
 *(.onchip_memory2. onchip_memory2.*)
                0x08200000                . = ALIGN (0x4)
                0x08200000                PROVIDE (_alt_partition_onchip_memory2_end, ABSOLUTE (.))
                0x0064a14c                PROVIDE (_alt_partition_onchip_memory2_load_addr, LOADADDR (.onchip_memory2))

.descriptor_memory
                0x08220000        0x0 load address 0x0064a14c
                0x08220000                PROVIDE (_alt_partition_descriptor_memory_start, ABSOLUTE (.))
 *(.descriptor_memory. descriptor_memory.*)
                0x08220000                . = ALIGN (0x4)
                0x08220000                PROVIDE (_alt_partition_descriptor_memory_end, ABSOLUTE (.))
                0x0064a14c                PROVIDE (_alt_partition_descriptor_memory_load_addr, LOADADDR (.descriptor_memory))

.cfi_flash      0x09000000        0x0 load address 0x0064a14c
                0x09000000                PROVIDE (_alt_partition_cfi_flash_start, ABSOLUTE (.))
 *(.cfi_flash. cfi_flash.*)
                0x09000000                . = ALIGN (0x4)
                0x09000000                PROVIDE (_alt_partition_cfi_flash_end, ABSOLUTE (.))
                0x0064a14c                PROVIDE (_alt_partition_cfi_flash_load_addr, LOADADDR (.cfi_flash))

.stab
 *(.stab)

.stabstr
 *(.stabstr)

.stab.excl
 *(.stab.excl)

.stab.exclstr
 *(.stab.exclstr)

.stab.index
 *(.stab.index)

.stab.indexstr
 *(.stab.indexstr)

.comment        0x00000000       0x23
 *(.comment)
 .comment       0x00000000       0x23 obj/default/alt_error_handler.o
                                 0x24 (size before relaxing)
 .comment       0x00000000       0x24 obj/default/http.o
 .comment       0x00000000       0x24 obj/default/network_utilities.o
 .comment       0x00000000       0x24 obj/default/srec_flash.o
 .comment       0x00000000       0x24 obj/default/tse_my_system.o
 .comment       0x00000000       0x24 obj/default/web_server.o
 .comment       0x00000000       0x24 c:/altera/12.0/nios2eds/bin/gnu/h-i686-mingw32/bin/../lib/gcc/nios2-elf/4.1.2\libgcc.a(lib2-divmod.o)
 .comment       0x00000000       0x24 c:/altera/12.0/nios2eds/bin/gnu/h-i686-mingw32/bin/../lib/gcc/nios2-elf/4.1.2/../../../../nios2-elf/lib\libc.a(lib_a-atoi.o)
 .comment       0x00000000       0x24 c:/altera/12.0/nios2eds/bin/gnu/h-i686-mingw32/bin/../lib/gcc/nios2-elf/4.1.2/../../../../nios2-elf/lib\libc.a(lib_a-ctype_.o)
 .comment       0x00000000       0x24 c:/altera/12.0/nios2eds/bin/gnu/h-i686-mingw32/bin/../lib/gcc/nios2-elf/4.1.2/../../../../nios2-elf/lib\libc.a(lib_a-fclose.o)
 .comment       0x00000000       0x24 c:/altera/12.0/nios2eds/bin/gnu/h-i686-mingw32/bin/../lib/gcc/nios2-elf/4.1.2/../../../../nios2-elf/lib\libc.a(lib_a-fflush.o)
 .comment       0x00000000       0x24 c:/altera/12.0/nios2eds/bin/gnu/h-i686-mingw32/bin/../lib/gcc/nios2-elf/4.1.2/../../../../nios2-elf/lib\libc.a(lib_a-fgetpos.o)
 .comment       0x00000000       0x24 c:/altera/12.0/nios2eds/bin/gnu/h-i686-mingw32/bin/../lib/gcc/nios2-elf/4.1.2/../../../../nios2-elf/lib\libc.a(lib_a-findfp.o)
 .comment       0x00000000       0x24 c:/altera/12.0/nios2eds/bin/gnu/h-i686-mingw32/bin/../lib/gcc/nios2-elf/4.1.2/../../../../nios2-elf/lib\libc.a(lib_a-fopen.o)
 .comment       0x00000000       0x24 c:/altera/12.0/nios2eds/bin/gnu/h-i686-mingw32/bin/../lib/gcc/nios2-elf/4.1.2/../../../../nios2-elf/lib\libc.a(lib_a-fprintf.o)
 .comment       0x00000000       0x24 c:/altera/12.0/nios2eds/bin/gnu/h-i686-mingw32/bin/../lib/gcc/nios2-elf/4.1.2/../../../../nios2-elf/lib\libc.a(lib_a-fread.o)
 .comment       0x00000000       0x24 c:/altera/12.0/nios2eds/bin/gnu/h-i686-mingw32/bin/../lib/gcc/nios2-elf/4.1.2/../../../../nios2-elf/lib\libc.a(lib_a-freer.o)
 .comment       0x00000000       0x24 c:/altera/12.0/nios2eds/bin/gnu/h-i686-mingw32/bin/../lib/gcc/nios2-elf/4.1.2/../../../../nios2-elf/lib\libc.a(lib_a-fseek.o)
 .comment       0x00000000       0x24 c:/altera/12.0/nios2eds/bin/gnu/h-i686-mingw32/bin/../lib/gcc/nios2-elf/4.1.2/../../../../nios2-elf/lib\libc.a(lib_a-fstatr.o)
 .comment       0x00000000       0x24 c:/altera/12.0/nios2eds/bin/gnu/h-i686-mingw32/bin/../lib/gcc/nios2-elf/4.1.2/../../../../nios2-elf/lib\libc.a(lib_a-ftell.o)
 .comment       0x00000000       0x24 c:/altera/12.0/nios2eds/bin/gnu/h-i686-mingw32/bin/../lib/gcc/nios2-elf/4.1.2/../../../../nios2-elf/lib\libc.a(lib_a-fwalk.o)
 .comment       0x00000000       0x24 c:/altera/12.0/nios2eds/bin/gnu/h-i686-mingw32/bin/../lib/gcc/nios2-elf/4.1.2/../../../../nios2-elf/lib\libc.a(lib_a-fwrite.o)
 .comment       0x00000000       0x24 c:/altera/12.0/nios2eds/bin/gnu/h-i686-mingw32/bin/../lib/gcc/nios2-elf/4.1.2/../../../../nios2-elf/lib\libc.a(lib_a-getc.o)
 .comment       0x00000000       0x24 c:/altera/12.0/nios2eds/bin/gnu/h-i686-mingw32/bin/../lib/gcc/nios2-elf/4.1.2/../../../../nios2-elf/lib\libc.a(lib_a-impure.o)
 .comment       0x00000000       0x24 c:/altera/12.0/nios2eds/bin/gnu/h-i686-mingw32/bin/../lib/gcc/nios2-elf/4.1.2/../../../../nios2-elf/lib\libc.a(lib_a-int_errno.o)
 .comment       0x00000000       0x24 c:/altera/12.0/nios2eds/bin/gnu/h-i686-mingw32/bin/../lib/gcc/nios2-elf/4.1.2/../../../../nios2-elf/lib\libc.a(lib_a-makebuf.o)
 .comment       0x00000000       0x24 c:/altera/12.0/nios2eds/bin/gnu/h-i686-mingw32/bin/../lib/gcc/nios2-elf/4.1.2/../../../../nios2-elf/lib\libc.a(lib_a-mallocr.o)
 .comment       0x00000000       0x24 c:/altera/12.0/nios2eds/bin/gnu/h-i686-mingw32/bin/../lib/gcc/nios2-elf/4.1.2/../../../../nios2-elf/lib\libc.a(lib_a-memcpy.o)
 .comment       0x00000000       0x24 c:/altera/12.0/nios2eds/bin/gnu/h-i686-mingw32/bin/../lib/gcc/nios2-elf/4.1.2/../../../../nios2-elf/lib\libc.a(lib_a-memmove.o)
 .comment       0x00000000       0x24 c:/altera/12.0/nios2eds/bin/gnu/h-i686-mingw32/bin/../lib/gcc/nios2-elf/4.1.2/../../../../nios2-elf/lib\libc.a(lib_a-memset.o)
 .comment       0x00000000       0x24 c:/altera/12.0/nios2eds/bin/gnu/h-i686-mingw32/bin/../lib/gcc/nios2-elf/4.1.2/../../../../nios2-elf/lib\libc.a(lib_a-openr.o)
 .comment       0x00000000       0x24 c:/altera/12.0/nios2eds/bin/gnu/h-i686-mingw32/bin/../lib/gcc/nios2-elf/4.1.2/../../../../nios2-elf/lib\libc.a(lib_a-perror.o)
 .comment       0x00000000       0x24 c:/altera/12.0/nios2eds/bin/gnu/h-i686-mingw32/bin/../lib/gcc/nios2-elf/4.1.2/../../../../nios2-elf/lib\libc.a(lib_a-printf.o)
 .comment       0x00000000       0x24 c:/altera/12.0/nios2eds/bin/gnu/h-i686-mingw32/bin/../lib/gcc/nios2-elf/4.1.2/../../../../nios2-elf/lib\libc.a(lib_a-putc.o)
 .comment       0x00000000       0x24 c:/altera/12.0/nios2eds/bin/gnu/h-i686-mingw32/bin/../lib/gcc/nios2-elf/4.1.2/../../../../nios2-elf/lib\libc.a(lib_a-putchar.o)
 .comment       0x00000000       0x24 c:/altera/12.0/nios2eds/bin/gnu/h-i686-mingw32/bin/../lib/gcc/nios2-elf/4.1.2/../../../../nios2-elf/lib\libc.a(lib_a-puts.o)
 .comment       0x00000000       0x24 c:/altera/12.0/nios2eds/bin/gnu/h-i686-mingw32/bin/../lib/gcc/nios2-elf/4.1.2/../../../../nios2-elf/lib\libc.a(lib_a-refill.o)
 .comment       0x00000000       0x24 c:/altera/12.0/nios2eds/bin/gnu/h-i686-mingw32/bin/../lib/gcc/nios2-elf/4.1.2/../../../../nios2-elf/lib\libc.a(lib_a-rget.o)
 .comment       0x00000000       0x24 c:/altera/12.0/nios2eds/bin/gnu/h-i686-mingw32/bin/../lib/gcc/nios2-elf/4.1.2/../../../../nios2-elf/lib\libc.a(lib_a-sbrkr.o)
 .comment       0x00000000       0x24 c:/altera/12.0/nios2eds/bin/gnu/h-i686-mingw32/bin/../lib/gcc/nios2-elf/4.1.2/../../../../nios2-elf/lib\libc.a(lib_a-sprintf.o)
 .comment       0x00000000       0x24 c:/altera/12.0/nios2eds/bin/gnu/h-i686-mingw32/bin/../lib/gcc/nios2-elf/4.1.2/../../../../nios2-elf/lib\libc.a(lib_a-sscanf.o)
 .comment       0x00000000       0x24 c:/altera/12.0/nios2eds/bin/gnu/h-i686-mingw32/bin/../lib/gcc/nios2-elf/4.1.2/../../../../nios2-elf/lib\libc.a(lib_a-stdio.o)
 .comment       0x00000000       0x24 c:/altera/12.0/nios2eds/bin/gnu/h-i686-mingw32/bin/../lib/gcc/nios2-elf/4.1.2/../../../../nios2-elf/lib\libc.a(lib_a-strcasecmp.o)
 .comment       0x00000000       0x24 c:/altera/12.0/nios2eds/bin/gnu/h-i686-mingw32/bin/../lib/gcc/nios2-elf/4.1.2/../../../../nios2-elf/lib\libc.a(lib_a-strcat.o)
 .comment       0x00000000       0x24 c:/altera/12.0/nios2eds/bin/gnu/h-i686-mingw32/bin/../lib/gcc/nios2-elf/4.1.2/../../../../nios2-elf/lib\libc.a(lib_a-strchr.o)
 .comment       0x00000000       0x24 c:/altera/12.0/nios2eds/bin/gnu/h-i686-mingw32/bin/../lib/gcc/nios2-elf/4.1.2/../../../../nios2-elf/lib\libc.a(lib_a-strcmp.o)
 .comment       0x00000000       0x24 c:/altera/12.0/nios2eds/bin/gnu/h-i686-mingw32/bin/../lib/gcc/nios2-elf/4.1.2/../../../../nios2-elf/lib\libc.a(lib_a-strcpy.o)
 .comment       0x00000000       0x24 c:/altera/12.0/nios2eds/bin/gnu/h-i686-mingw32/bin/../lib/gcc/nios2-elf/4.1.2/../../../../nios2-elf/lib\libc.a(lib_a-strerror.o)
 .comment       0x00000000       0x24 c:/altera/12.0/nios2eds/bin/gnu/h-i686-mingw32/bin/../lib/gcc/nios2-elf/4.1.2/../../../../nios2-elf/lib\libc.a(lib_a-strlen.o)
 .comment       0x00000000       0x24 c:/altera/12.0/nios2eds/bin/gnu/h-i686-mingw32/bin/../lib/gcc/nios2-elf/4.1.2/../../../../nios2-elf/lib\libc.a(lib_a-strncmp.o)
 .comment       0x00000000       0x24 c:/altera/12.0/nios2eds/bin/gnu/h-i686-mingw32/bin/../lib/gcc/nios2-elf/4.1.2/../../../../nios2-elf/lib\libc.a(lib_a-strncpy.o)
 .comment       0x00000000       0x24 c:/altera/12.0/nios2eds/bin/gnu/h-i686-mingw32/bin/../lib/gcc/nios2-elf/4.1.2/../../../../nios2-elf/lib\libc.a(lib_a-strstr.o)
 .comment       0x00000000       0x24 c:/altera/12.0/nios2eds/bin/gnu/h-i686-mingw32/bin/../lib/gcc/nios2-elf/4.1.2/../../../../nios2-elf/lib\libc.a(lib_a-strtok.o)
 .comment       0x00000000       0x24 c:/altera/12.0/nios2eds/bin/gnu/h-i686-mingw32/bin/../lib/gcc/nios2-elf/4.1.2/../../../../nios2-elf/lib\libc.a(lib_a-strtok_r.o)
 .comment       0x00000000       0x24 c:/altera/12.0/nios2eds/bin/gnu/h-i686-mingw32/bin/../lib/gcc/nios2-elf/4.1.2/../../../../nios2-elf/lib\libc.a(lib_a-strtol.o)
 .comment       0x00000000       0x24 c:/altera/12.0/nios2eds/bin/gnu/h-i686-mingw32/bin/../lib/gcc/nios2-elf/4.1.2/../../../../nios2-elf/lib\libc.a(lib_a-u_strerr.o)
 .comment       0x00000000       0x24 c:/altera/12.0/nios2eds/bin/gnu/h-i686-mingw32/bin/../lib/gcc/nios2-elf/4.1.2/../../../../nios2-elf/lib\libc.a(lib_a-vfprintf.o)
 .comment       0x00000000       0x24 c:/altera/12.0/nios2eds/bin/gnu/h-i686-mingw32/bin/../lib/gcc/nios2-elf/4.1.2/../../../../nios2-elf/lib\libc.a(lib_a-vfscanf.o)
 .comment       0x00000000       0x24 c:/altera/12.0/nios2eds/bin/gnu/h-i686-mingw32/bin/../lib/gcc/nios2-elf/4.1.2/../../../../nios2-elf/lib\libc.a(lib_a-wbuf.o)
 .comment       0x00000000       0x24 c:/altera/12.0/nios2eds/bin/gnu/h-i686-mingw32/bin/../lib/gcc/nios2-elf/4.1.2/../../../../nios2-elf/lib\libc.a(lib_a-writer.o)
 .comment       0x00000000       0x24 c:/altera/12.0/nios2eds/bin/gnu/h-i686-mingw32/bin/../lib/gcc/nios2-elf/4.1.2/../../../../nios2-elf/lib\libc.a(lib_a-wsetup.o)
 .comment       0x00000000       0x24 c:/altera/12.0/nios2eds/bin/gnu/h-i686-mingw32/bin/../lib/gcc/nios2-elf/4.1.2/../../../../nios2-elf/lib\libc.a(lib_a-closer.o)
 .comment       0x00000000       0x24 c:/altera/12.0/nios2eds/bin/gnu/h-i686-mingw32/bin/../lib/gcc/nios2-elf/4.1.2/../../../../nios2-elf/lib\libc.a(lib_a-dtoa.o)
 .comment       0x00000000       0x24 c:/altera/12.0/nios2eds/bin/gnu/h-i686-mingw32/bin/../lib/gcc/nios2-elf/4.1.2/../../../../nios2-elf/lib\libc.a(lib_a-flags.o)
 .comment       0x00000000       0x24 c:/altera/12.0/nios2eds/bin/gnu/h-i686-mingw32/bin/../lib/gcc/nios2-elf/4.1.2/../../../../nios2-elf/lib\libc.a(lib_a-fputc.o)
 .comment       0x00000000       0x24 c:/altera/12.0/nios2eds/bin/gnu/h-i686-mingw32/bin/../lib/gcc/nios2-elf/4.1.2/../../../../nios2-elf/lib\libc.a(lib_a-fputs.o)
 .comment       0x00000000       0x24 c:/altera/12.0/nios2eds/bin/gnu/h-i686-mingw32/bin/../lib/gcc/nios2-elf/4.1.2/../../../../nios2-elf/lib\libc.a(lib_a-fvwrite.o)
 .comment       0x00000000       0x24 c:/altera/12.0/nios2eds/bin/gnu/h-i686-mingw32/bin/../lib/gcc/nios2-elf/4.1.2/../../../../nios2-elf/lib\libc.a(lib_a-isattyr.o)
 .comment       0x00000000       0x24 c:/altera/12.0/nios2eds/bin/gnu/h-i686-mingw32/bin/../lib/gcc/nios2-elf/4.1.2/../../../../nios2-elf/lib\libc.a(lib_a-iswspace.o)
 .comment       0x00000000       0x24 c:/altera/12.0/nios2eds/bin/gnu/h-i686-mingw32/bin/../lib/gcc/nios2-elf/4.1.2/../../../../nios2-elf/lib\libc.a(lib_a-locale.o)
 .comment       0x00000000       0x24 c:/altera/12.0/nios2eds/bin/gnu/h-i686-mingw32/bin/../lib/gcc/nios2-elf/4.1.2/../../../../nios2-elf/lib\libc.a(lib_a-lseekr.o)
 .comment       0x00000000       0x24 c:/altera/12.0/nios2eds/bin/gnu/h-i686-mingw32/bin/../lib/gcc/nios2-elf/4.1.2/../../../../nios2-elf/lib\libc.a(lib_a-mbrtowc.o)
 .comment       0x00000000       0x24 c:/altera/12.0/nios2eds/bin/gnu/h-i686-mingw32/bin/../lib/gcc/nios2-elf/4.1.2/../../../../nios2-elf/lib\libc.a(lib_a-mbtowc_r.o)
 .comment       0x00000000       0x24 c:/altera/12.0/nios2eds/bin/gnu/h-i686-mingw32/bin/../lib/gcc/nios2-elf/4.1.2/../../../../nios2-elf/lib\libc.a(lib_a-memchr.o)
 .comment       0x00000000       0x24 c:/altera/12.0/nios2eds/bin/gnu/h-i686-mingw32/bin/../lib/gcc/nios2-elf/4.1.2/../../../../nios2-elf/lib\libc.a(lib_a-memcmp.o)
 .comment       0x00000000       0x24 c:/altera/12.0/nios2eds/bin/gnu/h-i686-mingw32/bin/../lib/gcc/nios2-elf/4.1.2/../../../../nios2-elf/lib\libc.a(lib_a-mprec.o)
 .comment       0x00000000       0x24 c:/altera/12.0/nios2eds/bin/gnu/h-i686-mingw32/bin/../lib/gcc/nios2-elf/4.1.2/../../../../nios2-elf/lib\libc.a(lib_a-readr.o)
 .comment       0x00000000       0x24 c:/altera/12.0/nios2eds/bin/gnu/h-i686-mingw32/bin/../lib/gcc/nios2-elf/4.1.2/../../../../nios2-elf/lib\libc.a(lib_a-reallocr.o)
 .comment       0x00000000       0x24 c:/altera/12.0/nios2eds/bin/gnu/h-i686-mingw32/bin/../lib/gcc/nios2-elf/4.1.2/../../../../nios2-elf/lib\libc.a(lib_a-s_isinfd.o)
 .comment       0x00000000       0x24 c:/altera/12.0/nios2eds/bin/gnu/h-i686-mingw32/bin/../lib/gcc/nios2-elf/4.1.2/../../../../nios2-elf/lib\libc.a(lib_a-s_isnand.o)
 .comment       0x00000000       0x24 c:/altera/12.0/nios2eds/bin/gnu/h-i686-mingw32/bin/../lib/gcc/nios2-elf/4.1.2/../../../../nios2-elf/lib\libc.a(lib_a-sccl.o)
 .comment       0x00000000       0x24 c:/altera/12.0/nios2eds/bin/gnu/h-i686-mingw32/bin/../lib/gcc/nios2-elf/4.1.2/../../../../nios2-elf/lib\libc.a(lib_a-sf_nan.o)
 .comment       0x00000000       0x24 c:/altera/12.0/nios2eds/bin/gnu/h-i686-mingw32/bin/../lib/gcc/nios2-elf/4.1.2/../../../../nios2-elf/lib\libc.a(lib_a-strtod.o)
 .comment       0x00000000       0x24 c:/altera/12.0/nios2eds/bin/gnu/h-i686-mingw32/bin/../lib/gcc/nios2-elf/4.1.2/../../../../nios2-elf/lib\libc.a(lib_a-strtoll_r.o)
 .comment       0x00000000       0x24 c:/altera/12.0/nios2eds/bin/gnu/h-i686-mingw32/bin/../lib/gcc/nios2-elf/4.1.2/../../../../nios2-elf/lib\libc.a(lib_a-strtoul.o)
 .comment       0x00000000       0x24 c:/altera/12.0/nios2eds/bin/gnu/h-i686-mingw32/bin/../lib/gcc/nios2-elf/4.1.2/../../../../nios2-elf/lib\libc.a(lib_a-strtoull_r.o)
 .comment       0x00000000       0x24 c:/altera/12.0/nios2eds/bin/gnu/h-i686-mingw32/bin/../lib/gcc/nios2-elf/4.1.2/../../../../nios2-elf/lib\libc.a(lib_a-ungetc.o)
 .comment       0x00000000       0x24 c:/altera/12.0/nios2eds/bin/gnu/h-i686-mingw32/bin/../lib/gcc/nios2-elf/4.1.2/../../../../nios2-elf/lib\libc.a(lib_a-callocr.o)
 .comment       0x00000000       0x24 c:/altera/12.0/nios2eds/bin/gnu/h-i686-mingw32/bin/../lib/gcc/nios2-elf/4.1.2/../../../../nios2-elf/lib\libc.a(lib_a-gdtoa-gethex.o)
 .comment       0x00000000       0x24 c:/altera/12.0/nios2eds/bin/gnu/h-i686-mingw32/bin/../lib/gcc/nios2-elf/4.1.2/../../../../nios2-elf/lib\libc.a(lib_a-gdtoa-hexnan.o)
 .comment       0x00000000       0x24 c:/altera/12.0/nios2eds/bin/gnu/h-i686-mingw32/bin/../lib/gcc/nios2-elf/4.1.2\libgcc.a(_muldi3.o)
 .comment       0x00000000       0x24 c:/altera/12.0/nios2eds/bin/gnu/h-i686-mingw32/bin/../lib/gcc/nios2-elf/4.1.2\libgcc.a(_fixunsdfsi.o)
 .comment       0x00000000       0x24 c:/altera/12.0/nios2eds/bin/gnu/h-i686-mingw32/bin/../lib/gcc/nios2-elf/4.1.2\libgcc.a(_udivdi3.o)
 .comment       0x00000000       0x24 c:/altera/12.0/nios2eds/bin/gnu/h-i686-mingw32/bin/../lib/gcc/nios2-elf/4.1.2\libgcc.a(_umoddi3.o)
 .comment       0x00000000       0x24 c:/altera/12.0/nios2eds/bin/gnu/h-i686-mingw32/bin/../lib/gcc/nios2-elf/4.1.2\libgcc.a(_ne_sf.o)
 .comment       0x00000000       0x24 c:/altera/12.0/nios2eds/bin/gnu/h-i686-mingw32/bin/../lib/gcc/nios2-elf/4.1.2\libgcc.a(_gt_sf.o)
 .comment       0x00000000       0x24 c:/altera/12.0/nios2eds/bin/gnu/h-i686-mingw32/bin/../lib/gcc/nios2-elf/4.1.2\libgcc.a(_lt_sf.o)
 .comment       0x00000000       0x24 c:/altera/12.0/nios2eds/bin/gnu/h-i686-mingw32/bin/../lib/gcc/nios2-elf/4.1.2\libgcc.a(_addsub_df.o)
 .comment       0x00000000       0x24 c:/altera/12.0/nios2eds/bin/gnu/h-i686-mingw32/bin/../lib/gcc/nios2-elf/4.1.2\libgcc.a(_mul_df.o)
 .comment       0x00000000       0x24 c:/altera/12.0/nios2eds/bin/gnu/h-i686-mingw32/bin/../lib/gcc/nios2-elf/4.1.2\libgcc.a(_div_df.o)
 .comment       0x00000000       0x24 c:/altera/12.0/nios2eds/bin/gnu/h-i686-mingw32/bin/../lib/gcc/nios2-elf/4.1.2\libgcc.a(_eq_df.o)
 .comment       0x00000000       0x24 c:/altera/12.0/nios2eds/bin/gnu/h-i686-mingw32/bin/../lib/gcc/nios2-elf/4.1.2\libgcc.a(_ne_df.o)
 .comment       0x00000000       0x24 c:/altera/12.0/nios2eds/bin/gnu/h-i686-mingw32/bin/../lib/gcc/nios2-elf/4.1.2\libgcc.a(_gt_df.o)
 .comment       0x00000000       0x24 c:/altera/12.0/nios2eds/bin/gnu/h-i686-mingw32/bin/../lib/gcc/nios2-elf/4.1.2\libgcc.a(_ge_df.o)
 .comment       0x00000000       0x24 c:/altera/12.0/nios2eds/bin/gnu/h-i686-mingw32/bin/../lib/gcc/nios2-elf/4.1.2\libgcc.a(_lt_df.o)
 .comment       0x00000000       0x24 c:/altera/12.0/nios2eds/bin/gnu/h-i686-mingw32/bin/../lib/gcc/nios2-elf/4.1.2\libgcc.a(_le_df.o)
 .comment       0x00000000       0x24 c:/altera/12.0/nios2eds/bin/gnu/h-i686-mingw32/bin/../lib/gcc/nios2-elf/4.1.2\libgcc.a(_si_to_df.o)
 .comment       0x00000000       0x24 c:/altera/12.0/nios2eds/bin/gnu/h-i686-mingw32/bin/../lib/gcc/nios2-elf/4.1.2\libgcc.a(_df_to_si.o)
 .comment       0x00000000       0x24 c:/altera/12.0/nios2eds/bin/gnu/h-i686-mingw32/bin/../lib/gcc/nios2-elf/4.1.2\libgcc.a(_df_to_sf.o)
 .comment       0x00000000       0x24 c:/altera/12.0/nios2eds/bin/gnu/h-i686-mingw32/bin/../lib/gcc/nios2-elf/4.1.2\libgcc.a(_thenan_df.o)
 .comment       0x00000000       0x24 c:/altera/12.0/nios2eds/bin/gnu/h-i686-mingw32/bin/../lib/gcc/nios2-elf/4.1.2\libgcc.a(_usi_to_df.o)
 .comment       0x00000000       0x24 c:/altera/12.0/nios2eds/bin/gnu/h-i686-mingw32/bin/../lib/gcc/nios2-elf/4.1.2\libgcc.a(_clz.o)
 .comment       0x00000000       0x24 c:/altera/12.0/nios2eds/bin/gnu/h-i686-mingw32/bin/../lib/gcc/nios2-elf/4.1.2\libgcc.a(_clzsi2.o)
 .comment       0x00000000       0x24 c:/altera/12.0/nios2eds/bin/gnu/h-i686-mingw32/bin/../lib/gcc/nios2-elf/4.1.2\libgcc.a(_unpack_sf.o)
 .comment       0x00000000       0x24 c:/altera/12.0/nios2eds/bin/gnu/h-i686-mingw32/bin/../lib/gcc/nios2-elf/4.1.2\libgcc.a(_fpcmp_parts_sf.o)
 .comment       0x00000000       0x24 c:/altera/12.0/nios2eds/bin/gnu/h-i686-mingw32/bin/../lib/gcc/nios2-elf/4.1.2\libgcc.a(_make_sf.o)
 .comment       0x00000000       0x24 c:/altera/12.0/nios2eds/bin/gnu/h-i686-mingw32/bin/../lib/gcc/nios2-elf/4.1.2\libgcc.a(_pack_df.o)
 .comment       0x00000000       0x24 c:/altera/12.0/nios2eds/bin/gnu/h-i686-mingw32/bin/../lib/gcc/nios2-elf/4.1.2\libgcc.a(_unpack_df.o)
 .comment       0x00000000       0x24 c:/altera/12.0/nios2eds/bin/gnu/h-i686-mingw32/bin/../lib/gcc/nios2-elf/4.1.2\libgcc.a(_fpcmp_parts_df.o)
 .comment       0x00000000       0x24 c:/altera/12.0/nios2eds/bin/gnu/h-i686-mingw32/bin/../lib/gcc/nios2-elf/4.1.2\libgcc.a(_pack_sf.o)
 .comment       0x00000000       0x24 ../web_server_bsp/\libucosii_bsp.a(alt_dcache_flush.o)
 .comment       0x00000000       0x24 ../web_server_bsp/\libucosii_bsp.a(alt_flash_dev.o)
 .comment       0x00000000       0x24 ../web_server_bsp/\libucosii_bsp.a(alt_fstat.o)
 .comment       0x00000000       0x24 ../web_server_bsp/\libucosii_bsp.a(alt_isatty.o)
 .comment       0x00000000       0x24 ../web_server_bsp/\libucosii_bsp.a(alt_load.o)
 .comment       0x00000000       0x24 ../web_server_bsp/\libucosii_bsp.a(alt_lseek.o)
 .comment       0x00000000       0x24 ../web_server_bsp/\libucosii_bsp.a(alt_main.o)
 .comment       0x00000000       0x24 ../web_server_bsp/\libucosii_bsp.a(alt_open.o)
 .comment       0x00000000       0x24 ../web_server_bsp/\libucosii_bsp.a(alt_release_fd.o)
 .comment       0x00000000       0x24 ../web_server_bsp/\libucosii_bsp.a(alt_sbrk.o)
 .comment       0x00000000       0x24 ../web_server_bsp/\libucosii_bsp.a(alt_tick.o)
 .comment       0x00000000       0x24 ../web_server_bsp/\libucosii_bsp.a(alt_usleep.o)
 .comment       0x00000000       0x24 ../web_server_bsp/\libucosii_bsp.a(alt_env_lock.o)
 .comment       0x00000000       0x24 ../web_server_bsp/\libucosii_bsp.a(alt_malloc_lock.o)
 .comment       0x00000000       0x24 ../web_server_bsp/\libucosii_bsp.a(os_core.o)
 .comment       0x00000000       0x24 ../web_server_bsp/\libucosii_bsp.a(os_dbg.o)
 .comment       0x00000000       0x24 ../web_server_bsp/\libucosii_bsp.a(os_flag.o)
 .comment       0x00000000       0x24 ../web_server_bsp/\libucosii_bsp.a(os_mbox.o)
 .comment       0x00000000       0x24 ../web_server_bsp/\libucosii_bsp.a(os_mem.o)
 .comment       0x00000000       0x24 ../web_server_bsp/\libucosii_bsp.a(os_q.o)
 .comment       0x00000000       0x24 ../web_server_bsp/\libucosii_bsp.a(os_sem.o)
 .comment       0x00000000       0x24 ../web_server_bsp/\libucosii_bsp.a(os_task.o)
 .comment       0x00000000       0x24 ../web_server_bsp/\libucosii_bsp.a(os_time.o)
 .comment       0x00000000       0x24 ../web_server_bsp/\libucosii_bsp.a(alt_sys_init.o)
 .comment       0x00000000       0x24 ../web_server_bsp/\libucosii_bsp.a(altera_avalon_cfi_flash.o)
 .comment       0x00000000       0x24 ../web_server_bsp/\libucosii_bsp.a(altera_avalon_cfi_flash_table.o)
 .comment       0x00000000       0x24 ../web_server_bsp/\libucosii_bsp.a(altera_avalon_jtag_uart_fd.o)
 .comment       0x00000000       0x24 ../web_server_bsp/\libucosii_bsp.a(altera_avalon_jtag_uart_init.o)
 .comment       0x00000000       0x24 ../web_server_bsp/\libucosii_bsp.a(altera_avalon_jtag_uart_ioctl.o)
 .comment       0x00000000       0x24 ../web_server_bsp/\libucosii_bsp.a(altera_avalon_jtag_uart_read.o)
 .comment       0x00000000       0x24 ../web_server_bsp/\libucosii_bsp.a(altera_avalon_jtag_uart_write.o)
 .comment       0x00000000       0x24 ../web_server_bsp/\libucosii_bsp.a(altera_avalon_lcd_16207.o)
 .comment       0x00000000       0x24 ../web_server_bsp/\libucosii_bsp.a(altera_avalon_lcd_16207_fd.o)
 .comment       0x00000000       0x24 ../web_server_bsp/\libucosii_bsp.a(altera_avalon_sgdma.o)
 .comment       0x00000000       0x24 ../web_server_bsp/\libucosii_bsp.a(altera_avalon_timer_sc.o)
 .comment       0x00000000       0x24 ../web_server_bsp/\libucosii_bsp.a(altera_avalon_tse.o)
 .comment       0x00000000       0x24 ../web_server_bsp/\libucosii_bsp.a(altera_avalon_uart_fd.o)
 .comment       0x00000000       0x24 ../web_server_bsp/\libucosii_bsp.a(altera_avalon_uart_init.o)
 .comment       0x00000000       0x24 ../web_server_bsp/\libucosii_bsp.a(altera_avalon_uart_read.o)
 .comment       0x00000000       0x24 ../web_server_bsp/\libucosii_bsp.a(altera_avalon_uart_write.o)
 .comment       0x00000000       0x24 ../web_server_bsp/\libucosii_bsp.a(altera_ro_zipfs.o)
 .comment       0x00000000       0x24 ../web_server_bsp/\libucosii_bsp.a(ins_tse_mac.o)
 .comment       0x00000000       0x24 ../web_server_bsp/\libucosii_bsp.a(alt_iniche_close.o)
 .comment       0x00000000       0x24 ../web_server_bsp/\libucosii_bsp.a(alt_iniche_dev.o)
 .comment       0x00000000       0x24 ../web_server_bsp/\libucosii_bsp.a(alt_iniche_read.o)
 .comment       0x00000000       0x24 ../web_server_bsp/\libucosii_bsp.a(alt_iniche_write.o)
 .comment       0x00000000       0x24 ../web_server_bsp/\libucosii_bsp.a(ipnet.o)
 .comment       0x00000000       0x24 ../web_server_bsp/\libucosii_bsp.a(ipstart.o)
 .comment       0x00000000       0x24 ../web_server_bsp/\libucosii_bsp.a(igmp_cmn.o)
 .comment       0x00000000       0x24 ../web_server_bsp/\libucosii_bsp.a(bsdsock.o)
 .comment       0x00000000       0x24 ../web_server_bsp/\libucosii_bsp.a(cksum.o)
 .comment       0x00000000       0x24 ../web_server_bsp/\libucosii_bsp.a(in_utils.o)
 .comment       0x00000000       0x24 ../web_server_bsp/\libucosii_bsp.a(netmain.o)
 .comment       0x00000000       0x24 ../web_server_bsp/\libucosii_bsp.a(tk_crnos.o)
 .comment       0x00000000       0x24 ../web_server_bsp/\libucosii_bsp.a(dhcpclnt.o)
 .comment       0x00000000       0x24 ../web_server_bsp/\libucosii_bsp.a(dhcputil.o)
 .comment       0x00000000       0x24 ../web_server_bsp/\libucosii_bsp.a(pktalloc.o)
 .comment       0x00000000       0x24 ../web_server_bsp/\libucosii_bsp.a(q.o)
 .comment       0x00000000       0x24 ../web_server_bsp/\libucosii_bsp.a(udp_open.o)
 .comment       0x00000000       0x24 ../web_server_bsp/\libucosii_bsp.a(brdutils.o)
 .comment       0x00000000       0x24 ../web_server_bsp/\libucosii_bsp.a(osportco.o)
 .comment       0x00000000       0x24 ../web_server_bsp/\libucosii_bsp.a(targnios.o)
 .comment       0x00000000       0x24 ../web_server_bsp/\libucosii_bsp.a(nptcp.o)
 .comment       0x00000000       0x24 ../web_server_bsp/\libucosii_bsp.a(rawsock.o)
 .comment       0x00000000       0x24 ../web_server_bsp/\libucosii_bsp.a(sockcall.o)
 .comment       0x00000000       0x24 ../web_server_bsp/\libucosii_bsp.a(socket.o)
 .comment       0x00000000       0x24 ../web_server_bsp/\libucosii_bsp.a(socket2.o)
 .comment       0x00000000       0x24 ../web_server_bsp/\libucosii_bsp.a(soselect.o)
 .comment       0x00000000       0x24 ../web_server_bsp/\libucosii_bsp.a(tcp_in.o)
 .comment       0x00000000       0x24 ../web_server_bsp/\libucosii_bsp.a(tcp_out.o)
 .comment       0x00000000       0x24 ../web_server_bsp/\libucosii_bsp.a(tcp_subr.o)
 .comment       0x00000000       0x24 ../web_server_bsp/\libucosii_bsp.a(tcp_timr.o)
 .comment       0x00000000       0x24 ../web_server_bsp/\libucosii_bsp.a(tcp_usr.o)
 .comment       0x00000000       0x24 ../web_server_bsp/\libucosii_bsp.a(tcpport.o)
 .comment       0x00000000       0x24 ../web_server_bsp/\libucosii_bsp.a(udpsock.o)
 .comment       0x00000000       0x24 ../web_server_bsp/\libucosii_bsp.a(alt_alarm_start.o)
 .comment       0x00000000       0x24 ../web_server_bsp/\libucosii_bsp.a(alt_busy_sleep.o)
 .comment       0x00000000       0x24 ../web_server_bsp/\libucosii_bsp.a(alt_close.o)
 .comment       0x00000000       0x24 ../web_server_bsp/\libucosii_bsp.a(alt_dcache_flush_all.o)
 .comment       0x00000000       0x24 ../web_server_bsp/\libucosii_bsp.a(alt_dev.o)
 .comment       0x00000000       0x24 ../web_server_bsp/\libucosii_bsp.a(alt_dev_llist_insert.o)
 .comment       0x00000000       0x24 ../web_server_bsp/\libucosii_bsp.a(alt_do_ctors.o)
 .comment       0x00000000       0x24 ../web_server_bsp/\libucosii_bsp.a(alt_do_dtors.o)
 .comment       0x00000000       0x24 ../web_server_bsp/\libucosii_bsp.a(alt_errno.o)
 .comment       0x00000000       0x24 ../web_server_bsp/\libucosii_bsp.a(alt_find_dev.o)
 .comment       0x00000000       0x24 ../web_server_bsp/\libucosii_bsp.a(alt_find_file.o)
 .comment       0x00000000       0x24 ../web_server_bsp/\libucosii_bsp.a(alt_fs_reg.o)
 .comment       0x00000000       0x24 ../web_server_bsp/\libucosii_bsp.a(alt_get_fd.o)
 .comment       0x00000000       0x24 ../web_server_bsp/\libucosii_bsp.a(alt_icache_flush_all.o)
 .comment       0x00000000       0x24 ../web_server_bsp/\libucosii_bsp.a(alt_iic.o)
 .comment       0x00000000       0x24 ../web_server_bsp/\libucosii_bsp.a(alt_iic_isr_register.o)
 .comment       0x00000000       0x24 ../web_server_bsp/\libucosii_bsp.a(alt_io_redirect.o)
 .comment       0x00000000       0x24 ../web_server_bsp/\libucosii_bsp.a(alt_irq_handler.o)
 .comment       0x00000000       0x24 ../web_server_bsp/\libucosii_bsp.a(alt_irq_vars.o)
 .comment       0x00000000       0x24 ../web_server_bsp/\libucosii_bsp.a(alt_read.o)
 .comment       0x00000000       0x24 ../web_server_bsp/\libucosii_bsp.a(alt_remap_cached.o)
 .comment       0x00000000       0x24 ../web_server_bsp/\libucosii_bsp.a(alt_remap_uncached.o)
 .comment       0x00000000       0x24 ../web_server_bsp/\libucosii_bsp.a(alt_uncached_malloc.o)
 .comment       0x00000000       0x24 ../web_server_bsp/\libucosii_bsp.a(alt_write.o)
 .comment       0x00000000       0x24 ../web_server_bsp/\libucosii_bsp.a(altera_nios2_qsys_irq.o)
 .comment       0x00000000       0x24 ../web_server_bsp/\libucosii_bsp.a(os_cpu_c.o)
 .comment       0x00000000       0x24 ../web_server_bsp/\libucosii_bsp.a(altera_avalon_cfi_flash_amd.o)
 .comment       0x00000000       0x24 ../web_server_bsp/\libucosii_bsp.a(altera_avalon_cfi_flash_intel.o)
 .comment       0x00000000       0x24 ../web_server_bsp/\libucosii_bsp.a(allports.o)
 .comment       0x00000000       0x24 ../web_server_bsp/\libucosii_bsp.a(timeouts.o)
 .comment       0x00000000       0x24 ../web_server_bsp/\libucosii_bsp.a(tk_misc.o)
 .comment       0x00000000       0x24 ../web_server_bsp/\libucosii_bsp.a(alt_iniche_fcntl.o)
 .comment       0x00000000       0x24 ../web_server_bsp/\libucosii_bsp.a(et_arp.o)
 .comment       0x00000000       0x24 ../web_server_bsp/\libucosii_bsp.a(iface.o)
 .comment       0x00000000       0x24 ../web_server_bsp/\libucosii_bsp.a(ip.o)
 .comment       0x00000000       0x24 ../web_server_bsp/\libucosii_bsp.a(ip_reasm.o)
 .comment       0x00000000       0x24 ../web_server_bsp/\libucosii_bsp.a(ipdemux.o)
 .comment       0x00000000       0x24 ../web_server_bsp/\libucosii_bsp.a(ipmc.o)
 .comment       0x00000000       0x24 ../web_server_bsp/\libucosii_bsp.a(ipport.o)
 .comment       0x00000000       0x24 ../web_server_bsp/\libucosii_bsp.a(ipraw.o)
 .comment       0x00000000       0x24 ../web_server_bsp/\libucosii_bsp.a(iproute.o)
 .comment       0x00000000       0x24 ../web_server_bsp/\libucosii_bsp.a(udp.o)
 .comment       0x00000000       0x24 ../web_server_bsp/\libucosii_bsp.a(igmp.o)
 .comment       0x00000000       0x24 ../web_server_bsp/\libucosii_bsp.a(igmp2.o)
 .comment       0x00000000       0x24 ../web_server_bsp/\libucosii_bsp.a(ipopt.o)
 .comment       0x00000000       0x24 ../web_server_bsp/\libucosii_bsp.a(u_mctest.o)
 .comment       0x00000000       0x24 ../web_server_bsp/\libucosii_bsp.a(dhcsetup.o)
 .comment       0x00000000       0x24 ../web_server_bsp/\libucosii_bsp.a(memdev.o)
 .comment       0x00000000       0x24 ../web_server_bsp/\libucosii_bsp.a(parseip.o)
 .comment       0x00000000       0x24 ../web_server_bsp/\libucosii_bsp.a(tcpcksum.o)
 .comment       0x00000000       0x24 ../web_server_bsp/\libucosii_bsp.a(in_pcb.o)
 .comment       0x00000000       0x24 ../web_server_bsp/\libucosii_bsp.a(vfsfiles.o)
 .comment       0x00000000       0x24 ../web_server_bsp/\libucosii_bsp.a(vfsport.o)
 .comment       0x00000000       0x24 ../web_server_bsp/\libucosii_bsp.a(alt_fcntl.o)
 .comment       0x00000000       0x24 ../web_server_bsp/\libucosii_bsp.a(alt_icache_flush.o)
 .comment       0x00000000       0x24 ../web_server_bsp/\libucosii_bsp.a(icmp.o)
 .comment       0x00000000       0x24 c:/altera/12.0/nios2eds/bin/gnu/h-i686-mingw32/bin/../lib/gcc/nios2-elf/4.1.2/../../../../nios2-elf/lib\libc.a(lib_a-atexit.o)
 .comment       0x00000000       0x24 c:/altera/12.0/nios2eds/bin/gnu/h-i686-mingw32/bin/../lib/gcc/nios2-elf/4.1.2/../../../../nios2-elf/lib\libc.a(lib_a-calloc.o)
 .comment       0x00000000       0x24 c:/altera/12.0/nios2eds/bin/gnu/h-i686-mingw32/bin/../lib/gcc/nios2-elf/4.1.2/../../../../nios2-elf/lib\libc.a(lib_a-exit.o)
 .comment       0x00000000       0x24 c:/altera/12.0/nios2eds/bin/gnu/h-i686-mingw32/bin/../lib/gcc/nios2-elf/4.1.2/../../../../nios2-elf/lib\libc.a(lib_a-malloc.o)
 .comment       0x00000000       0x24 c:/altera/12.0/nios2eds/bin/gnu/h-i686-mingw32/bin/../lib/gcc/nios2-elf/4.1.2/../../../../nios2-elf/lib\libc.a(lib_a-vprintf.o)
 .comment       0x00000000       0x24 c:/altera/12.0/nios2eds/bin/gnu/h-i686-mingw32/bin/../lib/gcc/nios2-elf/4.1.2/../../../../nios2-elf/lib\libc.a(lib_a-vsprintf.o)
 .comment       0x00000000       0x24 c:/altera/12.0/nios2eds/bin/gnu/h-i686-mingw32/bin/../lib/gcc/nios2-elf/4.1.2/../../../../nios2-elf/lib\libc.a(lib_a-__atexit.o)
 .comment       0x00000000       0x24 c:/altera/12.0/nios2eds/bin/gnu/h-i686-mingw32/bin/../lib/gcc/nios2-elf/4.1.2/../../../../nios2-elf/lib\libc.a(lib_a-__call_atexit.o)
 .comment       0x00000000       0x24 ../web_server_bsp/\libucosii_bsp.a(alt_exit.o)

.debug
 *(.debug)

.line
 *(.line)

.debug_srcinfo
 *(.debug_srcinfo)

.debug_sfnames
 *(.debug_sfnames)

.debug_aranges  0x00000000     0x2058
 *(.debug_aranges)
 .debug_aranges
                0x00000000       0x28 ../web_server_bsp//obj/HAL/src/crt0.o
 .debug_aranges
                0x00000028       0x20 obj/default/alt_error_handler.o
 .debug_aranges
                0x00000048       0x20 obj/default/http.o
 .debug_aranges
                0x00000068       0x20 obj/default/network_utilities.o
 .debug_aranges
                0x00000088       0x20 obj/default/srec_flash.o
 .debug_aranges
                0x000000a8       0x20 obj/default/web_server.o
 .debug_aranges
                0x000000c8       0x20 c:/altera/12.0/nios2eds/bin/gnu/h-i686-mingw32/bin/../lib/gcc/nios2-elf/4.1.2\libgcc.a(lib2-divmod.o)
 .debug_aranges
                0x000000e8       0x20 c:/altera/12.0/nios2eds/bin/gnu/h-i686-mingw32/bin/../lib/gcc/nios2-elf/4.1.2/../../../../nios2-elf/lib\libc.a(lib_a-atoi.o)
 .debug_aranges
                0x00000108       0x20 c:/altera/12.0/nios2eds/bin/gnu/h-i686-mingw32/bin/../lib/gcc/nios2-elf/4.1.2/../../../../nios2-elf/lib\libc.a(lib_a-fclose.o)
 .debug_aranges
                0x00000128       0x20 c:/altera/12.0/nios2eds/bin/gnu/h-i686-mingw32/bin/../lib/gcc/nios2-elf/4.1.2/../../../../nios2-elf/lib\libc.a(lib_a-fflush.o)
 .debug_aranges
                0x00000148       0x20 c:/altera/12.0/nios2eds/bin/gnu/h-i686-mingw32/bin/../lib/gcc/nios2-elf/4.1.2/../../../../nios2-elf/lib\libc.a(lib_a-fgetpos.o)
 .debug_aranges
                0x00000168       0x20 c:/altera/12.0/nios2eds/bin/gnu/h-i686-mingw32/bin/../lib/gcc/nios2-elf/4.1.2/../../../../nios2-elf/lib\libc.a(lib_a-findfp.o)
 .debug_aranges
                0x00000188       0x20 c:/altera/12.0/nios2eds/bin/gnu/h-i686-mingw32/bin/../lib/gcc/nios2-elf/4.1.2/../../../../nios2-elf/lib\libc.a(lib_a-fopen.o)
 .debug_aranges
                0x000001a8       0x20 c:/altera/12.0/nios2eds/bin/gnu/h-i686-mingw32/bin/../lib/gcc/nios2-elf/4.1.2/../../../../nios2-elf/lib\libc.a(lib_a-fprintf.o)
 .debug_aranges
                0x000001c8       0x20 c:/altera/12.0/nios2eds/bin/gnu/h-i686-mingw32/bin/../lib/gcc/nios2-elf/4.1.2/../../../../nios2-elf/lib\libc.a(lib_a-fread.o)
 .debug_aranges
                0x000001e8       0x20 c:/altera/12.0/nios2eds/bin/gnu/h-i686-mingw32/bin/../lib/gcc/nios2-elf/4.1.2/../../../../nios2-elf/lib\libc.a(lib_a-freer.o)
 .debug_aranges
                0x00000208       0x20 c:/altera/12.0/nios2eds/bin/gnu/h-i686-mingw32/bin/../lib/gcc/nios2-elf/4.1.2/../../../../nios2-elf/lib\libc.a(lib_a-fseek.o)
 .debug_aranges
                0x00000228       0x20 c:/altera/12.0/nios2eds/bin/gnu/h-i686-mingw32/bin/../lib/gcc/nios2-elf/4.1.2/../../../../nios2-elf/lib\libc.a(lib_a-fstatr.o)
 .debug_aranges
                0x00000248       0x20 c:/altera/12.0/nios2eds/bin/gnu/h-i686-mingw32/bin/../lib/gcc/nios2-elf/4.1.2/../../../../nios2-elf/lib\libc.a(lib_a-ftell.o)
 .debug_aranges
                0x00000268       0x20 c:/altera/12.0/nios2eds/bin/gnu/h-i686-mingw32/bin/../lib/gcc/nios2-elf/4.1.2/../../../../nios2-elf/lib\libc.a(lib_a-fwalk.o)
 .debug_aranges
                0x00000288       0x20 c:/altera/12.0/nios2eds/bin/gnu/h-i686-mingw32/bin/../lib/gcc/nios2-elf/4.1.2/../../../../nios2-elf/lib\libc.a(lib_a-fwrite.o)
 .debug_aranges
                0x000002a8       0x20 c:/altera/12.0/nios2eds/bin/gnu/h-i686-mingw32/bin/../lib/gcc/nios2-elf/4.1.2/../../../../nios2-elf/lib\libc.a(lib_a-getc.o)
 .debug_aranges
                0x000002c8       0x20 c:/altera/12.0/nios2eds/bin/gnu/h-i686-mingw32/bin/../lib/gcc/nios2-elf/4.1.2/../../../../nios2-elf/lib\libc.a(lib_a-makebuf.o)
 .debug_aranges
                0x000002e8       0x20 c:/altera/12.0/nios2eds/bin/gnu/h-i686-mingw32/bin/../lib/gcc/nios2-elf/4.1.2/../../../../nios2-elf/lib\libc.a(lib_a-mallocr.o)
 .debug_aranges
                0x00000308       0x20 c:/altera/12.0/nios2eds/bin/gnu/h-i686-mingw32/bin/../lib/gcc/nios2-elf/4.1.2/../../../../nios2-elf/lib\libc.a(lib_a-memcpy.o)
 .debug_aranges
                0x00000328       0x20 c:/altera/12.0/nios2eds/bin/gnu/h-i686-mingw32/bin/../lib/gcc/nios2-elf/4.1.2/../../../../nios2-elf/lib\libc.a(lib_a-memmove.o)
 .debug_aranges
                0x00000348       0x20 c:/altera/12.0/nios2eds/bin/gnu/h-i686-mingw32/bin/../lib/gcc/nios2-elf/4.1.2/../../../../nios2-elf/lib\libc.a(lib_a-memset.o)
 .debug_aranges
                0x00000368       0x20 c:/altera/12.0/nios2eds/bin/gnu/h-i686-mingw32/bin/../lib/gcc/nios2-elf/4.1.2/../../../../nios2-elf/lib\libc.a(lib_a-openr.o)
 .debug_aranges
                0x00000388       0x20 c:/altera/12.0/nios2eds/bin/gnu/h-i686-mingw32/bin/../lib/gcc/nios2-elf/4.1.2/../../../../nios2-elf/lib\libc.a(lib_a-perror.o)
 .debug_aranges
                0x000003a8       0x20 c:/altera/12.0/nios2eds/bin/gnu/h-i686-mingw32/bin/../lib/gcc/nios2-elf/4.1.2/../../../../nios2-elf/lib\libc.a(lib_a-printf.o)
 .debug_aranges
                0x000003c8       0x20 c:/altera/12.0/nios2eds/bin/gnu/h-i686-mingw32/bin/../lib/gcc/nios2-elf/4.1.2/../../../../nios2-elf/lib\libc.a(lib_a-putc.o)
 .debug_aranges
                0x000003e8       0x20 c:/altera/12.0/nios2eds/bin/gnu/h-i686-mingw32/bin/../lib/gcc/nios2-elf/4.1.2/../../../../nios2-elf/lib\libc.a(lib_a-putchar.o)
 .debug_aranges
                0x00000408       0x20 c:/altera/12.0/nios2eds/bin/gnu/h-i686-mingw32/bin/../lib/gcc/nios2-elf/4.1.2/../../../../nios2-elf/lib\libc.a(lib_a-puts.o)
 .debug_aranges
                0x00000428       0x20 c:/altera/12.0/nios2eds/bin/gnu/h-i686-mingw32/bin/../lib/gcc/nios2-elf/4.1.2/../../../../nios2-elf/lib\libc.a(lib_a-refill.o)
 .debug_aranges
                0x00000448       0x20 c:/altera/12.0/nios2eds/bin/gnu/h-i686-mingw32/bin/../lib/gcc/nios2-elf/4.1.2/../../../../nios2-elf/lib\libc.a(lib_a-rget.o)
 .debug_aranges
                0x00000468       0x20 c:/altera/12.0/nios2eds/bin/gnu/h-i686-mingw32/bin/../lib/gcc/nios2-elf/4.1.2/../../../../nios2-elf/lib\libc.a(lib_a-sbrkr.o)
 .debug_aranges
                0x00000488       0x20 c:/altera/12.0/nios2eds/bin/gnu/h-i686-mingw32/bin/../lib/gcc/nios2-elf/4.1.2/../../../../nios2-elf/lib\libc.a(lib_a-sprintf.o)
 .debug_aranges
                0x000004a8       0x20 c:/altera/12.0/nios2eds/bin/gnu/h-i686-mingw32/bin/../lib/gcc/nios2-elf/4.1.2/../../../../nios2-elf/lib\libc.a(lib_a-sscanf.o)
 .debug_aranges
                0x000004c8       0x20 c:/altera/12.0/nios2eds/bin/gnu/h-i686-mingw32/bin/../lib/gcc/nios2-elf/4.1.2/../../../../nios2-elf/lib\libc.a(lib_a-stdio.o)
 .debug_aranges
                0x000004e8       0x20 c:/altera/12.0/nios2eds/bin/gnu/h-i686-mingw32/bin/../lib/gcc/nios2-elf/4.1.2/../../../../nios2-elf/lib\libc.a(lib_a-strcasecmp.o)
 .debug_aranges
                0x00000508       0x20 c:/altera/12.0/nios2eds/bin/gnu/h-i686-mingw32/bin/../lib/gcc/nios2-elf/4.1.2/../../../../nios2-elf/lib\libc.a(lib_a-strcat.o)
 .debug_aranges
                0x00000528       0x20 c:/altera/12.0/nios2eds/bin/gnu/h-i686-mingw32/bin/../lib/gcc/nios2-elf/4.1.2/../../../../nios2-elf/lib\libc.a(lib_a-strchr.o)
 .debug_aranges
                0x00000548       0x20 c:/altera/12.0/nios2eds/bin/gnu/h-i686-mingw32/bin/../lib/gcc/nios2-elf/4.1.2/../../../../nios2-elf/lib\libc.a(lib_a-strcmp.o)
 .debug_aranges
                0x00000568       0x20 c:/altera/12.0/nios2eds/bin/gnu/h-i686-mingw32/bin/../lib/gcc/nios2-elf/4.1.2/../../../../nios2-elf/lib\libc.a(lib_a-strcpy.o)
 .debug_aranges
                0x00000588       0x20 c:/altera/12.0/nios2eds/bin/gnu/h-i686-mingw32/bin/../lib/gcc/nios2-elf/4.1.2/../../../../nios2-elf/lib\libc.a(lib_a-strerror.o)
 .debug_aranges
                0x000005a8       0x20 c:/altera/12.0/nios2eds/bin/gnu/h-i686-mingw32/bin/../lib/gcc/nios2-elf/4.1.2/../../../../nios2-elf/lib\libc.a(lib_a-strlen.o)
 .debug_aranges
                0x000005c8       0x20 c:/altera/12.0/nios2eds/bin/gnu/h-i686-mingw32/bin/../lib/gcc/nios2-elf/4.1.2/../../../../nios2-elf/lib\libc.a(lib_a-strncmp.o)
 .debug_aranges
                0x000005e8       0x20 c:/altera/12.0/nios2eds/bin/gnu/h-i686-mingw32/bin/../lib/gcc/nios2-elf/4.1.2/../../../../nios2-elf/lib\libc.a(lib_a-strncpy.o)
 .debug_aranges
                0x00000608       0x20 c:/altera/12.0/nios2eds/bin/gnu/h-i686-mingw32/bin/../lib/gcc/nios2-elf/4.1.2/../../../../nios2-elf/lib\libc.a(lib_a-strstr.o)
 .debug_aranges
                0x00000628       0x20 c:/altera/12.0/nios2eds/bin/gnu/h-i686-mingw32/bin/../lib/gcc/nios2-elf/4.1.2/../../../../nios2-elf/lib\libc.a(lib_a-strtok.o)
 .debug_aranges
                0x00000648       0x20 c:/altera/12.0/nios2eds/bin/gnu/h-i686-mingw32/bin/../lib/gcc/nios2-elf/4.1.2/../../../../nios2-elf/lib\libc.a(lib_a-strtok_r.o)
 .debug_aranges
                0x00000668       0x20 c:/altera/12.0/nios2eds/bin/gnu/h-i686-mingw32/bin/../lib/gcc/nios2-elf/4.1.2/../../../../nios2-elf/lib\libc.a(lib_a-strtol.o)
 .debug_aranges
                0x00000688       0x20 c:/altera/12.0/nios2eds/bin/gnu/h-i686-mingw32/bin/../lib/gcc/nios2-elf/4.1.2/../../../../nios2-elf/lib\libc.a(lib_a-u_strerr.o)
 .debug_aranges
                0x000006a8       0x20 c:/altera/12.0/nios2eds/bin/gnu/h-i686-mingw32/bin/../lib/gcc/nios2-elf/4.1.2/../../../../nios2-elf/lib\libc.a(lib_a-vfprintf.o)
 .debug_aranges
                0x000006c8       0x20 c:/altera/12.0/nios2eds/bin/gnu/h-i686-mingw32/bin/../lib/gcc/nios2-elf/4.1.2/../../../../nios2-elf/lib\libc.a(lib_a-vfscanf.o)
 .debug_aranges
                0x000006e8       0x20 c:/altera/12.0/nios2eds/bin/gnu/h-i686-mingw32/bin/../lib/gcc/nios2-elf/4.1.2/../../../../nios2-elf/lib\libc.a(lib_a-wbuf.o)
 .debug_aranges
                0x00000708       0x20 c:/altera/12.0/nios2eds/bin/gnu/h-i686-mingw32/bin/../lib/gcc/nios2-elf/4.1.2/../../../../nios2-elf/lib\libc.a(lib_a-writer.o)
 .debug_aranges
                0x00000728       0x20 c:/altera/12.0/nios2eds/bin/gnu/h-i686-mingw32/bin/../lib/gcc/nios2-elf/4.1.2/../../../../nios2-elf/lib\libc.a(lib_a-wsetup.o)
 .debug_aranges
                0x00000748       0x20 c:/altera/12.0/nios2eds/bin/gnu/h-i686-mingw32/bin/../lib/gcc/nios2-elf/4.1.2/../../../../nios2-elf/lib\libc.a(lib_a-closer.o)
 .debug_aranges
                0x00000768       0x20 c:/altera/12.0/nios2eds/bin/gnu/h-i686-mingw32/bin/../lib/gcc/nios2-elf/4.1.2/../../../../nios2-elf/lib\libc.a(lib_a-dtoa.o)
 .debug_aranges
                0x00000788       0x20 c:/altera/12.0/nios2eds/bin/gnu/h-i686-mingw32/bin/../lib/gcc/nios2-elf/4.1.2/../../../../nios2-elf/lib\libc.a(lib_a-flags.o)
 .debug_aranges
                0x000007a8       0x20 c:/altera/12.0/nios2eds/bin/gnu/h-i686-mingw32/bin/../lib/gcc/nios2-elf/4.1.2/../../../../nios2-elf/lib\libc.a(lib_a-fputc.o)
 .debug_aranges
                0x000007c8       0x20 c:/altera/12.0/nios2eds/bin/gnu/h-i686-mingw32/bin/../lib/gcc/nios2-elf/4.1.2/../../../../nios2-elf/lib\libc.a(lib_a-fputs.o)
 .debug_aranges
                0x000007e8       0x20 c:/altera/12.0/nios2eds/bin/gnu/h-i686-mingw32/bin/../lib/gcc/nios2-elf/4.1.2/../../../../nios2-elf/lib\libc.a(lib_a-fvwrite.o)
 .debug_aranges
                0x00000808       0x20 c:/altera/12.0/nios2eds/bin/gnu/h-i686-mingw32/bin/../lib/gcc/nios2-elf/4.1.2/../../../../nios2-elf/lib\libc.a(lib_a-isattyr.o)
 .debug_aranges
                0x00000828       0x20 c:/altera/12.0/nios2eds/bin/gnu/h-i686-mingw32/bin/../lib/gcc/nios2-elf/4.1.2/../../../../nios2-elf/lib\libc.a(lib_a-iswspace.o)
 .debug_aranges
                0x00000848       0x20 c:/altera/12.0/nios2eds/bin/gnu/h-i686-mingw32/bin/../lib/gcc/nios2-elf/4.1.2/../../../../nios2-elf/lib\libc.a(lib_a-locale.o)
 .debug_aranges
                0x00000868       0x20 c:/altera/12.0/nios2eds/bin/gnu/h-i686-mingw32/bin/../lib/gcc/nios2-elf/4.1.2/../../../../nios2-elf/lib\libc.a(lib_a-lseekr.o)
 .debug_aranges
                0x00000888       0x20 c:/altera/12.0/nios2eds/bin/gnu/h-i686-mingw32/bin/../lib/gcc/nios2-elf/4.1.2/../../../../nios2-elf/lib\libc.a(lib_a-mbrtowc.o)
 .debug_aranges
                0x000008a8       0x20 c:/altera/12.0/nios2eds/bin/gnu/h-i686-mingw32/bin/../lib/gcc/nios2-elf/4.1.2/../../../../nios2-elf/lib\libc.a(lib_a-mbtowc_r.o)
 .debug_aranges
                0x000008c8       0x20 c:/altera/12.0/nios2eds/bin/gnu/h-i686-mingw32/bin/../lib/gcc/nios2-elf/4.1.2/../../../../nios2-elf/lib\libc.a(lib_a-memchr.o)
 .debug_aranges
                0x000008e8       0x20 c:/altera/12.0/nios2eds/bin/gnu/h-i686-mingw32/bin/../lib/gcc/nios2-elf/4.1.2/../../../../nios2-elf/lib\libc.a(lib_a-memcmp.o)
 .debug_aranges
                0x00000908       0x20 c:/altera/12.0/nios2eds/bin/gnu/h-i686-mingw32/bin/../lib/gcc/nios2-elf/4.1.2/../../../../nios2-elf/lib\libc.a(lib_a-mprec.o)
 .debug_aranges
                0x00000928       0x20 c:/altera/12.0/nios2eds/bin/gnu/h-i686-mingw32/bin/../lib/gcc/nios2-elf/4.1.2/../../../../nios2-elf/lib\libc.a(lib_a-readr.o)
 .debug_aranges
                0x00000948       0x20 c:/altera/12.0/nios2eds/bin/gnu/h-i686-mingw32/bin/../lib/gcc/nios2-elf/4.1.2/../../../../nios2-elf/lib\libc.a(lib_a-reallocr.o)
 .debug_aranges
                0x00000968       0x20 c:/altera/12.0/nios2eds/bin/gnu/h-i686-mingw32/bin/../lib/gcc/nios2-elf/4.1.2/../../../../nios2-elf/lib\libc.a(lib_a-s_isinfd.o)
 .debug_aranges
                0x00000988       0x20 c:/altera/12.0/nios2eds/bin/gnu/h-i686-mingw32/bin/../lib/gcc/nios2-elf/4.1.2/../../../../nios2-elf/lib\libc.a(lib_a-s_isnand.o)
 .debug_aranges
                0x000009a8       0x20 c:/altera/12.0/nios2eds/bin/gnu/h-i686-mingw32/bin/../lib/gcc/nios2-elf/4.1.2/../../../../nios2-elf/lib\libc.a(lib_a-sccl.o)
 .debug_aranges
                0x000009c8       0x20 c:/altera/12.0/nios2eds/bin/gnu/h-i686-mingw32/bin/../lib/gcc/nios2-elf/4.1.2/../../../../nios2-elf/lib\libc.a(lib_a-sf_nan.o)
 .debug_aranges
                0x000009e8       0x20 c:/altera/12.0/nios2eds/bin/gnu/h-i686-mingw32/bin/../lib/gcc/nios2-elf/4.1.2/../../../../nios2-elf/lib\libc.a(lib_a-strtod.o)
 .debug_aranges
                0x00000a08       0x20 c:/altera/12.0/nios2eds/bin/gnu/h-i686-mingw32/bin/../lib/gcc/nios2-elf/4.1.2/../../../../nios2-elf/lib\libc.a(lib_a-strtoll_r.o)
 .debug_aranges
                0x00000a28       0x20 c:/altera/12.0/nios2eds/bin/gnu/h-i686-mingw32/bin/../lib/gcc/nios2-elf/4.1.2/../../../../nios2-elf/lib\libc.a(lib_a-strtoul.o)
 .debug_aranges
                0x00000a48       0x20 c:/altera/12.0/nios2eds/bin/gnu/h-i686-mingw32/bin/../lib/gcc/nios2-elf/4.1.2/../../../../nios2-elf/lib\libc.a(lib_a-strtoull_r.o)
 .debug_aranges
                0x00000a68       0x20 c:/altera/12.0/nios2eds/bin/gnu/h-i686-mingw32/bin/../lib/gcc/nios2-elf/4.1.2/../../../../nios2-elf/lib\libc.a(lib_a-ungetc.o)
 .debug_aranges
                0x00000a88       0x20 c:/altera/12.0/nios2eds/bin/gnu/h-i686-mingw32/bin/../lib/gcc/nios2-elf/4.1.2/../../../../nios2-elf/lib\libc.a(lib_a-callocr.o)
 .debug_aranges
                0x00000aa8       0x20 c:/altera/12.0/nios2eds/bin/gnu/h-i686-mingw32/bin/../lib/gcc/nios2-elf/4.1.2/../../../../nios2-elf/lib\libc.a(lib_a-gdtoa-gethex.o)
 .debug_aranges
                0x00000ac8       0x20 c:/altera/12.0/nios2eds/bin/gnu/h-i686-mingw32/bin/../lib/gcc/nios2-elf/4.1.2/../../../../nios2-elf/lib\libc.a(lib_a-gdtoa-hexnan.o)
 .debug_aranges
                0x00000ae8       0x20 c:/altera/12.0/nios2eds/bin/gnu/h-i686-mingw32/bin/../lib/gcc/nios2-elf/4.1.2\libgcc.a(_muldi3.o)
 .debug_aranges
                0x00000b08       0x20 c:/altera/12.0/nios2eds/bin/gnu/h-i686-mingw32/bin/../lib/gcc/nios2-elf/4.1.2\libgcc.a(_fixunsdfsi.o)
 .debug_aranges
                0x00000b28       0x20 c:/altera/12.0/nios2eds/bin/gnu/h-i686-mingw32/bin/../lib/gcc/nios2-elf/4.1.2\libgcc.a(_udivdi3.o)
 .debug_aranges
                0x00000b48       0x20 c:/altera/12.0/nios2eds/bin/gnu/h-i686-mingw32/bin/../lib/gcc/nios2-elf/4.1.2\libgcc.a(_umoddi3.o)
 .debug_aranges
                0x00000b68       0x20 c:/altera/12.0/nios2eds/bin/gnu/h-i686-mingw32/bin/../lib/gcc/nios2-elf/4.1.2\libgcc.a(_ne_sf.o)
 .debug_aranges
                0x00000b88       0x20 c:/altera/12.0/nios2eds/bin/gnu/h-i686-mingw32/bin/../lib/gcc/nios2-elf/4.1.2\libgcc.a(_gt_sf.o)
 .debug_aranges
                0x00000ba8       0x20 c:/altera/12.0/nios2eds/bin/gnu/h-i686-mingw32/bin/../lib/gcc/nios2-elf/4.1.2\libgcc.a(_lt_sf.o)
 .debug_aranges
                0x00000bc8       0x20 c:/altera/12.0/nios2eds/bin/gnu/h-i686-mingw32/bin/../lib/gcc/nios2-elf/4.1.2\libgcc.a(_addsub_df.o)
 .debug_aranges
                0x00000be8       0x20 c:/altera/12.0/nios2eds/bin/gnu/h-i686-mingw32/bin/../lib/gcc/nios2-elf/4.1.2\libgcc.a(_mul_df.o)
 .debug_aranges
                0x00000c08       0x20 c:/altera/12.0/nios2eds/bin/gnu/h-i686-mingw32/bin/../lib/gcc/nios2-elf/4.1.2\libgcc.a(_div_df.o)
 .debug_aranges
                0x00000c28       0x20 c:/altera/12.0/nios2eds/bin/gnu/h-i686-mingw32/bin/../lib/gcc/nios2-elf/4.1.2\libgcc.a(_eq_df.o)
 .debug_aranges
                0x00000c48       0x20 c:/altera/12.0/nios2eds/bin/gnu/h-i686-mingw32/bin/../lib/gcc/nios2-elf/4.1.2\libgcc.a(_ne_df.o)
 .debug_aranges
                0x00000c68       0x20 c:/altera/12.0/nios2eds/bin/gnu/h-i686-mingw32/bin/../lib/gcc/nios2-elf/4.1.2\libgcc.a(_gt_df.o)
 .debug_aranges
                0x00000c88       0x20 c:/altera/12.0/nios2eds/bin/gnu/h-i686-mingw32/bin/../lib/gcc/nios2-elf/4.1.2\libgcc.a(_ge_df.o)
 .debug_aranges
                0x00000ca8       0x20 c:/altera/12.0/nios2eds/bin/gnu/h-i686-mingw32/bin/../lib/gcc/nios2-elf/4.1.2\libgcc.a(_lt_df.o)
 .debug_aranges
                0x00000cc8       0x20 c:/altera/12.0/nios2eds/bin/gnu/h-i686-mingw32/bin/../lib/gcc/nios2-elf/4.1.2\libgcc.a(_le_df.o)
 .debug_aranges
                0x00000ce8       0x20 c:/altera/12.0/nios2eds/bin/gnu/h-i686-mingw32/bin/../lib/gcc/nios2-elf/4.1.2\libgcc.a(_si_to_df.o)
 .debug_aranges
                0x00000d08       0x20 c:/altera/12.0/nios2eds/bin/gnu/h-i686-mingw32/bin/../lib/gcc/nios2-elf/4.1.2\libgcc.a(_df_to_si.o)
 .debug_aranges
                0x00000d28       0x20 c:/altera/12.0/nios2eds/bin/gnu/h-i686-mingw32/bin/../lib/gcc/nios2-elf/4.1.2\libgcc.a(_df_to_sf.o)
 .debug_aranges
                0x00000d48       0x20 c:/altera/12.0/nios2eds/bin/gnu/h-i686-mingw32/bin/../lib/gcc/nios2-elf/4.1.2\libgcc.a(_usi_to_df.o)
 .debug_aranges
                0x00000d68       0x20 c:/altera/12.0/nios2eds/bin/gnu/h-i686-mingw32/bin/../lib/gcc/nios2-elf/4.1.2\libgcc.a(_clzsi2.o)
 .debug_aranges
                0x00000d88       0x20 c:/altera/12.0/nios2eds/bin/gnu/h-i686-mingw32/bin/../lib/gcc/nios2-elf/4.1.2\libgcc.a(_unpack_sf.o)
 .debug_aranges
                0x00000da8       0x20 c:/altera/12.0/nios2eds/bin/gnu/h-i686-mingw32/bin/../lib/gcc/nios2-elf/4.1.2\libgcc.a(_fpcmp_parts_sf.o)
 .debug_aranges
                0x00000dc8       0x20 c:/altera/12.0/nios2eds/bin/gnu/h-i686-mingw32/bin/../lib/gcc/nios2-elf/4.1.2\libgcc.a(_make_sf.o)
 .debug_aranges
                0x00000de8       0x20 c:/altera/12.0/nios2eds/bin/gnu/h-i686-mingw32/bin/../lib/gcc/nios2-elf/4.1.2\libgcc.a(_pack_df.o)
 .debug_aranges
                0x00000e08       0x20 c:/altera/12.0/nios2eds/bin/gnu/h-i686-mingw32/bin/../lib/gcc/nios2-elf/4.1.2\libgcc.a(_unpack_df.o)
 .debug_aranges
                0x00000e28       0x20 c:/altera/12.0/nios2eds/bin/gnu/h-i686-mingw32/bin/../lib/gcc/nios2-elf/4.1.2\libgcc.a(_fpcmp_parts_df.o)
 .debug_aranges
                0x00000e48       0x20 c:/altera/12.0/nios2eds/bin/gnu/h-i686-mingw32/bin/../lib/gcc/nios2-elf/4.1.2\libgcc.a(_pack_sf.o)
 .debug_aranges
                0x00000e68       0x20 ../web_server_bsp/\libucosii_bsp.a(alt_dcache_flush.o)
 .debug_aranges
                0x00000e88       0x20 ../web_server_bsp/\libucosii_bsp.a(alt_flash_dev.o)
 .debug_aranges
                0x00000ea8       0x20 ../web_server_bsp/\libucosii_bsp.a(alt_fstat.o)
 .debug_aranges
                0x00000ec8       0x20 ../web_server_bsp/\libucosii_bsp.a(alt_isatty.o)
 .debug_aranges
                0x00000ee8       0x20 ../web_server_bsp/\libucosii_bsp.a(alt_load.o)
 .debug_aranges
                0x00000f08       0x20 ../web_server_bsp/\libucosii_bsp.a(alt_lseek.o)
 .debug_aranges
                0x00000f28       0x20 ../web_server_bsp/\libucosii_bsp.a(alt_main.o)
 .debug_aranges
                0x00000f48       0x20 ../web_server_bsp/\libucosii_bsp.a(alt_open.o)
 .debug_aranges
                0x00000f68       0x20 ../web_server_bsp/\libucosii_bsp.a(alt_release_fd.o)
 .debug_aranges
                0x00000f88       0x20 ../web_server_bsp/\libucosii_bsp.a(alt_sbrk.o)
 .debug_aranges
                0x00000fa8       0x20 ../web_server_bsp/\libucosii_bsp.a(alt_tick.o)
 .debug_aranges
                0x00000fc8       0x20 ../web_server_bsp/\libucosii_bsp.a(alt_usleep.o)
 .debug_aranges
                0x00000fe8       0x20 ../web_server_bsp/\libucosii_bsp.a(alt_env_lock.o)
 .debug_aranges
                0x00001008       0x20 ../web_server_bsp/\libucosii_bsp.a(alt_malloc_lock.o)
 .debug_aranges
                0x00001028       0x20 ../web_server_bsp/\libucosii_bsp.a(os_core.o)
 .debug_aranges
                0x00001048       0x20 ../web_server_bsp/\libucosii_bsp.a(os_dbg.o)
 .debug_aranges
                0x00001068       0x20 ../web_server_bsp/\libucosii_bsp.a(os_flag.o)
 .debug_aranges
                0x00001088       0x20 ../web_server_bsp/\libucosii_bsp.a(os_mbox.o)
 .debug_aranges
                0x000010a8       0x20 ../web_server_bsp/\libucosii_bsp.a(os_mem.o)
 .debug_aranges
                0x000010c8       0x20 ../web_server_bsp/\libucosii_bsp.a(os_q.o)
 .debug_aranges
                0x000010e8       0x20 ../web_server_bsp/\libucosii_bsp.a(os_sem.o)
 .debug_aranges
                0x00001108       0x20 ../web_server_bsp/\libucosii_bsp.a(os_task.o)
 .debug_aranges
                0x00001128       0x20 ../web_server_bsp/\libucosii_bsp.a(os_time.o)
 .debug_aranges
                0x00001148       0x20 ../web_server_bsp/\libucosii_bsp.a(alt_sys_init.o)
 .debug_aranges
                0x00001168       0x20 ../web_server_bsp/\libucosii_bsp.a(altera_avalon_cfi_flash.o)
 .debug_aranges
                0x00001188       0x20 ../web_server_bsp/\libucosii_bsp.a(altera_avalon_cfi_flash_table.o)
 .debug_aranges
                0x000011a8       0x20 ../web_server_bsp/\libucosii_bsp.a(altera_avalon_jtag_uart_fd.o)
 .debug_aranges
                0x000011c8       0x20 ../web_server_bsp/\libucosii_bsp.a(altera_avalon_jtag_uart_init.o)
 .debug_aranges
                0x000011e8       0x20 ../web_server_bsp/\libucosii_bsp.a(altera_avalon_jtag_uart_ioctl.o)
 .debug_aranges
                0x00001208       0x20 ../web_server_bsp/\libucosii_bsp.a(altera_avalon_jtag_uart_read.o)
 .debug_aranges
                0x00001228       0x20 ../web_server_bsp/\libucosii_bsp.a(altera_avalon_jtag_uart_write.o)
 .debug_aranges
                0x00001248       0x20 ../web_server_bsp/\libucosii_bsp.a(altera_avalon_lcd_16207.o)
 .debug_aranges
                0x00001268       0x20 ../web_server_bsp/\libucosii_bsp.a(altera_avalon_lcd_16207_fd.o)
 .debug_aranges
                0x00001288       0x20 ../web_server_bsp/\libucosii_bsp.a(altera_avalon_sgdma.o)
 .debug_aranges
                0x000012a8       0x20 ../web_server_bsp/\libucosii_bsp.a(altera_avalon_timer_sc.o)
 .debug_aranges
                0x000012c8       0x20 ../web_server_bsp/\libucosii_bsp.a(altera_avalon_tse.o)
 .debug_aranges
                0x000012e8       0x20 ../web_server_bsp/\libucosii_bsp.a(altera_avalon_uart_fd.o)
 .debug_aranges
                0x00001308       0x20 ../web_server_bsp/\libucosii_bsp.a(altera_avalon_uart_init.o)
 .debug_aranges
                0x00001328       0x20 ../web_server_bsp/\libucosii_bsp.a(altera_avalon_uart_read.o)
 .debug_aranges
                0x00001348       0x20 ../web_server_bsp/\libucosii_bsp.a(altera_avalon_uart_write.o)
 .debug_aranges
                0x00001368       0x20 ../web_server_bsp/\libucosii_bsp.a(altera_ro_zipfs.o)
 .debug_aranges
                0x00001388       0x20 ../web_server_bsp/\libucosii_bsp.a(ins_tse_mac.o)
 .debug_aranges
                0x000013a8       0x20 ../web_server_bsp/\libucosii_bsp.a(alt_iniche_close.o)
 .debug_aranges
                0x000013c8       0x20 ../web_server_bsp/\libucosii_bsp.a(alt_iniche_dev.o)
 .debug_aranges
                0x000013e8       0x20 ../web_server_bsp/\libucosii_bsp.a(alt_iniche_read.o)
 .debug_aranges
                0x00001408       0x20 ../web_server_bsp/\libucosii_bsp.a(alt_iniche_write.o)
 .debug_aranges
                0x00001428       0x20 ../web_server_bsp/\libucosii_bsp.a(ipnet.o)
 .debug_aranges
                0x00001448       0x20 ../web_server_bsp/\libucosii_bsp.a(ipstart.o)
 .debug_aranges
                0x00001468       0x20 ../web_server_bsp/\libucosii_bsp.a(igmp_cmn.o)
 .debug_aranges
                0x00001488       0x20 ../web_server_bsp/\libucosii_bsp.a(bsdsock.o)
 .debug_aranges
                0x000014a8       0x20 ../web_server_bsp/\libucosii_bsp.a(cksum.o)
 .debug_aranges
                0x000014c8       0x20 ../web_server_bsp/\libucosii_bsp.a(in_utils.o)
 .debug_aranges
                0x000014e8       0x20 ../web_server_bsp/\libucosii_bsp.a(netmain.o)
 .debug_aranges
                0x00001508       0x20 ../web_server_bsp/\libucosii_bsp.a(tk_crnos.o)
 .debug_aranges
                0x00001528       0x20 ../web_server_bsp/\libucosii_bsp.a(dhcpclnt.o)
 .debug_aranges
                0x00001548       0x20 ../web_server_bsp/\libucosii_bsp.a(dhcputil.o)
 .debug_aranges
                0x00001568       0x20 ../web_server_bsp/\libucosii_bsp.a(pktalloc.o)
 .debug_aranges
                0x00001588       0x20 ../web_server_bsp/\libucosii_bsp.a(q.o)
 .debug_aranges
                0x000015a8       0x20 ../web_server_bsp/\libucosii_bsp.a(udp_open.o)
 .debug_aranges
                0x000015c8       0x20 ../web_server_bsp/\libucosii_bsp.a(asm_cksum.o)
 .debug_aranges
                0x000015e8       0x20 ../web_server_bsp/\libucosii_bsp.a(brdutils.o)
 .debug_aranges
                0x00001608       0x20 ../web_server_bsp/\libucosii_bsp.a(osportco.o)
 .debug_aranges
                0x00001628       0x20 ../web_server_bsp/\libucosii_bsp.a(targnios.o)
 .debug_aranges
                0x00001648       0x20 ../web_server_bsp/\libucosii_bsp.a(nptcp.o)
 .debug_aranges
                0x00001668       0x20 ../web_server_bsp/\libucosii_bsp.a(rawsock.o)
 .debug_aranges
                0x00001688       0x20 ../web_server_bsp/\libucosii_bsp.a(sockcall.o)
 .debug_aranges
                0x000016a8       0x20 ../web_server_bsp/\libucosii_bsp.a(socket.o)
 .debug_aranges
                0x000016c8       0x20 ../web_server_bsp/\libucosii_bsp.a(socket2.o)
 .debug_aranges
                0x000016e8       0x20 ../web_server_bsp/\libucosii_bsp.a(soselect.o)
 .debug_aranges
                0x00001708       0x20 ../web_server_bsp/\libucosii_bsp.a(tcp_in.o)
 .debug_aranges
                0x00001728       0x20 ../web_server_bsp/\libucosii_bsp.a(tcp_out.o)
 .debug_aranges
                0x00001748       0x20 ../web_server_bsp/\libucosii_bsp.a(tcp_subr.o)
 .debug_aranges
                0x00001768       0x20 ../web_server_bsp/\libucosii_bsp.a(tcp_timr.o)
 .debug_aranges
                0x00001788       0x20 ../web_server_bsp/\libucosii_bsp.a(tcp_usr.o)
 .debug_aranges
                0x000017a8       0x20 ../web_server_bsp/\libucosii_bsp.a(tcpport.o)
 .debug_aranges
                0x000017c8       0x20 ../web_server_bsp/\libucosii_bsp.a(udpsock.o)
 .debug_aranges
                0x000017e8       0x20 ../web_server_bsp/\libucosii_bsp.a(alt_alarm_start.o)
 .debug_aranges
                0x00001808       0x20 ../web_server_bsp/\libucosii_bsp.a(alt_busy_sleep.o)
 .debug_aranges
                0x00001828       0x20 ../web_server_bsp/\libucosii_bsp.a(alt_close.o)
 .debug_aranges
                0x00001848       0x20 ../web_server_bsp/\libucosii_bsp.a(alt_dcache_flush_all.o)
 .debug_aranges
                0x00001868       0x20 ../web_server_bsp/\libucosii_bsp.a(alt_dev.o)
 .debug_aranges
                0x00001888       0x20 ../web_server_bsp/\libucosii_bsp.a(alt_dev_llist_insert.o)
 .debug_aranges
                0x000018a8       0x20 ../web_server_bsp/\libucosii_bsp.a(alt_do_ctors.o)
 .debug_aranges
                0x000018c8       0x20 ../web_server_bsp/\libucosii_bsp.a(alt_do_dtors.o)
 .debug_aranges
                0x000018e8       0x20 ../web_server_bsp/\libucosii_bsp.a(alt_find_dev.o)
 .debug_aranges
                0x00001908       0x20 ../web_server_bsp/\libucosii_bsp.a(alt_find_file.o)
 .debug_aranges
                0x00001928       0x20 ../web_server_bsp/\libucosii_bsp.a(alt_fs_reg.o)
 .debug_aranges
                0x00001948       0x20 ../web_server_bsp/\libucosii_bsp.a(alt_get_fd.o)
 .debug_aranges
                0x00001968       0x20 ../web_server_bsp/\libucosii_bsp.a(alt_icache_flush_all.o)
 .debug_aranges
                0x00001988       0x20 ../web_server_bsp/\libucosii_bsp.a(alt_iic.o)
 .debug_aranges
                0x000019a8       0x20 ../web_server_bsp/\libucosii_bsp.a(alt_iic_isr_register.o)
 .debug_aranges
                0x000019c8       0x20 ../web_server_bsp/\libucosii_bsp.a(alt_io_redirect.o)
 .debug_aranges
                0x000019e8       0x30 ../web_server_bsp/\libucosii_bsp.a(alt_irq_entry.o)
 .debug_aranges
                0x00001a18       0x28 ../web_server_bsp/\libucosii_bsp.a(alt_irq_handler.o)
 .debug_aranges
                0x00001a40       0x20 ../web_server_bsp/\libucosii_bsp.a(alt_read.o)
 .debug_aranges
                0x00001a60       0x20 ../web_server_bsp/\libucosii_bsp.a(alt_remap_cached.o)
 .debug_aranges
                0x00001a80       0x20 ../web_server_bsp/\libucosii_bsp.a(alt_remap_uncached.o)
 .debug_aranges
                0x00001aa0       0x20 ../web_server_bsp/\libucosii_bsp.a(alt_uncached_malloc.o)
 .debug_aranges
                0x00001ac0       0x20 ../web_server_bsp/\libucosii_bsp.a(alt_write.o)
 .debug_aranges
                0x00001ae0       0x20 ../web_server_bsp/\libucosii_bsp.a(altera_nios2_qsys_irq.o)
 .debug_aranges
                0x00001b00       0x20 ../web_server_bsp/\libucosii_bsp.a(os_cpu_a.o)
 .debug_aranges
                0x00001b20       0x20 ../web_server_bsp/\libucosii_bsp.a(os_cpu_c.o)
 .debug_aranges
                0x00001b40       0x20 ../web_server_bsp/\libucosii_bsp.a(altera_avalon_cfi_flash_amd.o)
 .debug_aranges
                0x00001b60       0x20 ../web_server_bsp/\libucosii_bsp.a(altera_avalon_cfi_flash_intel.o)
 .debug_aranges
                0x00001b80       0x20 ../web_server_bsp/\libucosii_bsp.a(allports.o)
 .debug_aranges
                0x00001ba0       0x20 ../web_server_bsp/\libucosii_bsp.a(timeouts.o)
 .debug_aranges
                0x00001bc0       0x20 ../web_server_bsp/\libucosii_bsp.a(tk_misc.o)
 .debug_aranges
                0x00001be0       0x20 ../web_server_bsp/\libucosii_bsp.a(alt_iniche_fcntl.o)
 .debug_aranges
                0x00001c00       0x20 ../web_server_bsp/\libucosii_bsp.a(et_arp.o)
 .debug_aranges
                0x00001c20       0x20 ../web_server_bsp/\libucosii_bsp.a(iface.o)
 .debug_aranges
                0x00001c40       0x20 ../web_server_bsp/\libucosii_bsp.a(ip.o)
 .debug_aranges
                0x00001c60       0x20 ../web_server_bsp/\libucosii_bsp.a(ip_reasm.o)
 .debug_aranges
                0x00001c80       0x20 ../web_server_bsp/\libucosii_bsp.a(ipdemux.o)
 .debug_aranges
                0x00001ca0       0x20 ../web_server_bsp/\libucosii_bsp.a(ipmc.o)
 .debug_aranges
                0x00001cc0       0x20 ../web_server_bsp/\libucosii_bsp.a(ipport.o)
 .debug_aranges
                0x00001ce0       0x20 ../web_server_bsp/\libucosii_bsp.a(ipraw.o)
 .debug_aranges
                0x00001d00       0x20 ../web_server_bsp/\libucosii_bsp.a(iproute.o)
 .debug_aranges
                0x00001d20       0x20 ../web_server_bsp/\libucosii_bsp.a(udp.o)
 .debug_aranges
                0x00001d40       0x20 ../web_server_bsp/\libucosii_bsp.a(igmp.o)
 .debug_aranges
                0x00001d60       0x20 ../web_server_bsp/\libucosii_bsp.a(igmp2.o)
 .debug_aranges
                0x00001d80       0x20 ../web_server_bsp/\libucosii_bsp.a(ipopt.o)
 .debug_aranges
                0x00001da0       0x20 ../web_server_bsp/\libucosii_bsp.a(u_mctest.o)
 .debug_aranges
                0x00001dc0       0x20 ../web_server_bsp/\libucosii_bsp.a(dhcsetup.o)
 .debug_aranges
                0x00001de0       0x20 ../web_server_bsp/\libucosii_bsp.a(memdev.o)
 .debug_aranges
                0x00001e00       0x20 ../web_server_bsp/\libucosii_bsp.a(parseip.o)
 .debug_aranges
                0x00001e20       0x20 ../web_server_bsp/\libucosii_bsp.a(tcpcksum.o)
 .debug_aranges
                0x00001e40       0x20 ../web_server_bsp/\libucosii_bsp.a(in_pcb.o)
 .debug_aranges
                0x00001e60       0x20 ../web_server_bsp/\libucosii_bsp.a(vfsfiles.o)
 .debug_aranges
                0x00001e80       0x20 ../web_server_bsp/\libucosii_bsp.a(vfsport.o)
 .debug_aranges
                0x00001ea0       0x38 ../web_server_bsp/\libucosii_bsp.a(alt_exception_entry.o)
 .debug_aranges
                0x00001ed8       0x20 ../web_server_bsp/\libucosii_bsp.a(alt_fcntl.o)
 .debug_aranges
                0x00001ef8       0x20 ../web_server_bsp/\libucosii_bsp.a(alt_icache_flush.o)
 .debug_aranges
                0x00001f18       0x20 ../web_server_bsp/\libucosii_bsp.a(icmp.o)
 .debug_aranges
                0x00001f38       0x20 c:/altera/12.0/nios2eds/bin/gnu/h-i686-mingw32/bin/../lib/gcc/nios2-elf/4.1.2/../../../../nios2-elf/lib\libc.a(lib_a-atexit.o)
 .debug_aranges
                0x00001f58       0x20 c:/altera/12.0/nios2eds/bin/gnu/h-i686-mingw32/bin/../lib/gcc/nios2-elf/4.1.2/../../../../nios2-elf/lib\libc.a(lib_a-calloc.o)
 .debug_aranges
                0x00001f78       0x20 c:/altera/12.0/nios2eds/bin/gnu/h-i686-mingw32/bin/../lib/gcc/nios2-elf/4.1.2/../../../../nios2-elf/lib\libc.a(lib_a-exit.o)
 .debug_aranges
                0x00001f98       0x20 c:/altera/12.0/nios2eds/bin/gnu/h-i686-mingw32/bin/../lib/gcc/nios2-elf/4.1.2/../../../../nios2-elf/lib\libc.a(lib_a-malloc.o)
 .debug_aranges
                0x00001fb8       0x20 c:/altera/12.0/nios2eds/bin/gnu/h-i686-mingw32/bin/../lib/gcc/nios2-elf/4.1.2/../../../../nios2-elf/lib\libc.a(lib_a-vprintf.o)
 .debug_aranges
                0x00001fd8       0x20 c:/altera/12.0/nios2eds/bin/gnu/h-i686-mingw32/bin/../lib/gcc/nios2-elf/4.1.2/../../../../nios2-elf/lib\libc.a(lib_a-vsprintf.o)
 .debug_aranges
                0x00001ff8       0x20 c:/altera/12.0/nios2eds/bin/gnu/h-i686-mingw32/bin/../lib/gcc/nios2-elf/4.1.2/../../../../nios2-elf/lib\libc.a(lib_a-__atexit.o)
 .debug_aranges
                0x00002018       0x20 c:/altera/12.0/nios2eds/bin/gnu/h-i686-mingw32/bin/../lib/gcc/nios2-elf/4.1.2/../../../../nios2-elf/lib\libc.a(lib_a-__call_atexit.o)
 .debug_aranges
                0x00002038       0x20 ../web_server_bsp/\libucosii_bsp.a(alt_exit.o)

.debug_pubnames
                0x00000000     0x648c
 *(.debug_pubnames)
 .debug_pubnames
                0x00000000       0x2d obj/default/alt_error_handler.o
 .debug_pubnames
                0x0000002d      0x2ee obj/default/http.o
 .debug_pubnames
                0x0000031b       0xda obj/default/network_utilities.o
 .debug_pubnames
                0x000003f5       0x79 obj/default/srec_flash.o
 .debug_pubnames
                0x0000046e       0x25 obj/default/tse_my_system.o
 .debug_pubnames
                0x00000493      0x101 obj/default/web_server.o
 .debug_pubnames
                0x00000594       0x48 c:/altera/12.0/nios2eds/bin/gnu/h-i686-mingw32/bin/../lib/gcc/nios2-elf/4.1.2\libgcc.a(lib2-divmod.o)
 .debug_pubnames
                0x000005dc       0x27 c:/altera/12.0/nios2eds/bin/gnu/h-i686-mingw32/bin/../lib/gcc/nios2-elf/4.1.2/../../../../nios2-elf/lib\libc.a(lib_a-atoi.o)
 .debug_pubnames
                0x00000603       0x2e c:/altera/12.0/nios2eds/bin/gnu/h-i686-mingw32/bin/../lib/gcc/nios2-elf/4.1.2/../../../../nios2-elf/lib\libc.a(lib_a-ctype_.o)
 .debug_pubnames
                0x00000631       0x2b c:/altera/12.0/nios2eds/bin/gnu/h-i686-mingw32/bin/../lib/gcc/nios2-elf/4.1.2/../../../../nios2-elf/lib\libc.a(lib_a-fclose.o)
 .debug_pubnames
                0x0000065c       0x2b c:/altera/12.0/nios2eds/bin/gnu/h-i686-mingw32/bin/../lib/gcc/nios2-elf/4.1.2/../../../../nios2-elf/lib\libc.a(lib_a-fflush.o)
 .debug_pubnames
                0x00000687       0x2d c:/altera/12.0/nios2eds/bin/gnu/h-i686-mingw32/bin/../lib/gcc/nios2-elf/4.1.2/../../../../nios2-elf/lib\libc.a(lib_a-fgetpos.o)
 .debug_pubnames
                0x000006b4       0xdb c:/altera/12.0/nios2eds/bin/gnu/h-i686-mingw32/bin/../lib/gcc/nios2-elf/4.1.2/../../../../nios2-elf/lib\libc.a(lib_a-findfp.o)
 .debug_pubnames
                0x0000078f       0x29 c:/altera/12.0/nios2eds/bin/gnu/h-i686-mingw32/bin/../lib/gcc/nios2-elf/4.1.2/../../../../nios2-elf/lib\libc.a(lib_a-fopen.o)
 .debug_pubnames
                0x000007b8       0x2d c:/altera/12.0/nios2eds/bin/gnu/h-i686-mingw32/bin/../lib/gcc/nios2-elf/4.1.2/../../../../nios2-elf/lib\libc.a(lib_a-fprintf.o)
 .debug_pubnames
                0x000007e5       0x29 c:/altera/12.0/nios2eds/bin/gnu/h-i686-mingw32/bin/../lib/gcc/nios2-elf/4.1.2/../../../../nios2-elf/lib\libc.a(lib_a-fread.o)
 .debug_pubnames
                0x0000080e       0x31 c:/altera/12.0/nios2eds/bin/gnu/h-i686-mingw32/bin/../lib/gcc/nios2-elf/4.1.2/../../../../nios2-elf/lib\libc.a(lib_a-freer.o)
 .debug_pubnames
                0x0000083f       0x29 c:/altera/12.0/nios2eds/bin/gnu/h-i686-mingw32/bin/../lib/gcc/nios2-elf/4.1.2/../../../../nios2-elf/lib\libc.a(lib_a-fseek.o)
 .debug_pubnames
                0x00000868       0x1f c:/altera/12.0/nios2eds/bin/gnu/h-i686-mingw32/bin/../lib/gcc/nios2-elf/4.1.2/../../../../nios2-elf/lib\libc.a(lib_a-fstatr.o)
 .debug_pubnames
                0x00000887       0x29 c:/altera/12.0/nios2eds/bin/gnu/h-i686-mingw32/bin/../lib/gcc/nios2-elf/4.1.2/../../../../nios2-elf/lib\libc.a(lib_a-ftell.o)
 .debug_pubnames
                0x000008b0       0x2e c:/altera/12.0/nios2eds/bin/gnu/h-i686-mingw32/bin/../lib/gcc/nios2-elf/4.1.2/../../../../nios2-elf/lib\libc.a(lib_a-fwalk.o)
 .debug_pubnames
                0x000008de       0x2b c:/altera/12.0/nios2eds/bin/gnu/h-i686-mingw32/bin/../lib/gcc/nios2-elf/4.1.2/../../../../nios2-elf/lib\libc.a(lib_a-fwrite.o)
 .debug_pubnames
                0x00000909       0x27 c:/altera/12.0/nios2eds/bin/gnu/h-i686-mingw32/bin/../lib/gcc/nios2-elf/4.1.2/../../../../nios2-elf/lib\libc.a(lib_a-getc.o)
 .debug_pubnames
                0x00000930       0x39 c:/altera/12.0/nios2eds/bin/gnu/h-i686-mingw32/bin/../lib/gcc/nios2-elf/4.1.2/../../../../nios2-elf/lib\libc.a(lib_a-impure.o)
 .debug_pubnames
                0x00000969       0x1c c:/altera/12.0/nios2eds/bin/gnu/h-i686-mingw32/bin/../lib/gcc/nios2-elf/4.1.2/../../../../nios2-elf/lib\libc.a(lib_a-int_errno.o)
 .debug_pubnames
                0x00000985       0x23 c:/altera/12.0/nios2eds/bin/gnu/h-i686-mingw32/bin/../lib/gcc/nios2-elf/4.1.2/../../../../nios2-elf/lib\libc.a(lib_a-makebuf.o)
 .debug_pubnames
                0x000009a8       0xce c:/altera/12.0/nios2eds/bin/gnu/h-i686-mingw32/bin/../lib/gcc/nios2-elf/4.1.2/../../../../nios2-elf/lib\libc.a(lib_a-mallocr.o)
 .debug_pubnames
                0x00000a76       0x1d c:/altera/12.0/nios2eds/bin/gnu/h-i686-mingw32/bin/../lib/gcc/nios2-elf/4.1.2/../../../../nios2-elf/lib\libc.a(lib_a-memcpy.o)
 .debug_pubnames
                0x00000a93       0x1e c:/altera/12.0/nios2eds/bin/gnu/h-i686-mingw32/bin/../lib/gcc/nios2-elf/4.1.2/../../../../nios2-elf/lib\libc.a(lib_a-memmove.o)
 .debug_pubnames
                0x00000ab1       0x1d c:/altera/12.0/nios2eds/bin/gnu/h-i686-mingw32/bin/../lib/gcc/nios2-elf/4.1.2/../../../../nios2-elf/lib\libc.a(lib_a-memset.o)
 .debug_pubnames
                0x00000ace       0x1e c:/altera/12.0/nios2eds/bin/gnu/h-i686-mingw32/bin/../lib/gcc/nios2-elf/4.1.2/../../../../nios2-elf/lib\libc.a(lib_a-openr.o)
 .debug_pubnames
                0x00000aec       0x2b c:/altera/12.0/nios2eds/bin/gnu/h-i686-mingw32/bin/../lib/gcc/nios2-elf/4.1.2/../../../../nios2-elf/lib\libc.a(lib_a-perror.o)
 .debug_pubnames
                0x00000b17       0x2b c:/altera/12.0/nios2eds/bin/gnu/h-i686-mingw32/bin/../lib/gcc/nios2-elf/4.1.2/../../../../nios2-elf/lib\libc.a(lib_a-printf.o)
 .debug_pubnames
                0x00000b42       0x27 c:/altera/12.0/nios2eds/bin/gnu/h-i686-mingw32/bin/../lib/gcc/nios2-elf/4.1.2/../../../../nios2-elf/lib\libc.a(lib_a-putc.o)
 .debug_pubnames
                0x00000b69       0x2d c:/altera/12.0/nios2eds/bin/gnu/h-i686-mingw32/bin/../lib/gcc/nios2-elf/4.1.2/../../../../nios2-elf/lib\libc.a(lib_a-putchar.o)
 .debug_pubnames
                0x00000b96       0x27 c:/altera/12.0/nios2eds/bin/gnu/h-i686-mingw32/bin/../lib/gcc/nios2-elf/4.1.2/../../../../nios2-elf/lib\libc.a(lib_a-puts.o)
 .debug_pubnames
                0x00000bbd       0x22 c:/altera/12.0/nios2eds/bin/gnu/h-i686-mingw32/bin/../lib/gcc/nios2-elf/4.1.2/../../../../nios2-elf/lib\libc.a(lib_a-refill.o)
 .debug_pubnames
                0x00000bdf       0x2c c:/altera/12.0/nios2eds/bin/gnu/h-i686-mingw32/bin/../lib/gcc/nios2-elf/4.1.2/../../../../nios2-elf/lib\libc.a(lib_a-rget.o)
 .debug_pubnames
                0x00000c0b       0x1e c:/altera/12.0/nios2eds/bin/gnu/h-i686-mingw32/bin/../lib/gcc/nios2-elf/4.1.2/../../../../nios2-elf/lib\libc.a(lib_a-sbrkr.o)
 .debug_pubnames
                0x00000c29       0x2d c:/altera/12.0/nios2eds/bin/gnu/h-i686-mingw32/bin/../lib/gcc/nios2-elf/4.1.2/../../../../nios2-elf/lib\libc.a(lib_a-sprintf.o)
 .debug_pubnames
                0x00000c56       0x2b c:/altera/12.0/nios2eds/bin/gnu/h-i686-mingw32/bin/../lib/gcc/nios2-elf/4.1.2/../../../../nios2-elf/lib\libc.a(lib_a-sscanf.o)
 .debug_pubnames
                0x00000c81       0x44 c:/altera/12.0/nios2eds/bin/gnu/h-i686-mingw32/bin/../lib/gcc/nios2-elf/4.1.2/../../../../nios2-elf/lib\libc.a(lib_a-stdio.o)
 .debug_pubnames
                0x00000cc5       0x21 c:/altera/12.0/nios2eds/bin/gnu/h-i686-mingw32/bin/../lib/gcc/nios2-elf/4.1.2/../../../../nios2-elf/lib\libc.a(lib_a-strcasecmp.o)
 .debug_pubnames
                0x00000ce6       0x1d c:/altera/12.0/nios2eds/bin/gnu/h-i686-mingw32/bin/../lib/gcc/nios2-elf/4.1.2/../../../../nios2-elf/lib\libc.a(lib_a-strcat.o)
 .debug_pubnames
                0x00000d03       0x1d c:/altera/12.0/nios2eds/bin/gnu/h-i686-mingw32/bin/../lib/gcc/nios2-elf/4.1.2/../../../../nios2-elf/lib\libc.a(lib_a-strchr.o)
 .debug_pubnames
                0x00000d20       0x1d c:/altera/12.0/nios2eds/bin/gnu/h-i686-mingw32/bin/../lib/gcc/nios2-elf/4.1.2/../../../../nios2-elf/lib\libc.a(lib_a-strcmp.o)
 .debug_pubnames
                0x00000d3d       0x1d c:/altera/12.0/nios2eds/bin/gnu/h-i686-mingw32/bin/../lib/gcc/nios2-elf/4.1.2/../../../../nios2-elf/lib\libc.a(lib_a-strcpy.o)
 .debug_pubnames
                0x00000d5a       0x1f c:/altera/12.0/nios2eds/bin/gnu/h-i686-mingw32/bin/../lib/gcc/nios2-elf/4.1.2/../../../../nios2-elf/lib\libc.a(lib_a-strerror.o)
 .debug_pubnames
                0x00000d79       0x1d c:/altera/12.0/nios2eds/bin/gnu/h-i686-mingw32/bin/../lib/gcc/nios2-elf/4.1.2/../../../../nios2-elf/lib\libc.a(lib_a-strlen.o)
 .debug_pubnames
                0x00000d96       0x1e c:/altera/12.0/nios2eds/bin/gnu/h-i686-mingw32/bin/../lib/gcc/nios2-elf/4.1.2/../../../../nios2-elf/lib\libc.a(lib_a-strncmp.o)
 .debug_pubnames
                0x00000db4       0x1e c:/altera/12.0/nios2eds/bin/gnu/h-i686-mingw32/bin/../lib/gcc/nios2-elf/4.1.2/../../../../nios2-elf/lib\libc.a(lib_a-strncpy.o)
 .debug_pubnames
                0x00000dd2       0x1d c:/altera/12.0/nios2eds/bin/gnu/h-i686-mingw32/bin/../lib/gcc/nios2-elf/4.1.2/../../../../nios2-elf/lib\libc.a(lib_a-strstr.o)
 .debug_pubnames
                0x00000def       0x1d c:/altera/12.0/nios2eds/bin/gnu/h-i686-mingw32/bin/../lib/gcc/nios2-elf/4.1.2/../../../../nios2-elf/lib\libc.a(lib_a-strtok.o)
 .debug_pubnames
                0x00000e0c       0x2e c:/altera/12.0/nios2eds/bin/gnu/h-i686-mingw32/bin/../lib/gcc/nios2-elf/4.1.2/../../../../nios2-elf/lib\libc.a(lib_a-strtok_r.o)
 .debug_pubnames
                0x00000e3a       0x2b c:/altera/12.0/nios2eds/bin/gnu/h-i686-mingw32/bin/../lib/gcc/nios2-elf/4.1.2/../../../../nios2-elf/lib\libc.a(lib_a-strtol.o)
 .debug_pubnames
                0x00000e65       0x25 c:/altera/12.0/nios2eds/bin/gnu/h-i686-mingw32/bin/../lib/gcc/nios2-elf/4.1.2/../../../../nios2-elf/lib\libc.a(lib_a-u_strerr.o)
 .debug_pubnames
                0x00000e8a       0x45 c:/altera/12.0/nios2eds/bin/gnu/h-i686-mingw32/bin/../lib/gcc/nios2-elf/4.1.2/../../../../nios2-elf/lib\libc.a(lib_a-vfprintf.o)
 .debug_pubnames
                0x00000ecf       0x4d c:/altera/12.0/nios2eds/bin/gnu/h-i686-mingw32/bin/../lib/gcc/nios2-elf/4.1.2/../../../../nios2-elf/lib\libc.a(lib_a-vfscanf.o)
 .debug_pubnames
                0x00000f1c       0x2c c:/altera/12.0/nios2eds/bin/gnu/h-i686-mingw32/bin/../lib/gcc/nios2-elf/4.1.2/../../../../nios2-elf/lib\libc.a(lib_a-wbuf.o)
 .debug_pubnames
                0x00000f48       0x1f c:/altera/12.0/nios2eds/bin/gnu/h-i686-mingw32/bin/../lib/gcc/nios2-elf/4.1.2/../../../../nios2-elf/lib\libc.a(lib_a-writer.o)
 .debug_pubnames
                0x00000f67       0x22 c:/altera/12.0/nios2eds/bin/gnu/h-i686-mingw32/bin/../lib/gcc/nios2-elf/4.1.2/../../../../nios2-elf/lib\libc.a(lib_a-wsetup.o)
 .debug_pubnames
                0x00000f89       0x1f c:/altera/12.0/nios2eds/bin/gnu/h-i686-mingw32/bin/../lib/gcc/nios2-elf/4.1.2/../../../../nios2-elf/lib\libc.a(lib_a-closer.o)
 .debug_pubnames
                0x00000fa8       0x1e c:/altera/12.0/nios2eds/bin/gnu/h-i686-mingw32/bin/../lib/gcc/nios2-elf/4.1.2/../../../../nios2-elf/lib\libc.a(lib_a-dtoa.o)
 .debug_pubnames
                0x00000fc6       0x1f c:/altera/12.0/nios2eds/bin/gnu/h-i686-mingw32/bin/../lib/gcc/nios2-elf/4.1.2/../../../../nios2-elf/lib\libc.a(lib_a-flags.o)
 .debug_pubnames
                0x00000fe5       0x29 c:/altera/12.0/nios2eds/bin/gnu/h-i686-mingw32/bin/../lib/gcc/nios2-elf/4.1.2/../../../../nios2-elf/lib\libc.a(lib_a-fputc.o)
 .debug_pubnames
                0x0000100e       0x29 c:/altera/12.0/nios2eds/bin/gnu/h-i686-mingw32/bin/../lib/gcc/nios2-elf/4.1.2/../../../../nios2-elf/lib\libc.a(lib_a-fputs.o)
 .debug_pubnames
                0x00001037       0x23 c:/altera/12.0/nios2eds/bin/gnu/h-i686-mingw32/bin/../lib/gcc/nios2-elf/4.1.2/../../../../nios2-elf/lib\libc.a(lib_a-fvwrite.o)
 .debug_pubnames
                0x0000105a       0x20 c:/altera/12.0/nios2eds/bin/gnu/h-i686-mingw32/bin/../lib/gcc/nios2-elf/4.1.2/../../../../nios2-elf/lib\libc.a(lib_a-isattyr.o)
 .debug_pubnames
                0x0000107a       0x1f c:/altera/12.0/nios2eds/bin/gnu/h-i686-mingw32/bin/../lib/gcc/nios2-elf/4.1.2/../../../../nios2-elf/lib\libc.a(lib_a-iswspace.o)
 .debug_pubnames
                0x00001099       0xc3 c:/altera/12.0/nios2eds/bin/gnu/h-i686-mingw32/bin/../lib/gcc/nios2-elf/4.1.2/../../../../nios2-elf/lib\libc.a(lib_a-locale.o)
 .debug_pubnames
                0x0000115c       0x1f c:/altera/12.0/nios2eds/bin/gnu/h-i686-mingw32/bin/../lib/gcc/nios2-elf/4.1.2/../../../../nios2-elf/lib\libc.a(lib_a-lseekr.o)
 .debug_pubnames
                0x0000117b       0x2d c:/altera/12.0/nios2eds/bin/gnu/h-i686-mingw32/bin/../lib/gcc/nios2-elf/4.1.2/../../../../nios2-elf/lib\libc.a(lib_a-mbrtowc.o)
 .debug_pubnames
                0x000011a8       0x20 c:/altera/12.0/nios2eds/bin/gnu/h-i686-mingw32/bin/../lib/gcc/nios2-elf/4.1.2/../../../../nios2-elf/lib\libc.a(lib_a-mbtowc_r.o)
 .debug_pubnames
                0x000011c8       0x1d c:/altera/12.0/nios2eds/bin/gnu/h-i686-mingw32/bin/../lib/gcc/nios2-elf/4.1.2/../../../../nios2-elf/lib\libc.a(lib_a-memchr.o)
 .debug_pubnames
                0x000011e5       0x1d c:/altera/12.0/nios2eds/bin/gnu/h-i686-mingw32/bin/../lib/gcc/nios2-elf/4.1.2/../../../../nios2-elf/lib\libc.a(lib_a-memcmp.o)
 .debug_pubnames
                0x00001202      0x13a c:/altera/12.0/nios2eds/bin/gnu/h-i686-mingw32/bin/../lib/gcc/nios2-elf/4.1.2/../../../../nios2-elf/lib\libc.a(lib_a-mprec.o)
 .debug_pubnames
                0x0000133c       0x1e c:/altera/12.0/nios2eds/bin/gnu/h-i686-mingw32/bin/../lib/gcc/nios2-elf/4.1.2/../../../../nios2-elf/lib\libc.a(lib_a-readr.o)
 .debug_pubnames
                0x0000135a       0x21 c:/altera/12.0/nios2eds/bin/gnu/h-i686-mingw32/bin/../lib/gcc/nios2-elf/4.1.2/../../../../nios2-elf/lib\libc.a(lib_a-reallocr.o)
 .debug_pubnames
                0x0000137b       0x1f c:/altera/12.0/nios2eds/bin/gnu/h-i686-mingw32/bin/../lib/gcc/nios2-elf/4.1.2/../../../../nios2-elf/lib\libc.a(lib_a-s_isinfd.o)
 .debug_pubnames
                0x0000139a       0x1f c:/altera/12.0/nios2eds/bin/gnu/h-i686-mingw32/bin/../lib/gcc/nios2-elf/4.1.2/../../../../nios2-elf/lib\libc.a(lib_a-s_isnand.o)
 .debug_pubnames
                0x000013b9       0x1d c:/altera/12.0/nios2eds/bin/gnu/h-i686-mingw32/bin/../lib/gcc/nios2-elf/4.1.2/../../../../nios2-elf/lib\libc.a(lib_a-sccl.o)
 .debug_pubnames
                0x000013d6       0x1b c:/altera/12.0/nios2eds/bin/gnu/h-i686-mingw32/bin/../lib/gcc/nios2-elf/4.1.2/../../../../nios2-elf/lib\libc.a(lib_a-sf_nan.o)
 .debug_pubnames
                0x000013f1       0x36 c:/altera/12.0/nios2eds/bin/gnu/h-i686-mingw32/bin/../lib/gcc/nios2-elf/4.1.2/../../../../nios2-elf/lib\libc.a(lib_a-strtod.o)
 .debug_pubnames
                0x00001427       0x21 c:/altera/12.0/nios2eds/bin/gnu/h-i686-mingw32/bin/../lib/gcc/nios2-elf/4.1.2/../../../../nios2-elf/lib\libc.a(lib_a-strtoll_r.o)
 .debug_pubnames
                0x00001448       0x2d c:/altera/12.0/nios2eds/bin/gnu/h-i686-mingw32/bin/../lib/gcc/nios2-elf/4.1.2/../../../../nios2-elf/lib\libc.a(lib_a-strtoul.o)
 .debug_pubnames
                0x00001475       0x22 c:/altera/12.0/nios2eds/bin/gnu/h-i686-mingw32/bin/../lib/gcc/nios2-elf/4.1.2/../../../../nios2-elf/lib\libc.a(lib_a-strtoull_r.o)
 .debug_pubnames
                0x00001497       0x39 c:/altera/12.0/nios2eds/bin/gnu/h-i686-mingw32/bin/../lib/gcc/nios2-elf/4.1.2/../../../../nios2-elf/lib\libc.a(lib_a-ungetc.o)
 .debug_pubnames
                0x000014d0       0x20 c:/altera/12.0/nios2eds/bin/gnu/h-i686-mingw32/bin/../lib/gcc/nios2-elf/4.1.2/../../../../nios2-elf/lib\libc.a(lib_a-callocr.o)
 .debug_pubnames
                0x000014f0       0x3e c:/altera/12.0/nios2eds/bin/gnu/h-i686-mingw32/bin/../lib/gcc/nios2-elf/4.1.2/../../../../nios2-elf/lib\libc.a(lib_a-gdtoa-gethex.o)
 .debug_pubnames
                0x0000152e       0x1f c:/altera/12.0/nios2eds/bin/gnu/h-i686-mingw32/bin/../lib/gcc/nios2-elf/4.1.2/../../../../nios2-elf/lib\libc.a(lib_a-gdtoa-hexnan.o)
 .debug_pubnames
                0x0000154d       0x1f c:/altera/12.0/nios2eds/bin/gnu/h-i686-mingw32/bin/../lib/gcc/nios2-elf/4.1.2\libgcc.a(_muldi3.o)
 .debug_pubnames
                0x0000156c       0x23 c:/altera/12.0/nios2eds/bin/gnu/h-i686-mingw32/bin/../lib/gcc/nios2-elf/4.1.2\libgcc.a(_fixunsdfsi.o)
 .debug_pubnames
                0x0000158f       0x20 c:/altera/12.0/nios2eds/bin/gnu/h-i686-mingw32/bin/../lib/gcc/nios2-elf/4.1.2\libgcc.a(_udivdi3.o)
 .debug_pubnames
                0x000015af       0x20 c:/altera/12.0/nios2eds/bin/gnu/h-i686-mingw32/bin/../lib/gcc/nios2-elf/4.1.2\libgcc.a(_umoddi3.o)
 .debug_pubnames
                0x000015cf       0x1e c:/altera/12.0/nios2eds/bin/gnu/h-i686-mingw32/bin/../lib/gcc/nios2-elf/4.1.2\libgcc.a(_ne_sf.o)
 .debug_pubnames
                0x000015ed       0x1e c:/altera/12.0/nios2eds/bin/gnu/h-i686-mingw32/bin/../lib/gcc/nios2-elf/4.1.2\libgcc.a(_gt_sf.o)
 .debug_pubnames
                0x0000160b       0x1e c:/altera/12.0/nios2eds/bin/gnu/h-i686-mingw32/bin/../lib/gcc/nios2-elf/4.1.2\libgcc.a(_lt_sf.o)
 .debug_pubnames
                0x00001629       0x2c c:/altera/12.0/nios2eds/bin/gnu/h-i686-mingw32/bin/../lib/gcc/nios2-elf/4.1.2\libgcc.a(_addsub_df.o)
 .debug_pubnames
                0x00001655       0x1f c:/altera/12.0/nios2eds/bin/gnu/h-i686-mingw32/bin/../lib/gcc/nios2-elf/4.1.2\libgcc.a(_mul_df.o)
 .debug_pubnames
                0x00001674       0x1f c:/altera/12.0/nios2eds/bin/gnu/h-i686-mingw32/bin/../lib/gcc/nios2-elf/4.1.2\libgcc.a(_div_df.o)
 .debug_pubnames
                0x00001693       0x1e c:/altera/12.0/nios2eds/bin/gnu/h-i686-mingw32/bin/../lib/gcc/nios2-elf/4.1.2\libgcc.a(_eq_df.o)
 .debug_pubnames
                0x000016b1       0x1e c:/altera/12.0/nios2eds/bin/gnu/h-i686-mingw32/bin/../lib/gcc/nios2-elf/4.1.2\libgcc.a(_ne_df.o)
 .debug_pubnames
                0x000016cf       0x1e c:/altera/12.0/nios2eds/bin/gnu/h-i686-mingw32/bin/../lib/gcc/nios2-elf/4.1.2\libgcc.a(_gt_df.o)
 .debug_pubnames
                0x000016ed       0x1e c:/altera/12.0/nios2eds/bin/gnu/h-i686-mingw32/bin/../lib/gcc/nios2-elf/4.1.2\libgcc.a(_ge_df.o)
 .debug_pubnames
                0x0000170b       0x1e c:/altera/12.0/nios2eds/bin/gnu/h-i686-mingw32/bin/../lib/gcc/nios2-elf/4.1.2\libgcc.a(_lt_df.o)
 .debug_pubnames
                0x00001729       0x1e c:/altera/12.0/nios2eds/bin/gnu/h-i686-mingw32/bin/../lib/gcc/nios2-elf/4.1.2\libgcc.a(_le_df.o)
 .debug_pubnames
                0x00001747       0x22 c:/altera/12.0/nios2eds/bin/gnu/h-i686-mingw32/bin/../lib/gcc/nios2-elf/4.1.2\libgcc.a(_si_to_df.o)
 .debug_pubnames
                0x00001769       0x20 c:/altera/12.0/nios2eds/bin/gnu/h-i686-mingw32/bin/../lib/gcc/nios2-elf/4.1.2\libgcc.a(_df_to_si.o)
 .debug_pubnames
                0x00001789       0x23 c:/altera/12.0/nios2eds/bin/gnu/h-i686-mingw32/bin/../lib/gcc/nios2-elf/4.1.2\libgcc.a(_df_to_sf.o)
 .debug_pubnames
                0x000017ac       0x22 c:/altera/12.0/nios2eds/bin/gnu/h-i686-mingw32/bin/../lib/gcc/nios2-elf/4.1.2\libgcc.a(_thenan_df.o)
 .debug_pubnames
                0x000017ce       0x24 c:/altera/12.0/nios2eds/bin/gnu/h-i686-mingw32/bin/../lib/gcc/nios2-elf/4.1.2\libgcc.a(_usi_to_df.o)
 .debug_pubnames
                0x000017f2       0x20 c:/altera/12.0/nios2eds/bin/gnu/h-i686-mingw32/bin/../lib/gcc/nios2-elf/4.1.2\libgcc.a(_clz.o)
 .debug_pubnames
                0x00001812       0x1f c:/altera/12.0/nios2eds/bin/gnu/h-i686-mingw32/bin/../lib/gcc/nios2-elf/4.1.2\libgcc.a(_clzsi2.o)
 .debug_pubnames
                0x00001831       0x21 c:/altera/12.0/nios2eds/bin/gnu/h-i686-mingw32/bin/../lib/gcc/nios2-elf/4.1.2\libgcc.a(_unpack_sf.o)
 .debug_pubnames
                0x00001852       0x26 c:/altera/12.0/nios2eds/bin/gnu/h-i686-mingw32/bin/../lib/gcc/nios2-elf/4.1.2\libgcc.a(_fpcmp_parts_sf.o)
 .debug_pubnames
                0x00001878       0x20 c:/altera/12.0/nios2eds/bin/gnu/h-i686-mingw32/bin/../lib/gcc/nios2-elf/4.1.2\libgcc.a(_make_sf.o)
 .debug_pubnames
                0x00001898       0x1f c:/altera/12.0/nios2eds/bin/gnu/h-i686-mingw32/bin/../lib/gcc/nios2-elf/4.1.2\libgcc.a(_pack_df.o)
 .debug_pubnames
                0x000018b7       0x21 c:/altera/12.0/nios2eds/bin/gnu/h-i686-mingw32/bin/../lib/gcc/nios2-elf/4.1.2\libgcc.a(_unpack_df.o)
 .debug_pubnames
                0x000018d8       0x26 c:/altera/12.0/nios2eds/bin/gnu/h-i686-mingw32/bin/../lib/gcc/nios2-elf/4.1.2\libgcc.a(_fpcmp_parts_df.o)
 .debug_pubnames
                0x000018fe       0x1f c:/altera/12.0/nios2eds/bin/gnu/h-i686-mingw32/bin/../lib/gcc/nios2-elf/4.1.2\libgcc.a(_pack_sf.o)
 .debug_pubnames
                0x0000191d       0x27 ../web_server_bsp/\libucosii_bsp.a(alt_dcache_flush.o)
 .debug_pubnames
                0x00001944       0x58 ../web_server_bsp/\libucosii_bsp.a(alt_flash_dev.o)
 .debug_pubnames
                0x0000199c       0x1c ../web_server_bsp/\libucosii_bsp.a(alt_fstat.o)
 .debug_pubnames
                0x000019b8       0x1d ../web_server_bsp/\libucosii_bsp.a(alt_isatty.o)
 .debug_pubnames
                0x000019d5       0x1f ../web_server_bsp/\libucosii_bsp.a(alt_load.o)
 .debug_pubnames
                0x000019f4       0x1c ../web_server_bsp/\libucosii_bsp.a(alt_lseek.o)
 .debug_pubnames
                0x00001a10       0x46 ../web_server_bsp/\libucosii_bsp.a(alt_main.o)
 .debug_pubnames
                0x00001a56       0x1b ../web_server_bsp/\libucosii_bsp.a(alt_open.o)
 .debug_pubnames
                0x00001a71       0x25 ../web_server_bsp/\libucosii_bsp.a(alt_release_fd.o)
 .debug_pubnames
                0x00001a96       0x1b ../web_server_bsp/\libucosii_bsp.a(alt_sbrk.o)
 .debug_pubnames
                0x00001ab1       0x68 ../web_server_bsp/\libucosii_bsp.a(alt_tick.o)
 .debug_pubnames
                0x00001b19       0x1d ../web_server_bsp/\libucosii_bsp.a(alt_usleep.o)
 .debug_pubnames
                0x00001b36       0x41 ../web_server_bsp/\libucosii_bsp.a(alt_env_lock.o)
 .debug_pubnames
                0x00001b77       0x48 ../web_server_bsp/\libucosii_bsp.a(alt_malloc_lock.o)
 .debug_pubnames
                0x00001bbf      0x3f8 ../web_server_bsp/\libucosii_bsp.a(os_core.o)
 .debug_pubnames
                0x00001fb7      0x3c5 ../web_server_bsp/\libucosii_bsp.a(os_dbg.o)
 .debug_pubnames
                0x0000237c       0xd0 ../web_server_bsp/\libucosii_bsp.a(os_flag.o)
 .debug_pubnames
                0x0000244c       0x96 ../web_server_bsp/\libucosii_bsp.a(os_mbox.o)
 .debug_pubnames
                0x000024e2       0x7c ../web_server_bsp/\libucosii_bsp.a(os_mem.o)
 .debug_pubnames
                0x0000255e       0xa9 ../web_server_bsp/\libucosii_bsp.a(os_q.o)
 .debug_pubnames
                0x00002607       0x8a ../web_server_bsp/\libucosii_bsp.a(os_sem.o)
 .debug_pubnames
                0x00002691       0xe5 ../web_server_bsp/\libucosii_bsp.a(os_task.o)
 .debug_pubnames
                0x00002776       0x62 ../web_server_bsp/\libucosii_bsp.a(os_time.o)
 .debug_pubnames
                0x000027d8       0x54 ../web_server_bsp/\libucosii_bsp.a(alt_sys_init.o)
 .debug_pubnames
                0x0000282c       0xac ../web_server_bsp/\libucosii_bsp.a(altera_avalon_cfi_flash.o)
 .debug_pubnames
                0x000028d8      0x27a ../web_server_bsp/\libucosii_bsp.a(altera_avalon_cfi_flash_table.o)
 .debug_pubnames
                0x00002b52       0xa5 ../web_server_bsp/\libucosii_bsp.a(altera_avalon_jtag_uart_fd.o)
 .debug_pubnames
                0x00002bf7       0x55 ../web_server_bsp/\libucosii_bsp.a(altera_avalon_jtag_uart_init.o)
 .debug_pubnames
                0x00002c4c       0x34 ../web_server_bsp/\libucosii_bsp.a(altera_avalon_jtag_uart_ioctl.o)
 .debug_pubnames
                0x00002c80       0x33 ../web_server_bsp/\libucosii_bsp.a(altera_avalon_jtag_uart_read.o)
 .debug_pubnames
                0x00002cb3       0x34 ../web_server_bsp/\libucosii_bsp.a(altera_avalon_jtag_uart_write.o)
 .debug_pubnames
                0x00002ce7       0x55 ../web_server_bsp/\libucosii_bsp.a(altera_avalon_lcd_16207.o)
 .debug_pubnames
                0x00002d3c       0x37 ../web_server_bsp/\libucosii_bsp.a(altera_avalon_lcd_16207_fd.o)
 .debug_pubnames
                0x00002d73      0x30e ../web_server_bsp/\libucosii_bsp.a(altera_avalon_sgdma.o)
 .debug_pubnames
                0x00003081       0x2f ../web_server_bsp/\libucosii_bsp.a(altera_avalon_timer_sc.o)
 .debug_pubnames
                0x000030b0      0x4e6 ../web_server_bsp/\libucosii_bsp.a(altera_avalon_tse.o)
 .debug_pubnames
                0x00003596       0x71 ../web_server_bsp/\libucosii_bsp.a(altera_avalon_uart_fd.o)
 .debug_pubnames
                0x00003607       0x4b ../web_server_bsp/\libucosii_bsp.a(altera_avalon_uart_init.o)
 .debug_pubnames
                0x00003652       0x2e ../web_server_bsp/\libucosii_bsp.a(altera_avalon_uart_read.o)
 .debug_pubnames
                0x00003680       0x2f ../web_server_bsp/\libucosii_bsp.a(altera_avalon_uart_write.o)
 .debug_pubnames
                0x000036af       0xa3 ../web_server_bsp/\libucosii_bsp.a(altera_ro_zipfs.o)
 .debug_pubnames
                0x00003752      0x105 ../web_server_bsp/\libucosii_bsp.a(ins_tse_mac.o)
 .debug_pubnames
                0x00003857       0x1c ../web_server_bsp/\libucosii_bsp.a(alt_iniche_close.o)
 .debug_pubnames
                0x00003873       0x42 ../web_server_bsp/\libucosii_bsp.a(alt_iniche_dev.o)
 .debug_pubnames
                0x000038b5       0x1b ../web_server_bsp/\libucosii_bsp.a(alt_iniche_read.o)
 .debug_pubnames
                0x000038d0       0x1c ../web_server_bsp/\libucosii_bsp.a(alt_iniche_write.o)
 .debug_pubnames
                0x000038ec       0x90 ../web_server_bsp/\libucosii_bsp.a(ipnet.o)
 .debug_pubnames
                0x0000397c       0x81 ../web_server_bsp/\libucosii_bsp.a(ipstart.o)
 .debug_pubnames
                0x000039fd      0x108 ../web_server_bsp/\libucosii_bsp.a(igmp_cmn.o)
 .debug_pubnames
                0x00003b05       0xc4 ../web_server_bsp/\libucosii_bsp.a(bsdsock.o)
 .debug_pubnames
                0x00003bc9       0x27 ../web_server_bsp/\libucosii_bsp.a(cksum.o)
 .debug_pubnames
                0x00003bf0       0xcc ../web_server_bsp/\libucosii_bsp.a(in_utils.o)
 .debug_pubnames
                0x00003cbc       0xb2 ../web_server_bsp/\libucosii_bsp.a(netmain.o)
 .debug_pubnames
                0x00003d6e       0x97 ../web_server_bsp/\libucosii_bsp.a(tk_crnos.o)
 .debug_pubnames
                0x00003e05      0x252 ../web_server_bsp/\libucosii_bsp.a(dhcpclnt.o)
 .debug_pubnames
                0x00004057       0x1f ../web_server_bsp/\libucosii_bsp.a(dhcputil.o)
 .debug_pubnames
                0x00004076       0xe2 ../web_server_bsp/\libucosii_bsp.a(pktalloc.o)
 .debug_pubnames
                0x00004158       0x2d ../web_server_bsp/\libucosii_bsp.a(q.o)
 .debug_pubnames
                0x00004185       0x3a ../web_server_bsp/\libucosii_bsp.a(udp_open.o)
 .debug_pubnames
                0x000041bf       0xc5 ../web_server_bsp/\libucosii_bsp.a(brdutils.o)
 .debug_pubnames
                0x00004284      0x10c ../web_server_bsp/\libucosii_bsp.a(osportco.o)
 .debug_pubnames
                0x00004390       0xf5 ../web_server_bsp/\libucosii_bsp.a(targnios.o)
 .debug_pubnames
                0x00004485      0x190 ../web_server_bsp/\libucosii_bsp.a(nptcp.o)
 .debug_pubnames
                0x00004615       0x46 ../web_server_bsp/\libucosii_bsp.a(rawsock.o)
 .debug_pubnames
                0x0000465b      0x108 ../web_server_bsp/\libucosii_bsp.a(sockcall.o)
 .debug_pubnames
                0x00004763       0xfc ../web_server_bsp/\libucosii_bsp.a(socket.o)
 .debug_pubnames
                0x0000485f      0x178 ../web_server_bsp/\libucosii_bsp.a(socket2.o)
 .debug_pubnames
                0x000049d7       0x92 ../web_server_bsp/\libucosii_bsp.a(soselect.o)
 .debug_pubnames
                0x00004a69       0xc2 ../web_server_bsp/\libucosii_bsp.a(tcp_in.o)
 .debug_pubnames
                0x00004b2b       0x57 ../web_server_bsp/\libucosii_bsp.a(tcp_out.o)
 .debug_pubnames
                0x00004b82       0xb9 ../web_server_bsp/\libucosii_bsp.a(tcp_subr.o)
 .debug_pubnames
                0x00004c3b       0x96 ../web_server_bsp/\libucosii_bsp.a(tcp_timr.o)
 .debug_pubnames
                0x00004cd1       0x79 ../web_server_bsp/\libucosii_bsp.a(tcp_usr.o)
 .debug_pubnames
                0x00004d4a       0x1e ../web_server_bsp/\libucosii_bsp.a(tcpport.o)
 .debug_pubnames
                0x00004d68       0x76 ../web_server_bsp/\libucosii_bsp.a(udpsock.o)
 .debug_pubnames
                0x00004dde       0x26 ../web_server_bsp/\libucosii_bsp.a(alt_alarm_start.o)
 .debug_pubnames
                0x00004e04       0x25 ../web_server_bsp/\libucosii_bsp.a(alt_busy_sleep.o)
 .debug_pubnames
                0x00004e29       0x20 ../web_server_bsp/\libucosii_bsp.a(alt_close.o)
 .debug_pubnames
                0x00004e49       0x2b ../web_server_bsp/\libucosii_bsp.a(alt_dcache_flush_all.o)
 .debug_pubnames
                0x00004e74       0x78 ../web_server_bsp/\libucosii_bsp.a(alt_dev.o)
 .debug_pubnames
                0x00004eec       0x2b ../web_server_bsp/\libucosii_bsp.a(alt_dev_llist_insert.o)
 .debug_pubnames
                0x00004f17       0x20 ../web_server_bsp/\libucosii_bsp.a(alt_do_ctors.o)
 .debug_pubnames
                0x00004f37       0x20 ../web_server_bsp/\libucosii_bsp.a(alt_do_dtors.o)
 .debug_pubnames
                0x00004f57       0x20 ../web_server_bsp/\libucosii_bsp.a(alt_errno.o)
 .debug_pubnames
                0x00004f77       0x23 ../web_server_bsp/\libucosii_bsp.a(alt_find_dev.o)
 .debug_pubnames
                0x00004f9a       0x24 ../web_server_bsp/\libucosii_bsp.a(alt_find_file.o)
 .debug_pubnames
                0x00004fbe       0x21 ../web_server_bsp/\libucosii_bsp.a(alt_fs_reg.o)
 .debug_pubnames
                0x00004fdf       0x21 ../web_server_bsp/\libucosii_bsp.a(alt_get_fd.o)
 .debug_pubnames
                0x00005000       0x2b ../web_server_bsp/\libucosii_bsp.a(alt_icache_flush_all.o)
 .debug_pubnames
                0x0000502b       0x6e ../web_server_bsp/\libucosii_bsp.a(alt_iic.o)
 .debug_pubnames
                0x00005099       0x2b ../web_server_bsp/\libucosii_bsp.a(alt_iic_isr_register.o)
 .debug_pubnames
                0x000050c4       0x26 ../web_server_bsp/\libucosii_bsp.a(alt_io_redirect.o)
 .debug_pubnames
                0x000050ea       0x32 ../web_server_bsp/\libucosii_bsp.a(alt_irq_handler.o)
 .debug_pubnames
                0x0000511c       0x3b ../web_server_bsp/\libucosii_bsp.a(alt_irq_vars.o)
 .debug_pubnames
                0x00005157       0x1f ../web_server_bsp/\libucosii_bsp.a(alt_read.o)
 .debug_pubnames
                0x00005176       0x27 ../web_server_bsp/\libucosii_bsp.a(alt_remap_cached.o)
 .debug_pubnames
                0x0000519d       0x29 ../web_server_bsp/\libucosii_bsp.a(alt_remap_uncached.o)
 .debug_pubnames
                0x000051c6       0x2a ../web_server_bsp/\libucosii_bsp.a(alt_uncached_malloc.o)
 .debug_pubnames
                0x000051f0       0x20 ../web_server_bsp/\libucosii_bsp.a(alt_write.o)
 .debug_pubnames
                0x00005210       0x31 ../web_server_bsp/\libucosii_bsp.a(altera_nios2_qsys_irq.o)
 .debug_pubnames
                0x00005241       0xcd ../web_server_bsp/\libucosii_bsp.a(os_cpu_c.o)
 .debug_pubnames
                0x0000530e       0x3e ../web_server_bsp/\libucosii_bsp.a(altera_avalon_cfi_flash_amd.o)
 .debug_pubnames
                0x0000534c       0x42 ../web_server_bsp/\libucosii_bsp.a(altera_avalon_cfi_flash_intel.o)
 .debug_pubnames
                0x0000538e       0xd4 ../web_server_bsp/\libucosii_bsp.a(allports.o)
 .debug_pubnames
                0x00005462       0x6f ../web_server_bsp/\libucosii_bsp.a(timeouts.o)
 .debug_pubnames
                0x000054d1       0x35 ../web_server_bsp/\libucosii_bsp.a(tk_misc.o)
 .debug_pubnames
                0x00005506       0x1c ../web_server_bsp/\libucosii_bsp.a(alt_iniche_fcntl.o)
 .debug_pubnames
                0x00005522      0x134 ../web_server_bsp/\libucosii_bsp.a(et_arp.o)
 .debug_pubnames
                0x00005656       0x58 ../web_server_bsp/\libucosii_bsp.a(iface.o)
 .debug_pubnames
                0x000056ae       0xea ../web_server_bsp/\libucosii_bsp.a(ip.o)
 .debug_pubnames
                0x00005798      0x22e ../web_server_bsp/\libucosii_bsp.a(ip_reasm.o)
 .debug_pubnames
                0x000059c6       0x3c ../web_server_bsp/\libucosii_bsp.a(ipdemux.o)
 .debug_pubnames
                0x00005a02       0x43 ../web_server_bsp/\libucosii_bsp.a(ipmc.o)
 .debug_pubnames
                0x00005a45       0x99 ../web_server_bsp/\libucosii_bsp.a(ipport.o)
 .debug_pubnames
                0x00005ade       0x87 ../web_server_bsp/\libucosii_bsp.a(ipraw.o)
 .debug_pubnames
                0x00005b65       0x5d ../web_server_bsp/\libucosii_bsp.a(iproute.o)
 .debug_pubnames
                0x00005bc2       0x7f ../web_server_bsp/\libucosii_bsp.a(udp.o)
 .debug_pubnames
                0x00005c41       0x23 ../web_server_bsp/\libucosii_bsp.a(igmp.o)
 .debug_pubnames
                0x00005c64       0x8d ../web_server_bsp/\libucosii_bsp.a(igmp2.o)
 .debug_pubnames
                0x00005cf1       0x5f ../web_server_bsp/\libucosii_bsp.a(ipopt.o)
 .debug_pubnames
                0x00005d50       0x35 ../web_server_bsp/\libucosii_bsp.a(u_mctest.o)
 .debug_pubnames
                0x00005d85       0x33 ../web_server_bsp/\libucosii_bsp.a(dhcsetup.o)
 .debug_pubnames
                0x00005db8       0xb1 ../web_server_bsp/\libucosii_bsp.a(memdev.o)
 .debug_pubnames
                0x00005e69       0xa6 ../web_server_bsp/\libucosii_bsp.a(parseip.o)
 .debug_pubnames
                0x00005f0f       0x20 ../web_server_bsp/\libucosii_bsp.a(tcpcksum.o)
 .debug_pubnames
                0x00005f2f       0xc8 ../web_server_bsp/\libucosii_bsp.a(in_pcb.o)
 .debug_pubnames
                0x00005ff7      0x278 ../web_server_bsp/\libucosii_bsp.a(vfsfiles.o)
 .debug_pubnames
                0x0000626f       0x1f ../web_server_bsp/\libucosii_bsp.a(vfsport.o)
 .debug_pubnames
                0x0000628e       0x20 ../web_server_bsp/\libucosii_bsp.a(alt_fcntl.o)
 .debug_pubnames
                0x000062ae       0x27 ../web_server_bsp/\libucosii_bsp.a(alt_icache_flush.o)
 .debug_pubnames
                0x000062d5       0x66 ../web_server_bsp/\libucosii_bsp.a(icmp.o)
 .debug_pubnames
                0x0000633b       0x2a c:/altera/12.0/nios2eds/bin/gnu/h-i686-mingw32/bin/../lib/gcc/nios2-elf/4.1.2/../../../../nios2-elf/lib\libc.a(lib_a-atexit.o)
 .debug_pubnames
                0x00006365       0x1d c:/altera/12.0/nios2eds/bin/gnu/h-i686-mingw32/bin/../lib/gcc/nios2-elf/4.1.2/../../../../nios2-elf/lib\libc.a(lib_a-calloc.o)
 .debug_pubnames
                0x00006382       0x1b c:/altera/12.0/nios2eds/bin/gnu/h-i686-mingw32/bin/../lib/gcc/nios2-elf/4.1.2/../../../../nios2-elf/lib\libc.a(lib_a-exit.o)
 .debug_pubnames
                0x0000639d       0x26 c:/altera/12.0/nios2eds/bin/gnu/h-i686-mingw32/bin/../lib/gcc/nios2-elf/4.1.2/../../../../nios2-elf/lib\libc.a(lib_a-malloc.o)
 .debug_pubnames
                0x000063c3       0x2d c:/altera/12.0/nios2eds/bin/gnu/h-i686-mingw32/bin/../lib/gcc/nios2-elf/4.1.2/../../../../nios2-elf/lib\libc.a(lib_a-vprintf.o)
 .debug_pubnames
                0x000063f0       0x2f c:/altera/12.0/nios2eds/bin/gnu/h-i686-mingw32/bin/../lib/gcc/nios2-elf/4.1.2/../../../../nios2-elf/lib\libc.a(lib_a-vsprintf.o)
 .debug_pubnames
                0x0000641f       0x2a c:/altera/12.0/nios2eds/bin/gnu/h-i686-mingw32/bin/../lib/gcc/nios2-elf/4.1.2/../../../../nios2-elf/lib\libc.a(lib_a-__atexit.o)
 .debug_pubnames
                0x00006449       0x27 c:/altera/12.0/nios2eds/bin/gnu/h-i686-mingw32/bin/../lib/gcc/nios2-elf/4.1.2/../../../../nios2-elf/lib\libc.a(lib_a-__call_atexit.o)
 .debug_pubnames
                0x00006470       0x1c ../web_server_bsp/\libucosii_bsp.a(alt_exit.o)

.debug_info     0x00000000    0x96923
 *(.debug_info .gnu.linkonce.wi.*)
 .debug_info    0x00000000       0x8b ../web_server_bsp//obj/HAL/src/crt0.o
 .debug_info    0x0000008b      0xcf2 obj/default/alt_error_handler.o
 .debug_info    0x00000d7d     0x1fa9 obj/default/http.o
 .debug_info    0x00002d26     0x1d80 obj/default/network_utilities.o
 .debug_info    0x00004aa6      0xa82 obj/default/srec_flash.o
 .debug_info    0x00005528      0xfda obj/default/tse_my_system.o
 .debug_info    0x00006502     0x197c obj/default/web_server.o
 .debug_info    0x00007e7e      0x21c c:/altera/12.0/nios2eds/bin/gnu/h-i686-mingw32/bin/../lib/gcc/nios2-elf/4.1.2\libgcc.a(lib2-divmod.o)
 .debug_info    0x0000809a      0x960 c:/altera/12.0/nios2eds/bin/gnu/h-i686-mingw32/bin/../lib/gcc/nios2-elf/4.1.2/../../../../nios2-elf/lib\libc.a(lib_a-atoi.o)
 .debug_info    0x000089fa       0xa0 c:/altera/12.0/nios2eds/bin/gnu/h-i686-mingw32/bin/../lib/gcc/nios2-elf/4.1.2/../../../../nios2-elf/lib\libc.a(lib_a-ctype_.o)
 .debug_info    0x00008a9a      0x994 c:/altera/12.0/nios2eds/bin/gnu/h-i686-mingw32/bin/../lib/gcc/nios2-elf/4.1.2/../../../../nios2-elf/lib\libc.a(lib_a-fclose.o)
 .debug_info    0x0000942e      0x9fe c:/altera/12.0/nios2eds/bin/gnu/h-i686-mingw32/bin/../lib/gcc/nios2-elf/4.1.2/../../../../nios2-elf/lib\libc.a(lib_a-fflush.o)
 .debug_info    0x00009e2c      0x9ab c:/altera/12.0/nios2eds/bin/gnu/h-i686-mingw32/bin/../lib/gcc/nios2-elf/4.1.2/../../../../nios2-elf/lib\libc.a(lib_a-fgetpos.o)
 .debug_info    0x0000a7d7      0xb72 c:/altera/12.0/nios2eds/bin/gnu/h-i686-mingw32/bin/../lib/gcc/nios2-elf/4.1.2/../../../../nios2-elf/lib\libc.a(lib_a-findfp.o)
 .debug_info    0x0000b349      0x9e0 c:/altera/12.0/nios2eds/bin/gnu/h-i686-mingw32/bin/../lib/gcc/nios2-elf/4.1.2/../../../../nios2-elf/lib\libc.a(lib_a-fopen.o)
 .debug_info    0x0000bd29      0x9e1 c:/altera/12.0/nios2eds/bin/gnu/h-i686-mingw32/bin/../lib/gcc/nios2-elf/4.1.2/../../../../nios2-elf/lib\libc.a(lib_a-fprintf.o)
 .debug_info    0x0000c70a      0xa77 c:/altera/12.0/nios2eds/bin/gnu/h-i686-mingw32/bin/../lib/gcc/nios2-elf/4.1.2/../../../../nios2-elf/lib\libc.a(lib_a-fread.o)
 .debug_info    0x0000d181      0xbc9 c:/altera/12.0/nios2eds/bin/gnu/h-i686-mingw32/bin/../lib/gcc/nios2-elf/4.1.2/../../../../nios2-elf/lib\libc.a(lib_a-freer.o)
 .debug_info    0x0000dd4a      0xbdc c:/altera/12.0/nios2eds/bin/gnu/h-i686-mingw32/bin/../lib/gcc/nios2-elf/4.1.2/../../../../nios2-elf/lib\libc.a(lib_a-fseek.o)
 .debug_info    0x0000e926      0xafc c:/altera/12.0/nios2eds/bin/gnu/h-i686-mingw32/bin/../lib/gcc/nios2-elf/4.1.2/../../../../nios2-elf/lib\libc.a(lib_a-fstatr.o)
 .debug_info    0x0000f422      0x996 c:/altera/12.0/nios2eds/bin/gnu/h-i686-mingw32/bin/../lib/gcc/nios2-elf/4.1.2/../../../../nios2-elf/lib\libc.a(lib_a-ftell.o)
 .debug_info    0x0000fdb8      0xaed c:/altera/12.0/nios2eds/bin/gnu/h-i686-mingw32/bin/../lib/gcc/nios2-elf/4.1.2/../../../../nios2-elf/lib\libc.a(lib_a-fwalk.o)
 .debug_info    0x000108a5      0xa83 c:/altera/12.0/nios2eds/bin/gnu/h-i686-mingw32/bin/../lib/gcc/nios2-elf/4.1.2/../../../../nios2-elf/lib\libc.a(lib_a-fwrite.o)
 .debug_info    0x00011328      0x9a7 c:/altera/12.0/nios2eds/bin/gnu/h-i686-mingw32/bin/../lib/gcc/nios2-elf/4.1.2/../../../../nios2-elf/lib\libc.a(lib_a-getc.o)
 .debug_info    0x00011ccf      0x93d c:/altera/12.0/nios2eds/bin/gnu/h-i686-mingw32/bin/../lib/gcc/nios2-elf/4.1.2/../../../../nios2-elf/lib\libc.a(lib_a-impure.o)
 .debug_info    0x0001260c       0x8c c:/altera/12.0/nios2eds/bin/gnu/h-i686-mingw32/bin/../lib/gcc/nios2-elf/4.1.2/../../../../nios2-elf/lib\libc.a(lib_a-int_errno.o)
 .debug_info    0x00012698      0xb1a c:/altera/12.0/nios2eds/bin/gnu/h-i686-mingw32/bin/../lib/gcc/nios2-elf/4.1.2/../../../../nios2-elf/lib\libc.a(lib_a-makebuf.o)
 .debug_info    0x000131b2      0xcd0 c:/altera/12.0/nios2eds/bin/gnu/h-i686-mingw32/bin/../lib/gcc/nios2-elf/4.1.2/../../../../nios2-elf/lib\libc.a(lib_a-mallocr.o)
 .debug_info    0x00013e82      0x106 c:/altera/12.0/nios2eds/bin/gnu/h-i686-mingw32/bin/../lib/gcc/nios2-elf/4.1.2/../../../../nios2-elf/lib\libc.a(lib_a-memcpy.o)
 .debug_info    0x00013f88      0x13e c:/altera/12.0/nios2eds/bin/gnu/h-i686-mingw32/bin/../lib/gcc/nios2-elf/4.1.2/../../../../nios2-elf/lib\libc.a(lib_a-memmove.o)
 .debug_info    0x000140c6      0x113 c:/altera/12.0/nios2eds/bin/gnu/h-i686-mingw32/bin/../lib/gcc/nios2-elf/4.1.2/../../../../nios2-elf/lib\libc.a(lib_a-memset.o)
 .debug_info    0x000141d9      0x977 c:/altera/12.0/nios2eds/bin/gnu/h-i686-mingw32/bin/../lib/gcc/nios2-elf/4.1.2/../../../../nios2-elf/lib\libc.a(lib_a-openr.o)
 .debug_info    0x00014b50      0x97b c:/altera/12.0/nios2eds/bin/gnu/h-i686-mingw32/bin/../lib/gcc/nios2-elf/4.1.2/../../../../nios2-elf/lib\libc.a(lib_a-perror.o)
 .debug_info    0x000154cb      0x9d1 c:/altera/12.0/nios2eds/bin/gnu/h-i686-mingw32/bin/../lib/gcc/nios2-elf/4.1.2/../../../../nios2-elf/lib\libc.a(lib_a-printf.o)
 .debug_info    0x00015e9c      0x9c1 c:/altera/12.0/nios2eds/bin/gnu/h-i686-mingw32/bin/../lib/gcc/nios2-elf/4.1.2/../../../../nios2-elf/lib\libc.a(lib_a-putc.o)
 .debug_info    0x0001685d      0x972 c:/altera/12.0/nios2eds/bin/gnu/h-i686-mingw32/bin/../lib/gcc/nios2-elf/4.1.2/../../../../nios2-elf/lib\libc.a(lib_a-putchar.o)
 .debug_info    0x000171cf      0xa25 c:/altera/12.0/nios2eds/bin/gnu/h-i686-mingw32/bin/../lib/gcc/nios2-elf/4.1.2/../../../../nios2-elf/lib\libc.a(lib_a-puts.o)
 .debug_info    0x00017bf4      0x98b c:/altera/12.0/nios2eds/bin/gnu/h-i686-mingw32/bin/../lib/gcc/nios2-elf/4.1.2/../../../../nios2-elf/lib\libc.a(lib_a-refill.o)
 .debug_info    0x0001857f      0x987 c:/altera/12.0/nios2eds/bin/gnu/h-i686-mingw32/bin/../lib/gcc/nios2-elf/4.1.2/../../../../nios2-elf/lib\libc.a(lib_a-rget.o)
 .debug_info    0x00018f06      0x962 c:/altera/12.0/nios2eds/bin/gnu/h-i686-mingw32/bin/../lib/gcc/nios2-elf/4.1.2/../../../../nios2-elf/lib\libc.a(lib_a-sbrkr.o)
 .debug_info    0x00019868      0xa16 c:/altera/12.0/nios2eds/bin/gnu/h-i686-mingw32/bin/../lib/gcc/nios2-elf/4.1.2/../../../../nios2-elf/lib\libc.a(lib_a-sprintf.o)
 .debug_info    0x0001a27e      0xa6a c:/altera/12.0/nios2eds/bin/gnu/h-i686-mingw32/bin/../lib/gcc/nios2-elf/4.1.2/../../../../nios2-elf/lib\libc.a(lib_a-sscanf.o)
 .debug_info    0x0001ace8      0xaac c:/altera/12.0/nios2eds/bin/gnu/h-i686-mingw32/bin/../lib/gcc/nios2-elf/4.1.2/../../../../nios2-elf/lib\libc.a(lib_a-stdio.o)
 .debug_info    0x0001b794      0x13a c:/altera/12.0/nios2eds/bin/gnu/h-i686-mingw32/bin/../lib/gcc/nios2-elf/4.1.2/../../../../nios2-elf/lib\libc.a(lib_a-strcasecmp.o)
 .debug_info    0x0001b8ce       0xed c:/altera/12.0/nios2eds/bin/gnu/h-i686-mingw32/bin/../lib/gcc/nios2-elf/4.1.2/../../../../nios2-elf/lib\libc.a(lib_a-strcat.o)
 .debug_info    0x0001b9bb      0x118 c:/altera/12.0/nios2eds/bin/gnu/h-i686-mingw32/bin/../lib/gcc/nios2-elf/4.1.2/../../../../nios2-elf/lib\libc.a(lib_a-strchr.o)
 .debug_info    0x0001bad3       0xdd c:/altera/12.0/nios2eds/bin/gnu/h-i686-mingw32/bin/../lib/gcc/nios2-elf/4.1.2/../../../../nios2-elf/lib\libc.a(lib_a-strcmp.o)
 .debug_info    0x0001bbb0      0x110 c:/altera/12.0/nios2eds/bin/gnu/h-i686-mingw32/bin/../lib/gcc/nios2-elf/4.1.2/../../../../nios2-elf/lib\libc.a(lib_a-strcpy.o)
 .debug_info    0x0001bcc0       0xbb c:/altera/12.0/nios2eds/bin/gnu/h-i686-mingw32/bin/../lib/gcc/nios2-elf/4.1.2/../../../../nios2-elf/lib\libc.a(lib_a-strerror.o)
 .debug_info    0x0001bd7b       0xdb c:/altera/12.0/nios2eds/bin/gnu/h-i686-mingw32/bin/../lib/gcc/nios2-elf/4.1.2/../../../../nios2-elf/lib\libc.a(lib_a-strlen.o)
 .debug_info    0x0001be56       0xf5 c:/altera/12.0/nios2eds/bin/gnu/h-i686-mingw32/bin/../lib/gcc/nios2-elf/4.1.2/../../../../nios2-elf/lib\libc.a(lib_a-strncmp.o)
 .debug_info    0x0001bf4b      0x12a c:/altera/12.0/nios2eds/bin/gnu/h-i686-mingw32/bin/../lib/gcc/nios2-elf/4.1.2/../../../../nios2-elf/lib\libc.a(lib_a-strncpy.o)
 .debug_info    0x0001c075      0x3d1 c:/altera/12.0/nios2eds/bin/gnu/h-i686-mingw32/bin/../lib/gcc/nios2-elf/4.1.2/../../../../nios2-elf/lib\libc.a(lib_a-strstr.o)
 .debug_info    0x0001c446      0x949 c:/altera/12.0/nios2eds/bin/gnu/h-i686-mingw32/bin/../lib/gcc/nios2-elf/4.1.2/../../../../nios2-elf/lib\libc.a(lib_a-strtok.o)
 .debug_info    0x0001cd8f      0x15e c:/altera/12.0/nios2eds/bin/gnu/h-i686-mingw32/bin/../lib/gcc/nios2-elf/4.1.2/../../../../nios2-elf/lib\libc.a(lib_a-strtok_r.o)
 .debug_info    0x0001ceed      0xa2a c:/altera/12.0/nios2eds/bin/gnu/h-i686-mingw32/bin/../lib/gcc/nios2-elf/4.1.2/../../../../nios2-elf/lib\libc.a(lib_a-strtol.o)
 .debug_info    0x0001d917       0x63 c:/altera/12.0/nios2eds/bin/gnu/h-i686-mingw32/bin/../lib/gcc/nios2-elf/4.1.2/../../../../nios2-elf/lib\libc.a(lib_a-u_strerr.o)
 .debug_info    0x0001d97a     0x10d5 c:/altera/12.0/nios2eds/bin/gnu/h-i686-mingw32/bin/../lib/gcc/nios2-elf/4.1.2/../../../../nios2-elf/lib\libc.a(lib_a-vfprintf.o)
 .debug_info    0x0001ea4f      0xe8c c:/altera/12.0/nios2eds/bin/gnu/h-i686-mingw32/bin/../lib/gcc/nios2-elf/4.1.2/../../../../nios2-elf/lib\libc.a(lib_a-vfscanf.o)
 .debug_info    0x0001f8db      0x9ae c:/altera/12.0/nios2eds/bin/gnu/h-i686-mingw32/bin/../lib/gcc/nios2-elf/4.1.2/../../../../nios2-elf/lib\libc.a(lib_a-wbuf.o)
 .debug_info    0x00020289      0x993 c:/altera/12.0/nios2eds/bin/gnu/h-i686-mingw32/bin/../lib/gcc/nios2-elf/4.1.2/../../../../nios2-elf/lib\libc.a(lib_a-writer.o)
 .debug_info    0x00020c1c      0x95d c:/altera/12.0/nios2eds/bin/gnu/h-i686-mingw32/bin/../lib/gcc/nios2-elf/4.1.2/../../../../nios2-elf/lib\libc.a(lib_a-wsetup.o)
 .debug_info    0x00021579      0x958 c:/altera/12.0/nios2eds/bin/gnu/h-i686-mingw32/bin/../lib/gcc/nios2-elf/4.1.2/../../../../nios2-elf/lib\libc.a(lib_a-closer.o)
 .debug_info    0x00021ed1      0xd6f c:/altera/12.0/nios2eds/bin/gnu/h-i686-mingw32/bin/../lib/gcc/nios2-elf/4.1.2/../../../../nios2-elf/lib\libc.a(lib_a-dtoa.o)
 .debug_info    0x00022c40      0x977 c:/altera/12.0/nios2eds/bin/gnu/h-i686-mingw32/bin/../lib/gcc/nios2-elf/4.1.2/../../../../nios2-elf/lib\libc.a(lib_a-flags.o)
 .debug_info    0x000235b7      0x9bd c:/altera/12.0/nios2eds/bin/gnu/h-i686-mingw32/bin/../lib/gcc/nios2-elf/4.1.2/../../../../nios2-elf/lib\libc.a(lib_a-fputc.o)
 .debug_info    0x00023f74      0xa40 c:/altera/12.0/nios2eds/bin/gnu/h-i686-mingw32/bin/../lib/gcc/nios2-elf/4.1.2/../../../../nios2-elf/lib\libc.a(lib_a-fputs.o)
 .debug_info    0x000249b4      0xa88 c:/altera/12.0/nios2eds/bin/gnu/h-i686-mingw32/bin/../lib/gcc/nios2-elf/4.1.2/../../../../nios2-elf/lib\libc.a(lib_a-fvwrite.o)
 .debug_info    0x0002543c      0x958 c:/altera/12.0/nios2eds/bin/gnu/h-i686-mingw32/bin/../lib/gcc/nios2-elf/4.1.2/../../../../nios2-elf/lib\libc.a(lib_a-isattyr.o)
 .debug_info    0x00025d94       0xed c:/altera/12.0/nios2eds/bin/gnu/h-i686-mingw32/bin/../lib/gcc/nios2-elf/4.1.2/../../../../nios2-elf/lib\libc.a(lib_a-iswspace.o)
 .debug_info    0x00025e81      0xb97 c:/altera/12.0/nios2eds/bin/gnu/h-i686-mingw32/bin/../lib/gcc/nios2-elf/4.1.2/../../../../nios2-elf/lib\libc.a(lib_a-locale.o)
 .debug_info    0x00026a18      0x981 c:/altera/12.0/nios2eds/bin/gnu/h-i686-mingw32/bin/../lib/gcc/nios2-elf/4.1.2/../../../../nios2-elf/lib\libc.a(lib_a-lseekr.o)
 .debug_info    0x00027399      0xa07 c:/altera/12.0/nios2eds/bin/gnu/h-i686-mingw32/bin/../lib/gcc/nios2-elf/4.1.2/../../../../nios2-elf/lib\libc.a(lib_a-mbrtowc.o)
 .debug_info    0x00027da0      0x9a2 c:/altera/12.0/nios2eds/bin/gnu/h-i686-mingw32/bin/../lib/gcc/nios2-elf/4.1.2/../../../../nios2-elf/lib\libc.a(lib_a-mbtowc_r.o)
 .debug_info    0x00028742      0x138 c:/altera/12.0/nios2eds/bin/gnu/h-i686-mingw32/bin/../lib/gcc/nios2-elf/4.1.2/../../../../nios2-elf/lib\libc.a(lib_a-memchr.o)
 .debug_info    0x0002887a      0x115 c:/altera/12.0/nios2eds/bin/gnu/h-i686-mingw32/bin/../lib/gcc/nios2-elf/4.1.2/../../../../nios2-elf/lib\libc.a(lib_a-memcmp.o)
 .debug_info    0x0002898f     0x1437 c:/altera/12.0/nios2eds/bin/gnu/h-i686-mingw32/bin/../lib/gcc/nios2-elf/4.1.2/../../../../nios2-elf/lib\libc.a(lib_a-mprec.o)
 .debug_info    0x00029dc6      0x98c c:/altera/12.0/nios2eds/bin/gnu/h-i686-mingw32/bin/../lib/gcc/nios2-elf/4.1.2/../../../../nios2-elf/lib\libc.a(lib_a-readr.o)
 .debug_info    0x0002a752      0xbd7 c:/altera/12.0/nios2eds/bin/gnu/h-i686-mingw32/bin/../lib/gcc/nios2-elf/4.1.2/../../../../nios2-elf/lib\libc.a(lib_a-reallocr.o)
 .debug_info    0x0002b329       0xd7 c:/altera/12.0/nios2eds/bin/gnu/h-i686-mingw32/bin/../lib/gcc/nios2-elf/4.1.2/../../../../nios2-elf/lib\libc.a(lib_a-s_isinfd.o)
 .debug_info    0x0002b400       0xd5 c:/altera/12.0/nios2eds/bin/gnu/h-i686-mingw32/bin/../lib/gcc/nios2-elf/4.1.2/../../../../nios2-elf/lib\libc.a(lib_a-s_isnand.o)
 .debug_info    0x0002b4d5       0xfb c:/altera/12.0/nios2eds/bin/gnu/h-i686-mingw32/bin/../lib/gcc/nios2-elf/4.1.2/../../../../nios2-elf/lib\libc.a(lib_a-sccl.o)
 .debug_info    0x0002b5d0       0xc8 c:/altera/12.0/nios2eds/bin/gnu/h-i686-mingw32/bin/../lib/gcc/nios2-elf/4.1.2/../../../../nios2-elf/lib\libc.a(lib_a-sf_nan.o)
 .debug_info    0x0002b698      0xecc c:/altera/12.0/nios2eds/bin/gnu/h-i686-mingw32/bin/../lib/gcc/nios2-elf/4.1.2/../../../../nios2-elf/lib\libc.a(lib_a-strtod.o)
 .debug_info    0x0002c564      0x9d5 c:/altera/12.0/nios2eds/bin/gnu/h-i686-mingw32/bin/../lib/gcc/nios2-elf/4.1.2/../../../../nios2-elf/lib\libc.a(lib_a-strtoll_r.o)
 .debug_info    0x0002cf39      0xa22 c:/altera/12.0/nios2eds/bin/gnu/h-i686-mingw32/bin/../lib/gcc/nios2-elf/4.1.2/../../../../nios2-elf/lib\libc.a(lib_a-strtoul.o)
 .debug_info    0x0002d95b      0x9cd c:/altera/12.0/nios2eds/bin/gnu/h-i686-mingw32/bin/../lib/gcc/nios2-elf/4.1.2/../../../../nios2-elf/lib\libc.a(lib_a-strtoull_r.o)
 .debug_info    0x0002e328      0x9f6 c:/altera/12.0/nios2eds/bin/gnu/h-i686-mingw32/bin/../lib/gcc/nios2-elf/4.1.2/../../../../nios2-elf/lib\libc.a(lib_a-ungetc.o)
 .debug_info    0x0002ed1e      0xa1b c:/altera/12.0/nios2eds/bin/gnu/h-i686-mingw32/bin/../lib/gcc/nios2-elf/4.1.2/../../../../nios2-elf/lib\libc.a(lib_a-callocr.o)
 .debug_info    0x0002f739      0xccb c:/altera/12.0/nios2eds/bin/gnu/h-i686-mingw32/bin/../lib/gcc/nios2-elf/4.1.2/../../../../nios2-elf/lib\libc.a(lib_a-gdtoa-gethex.o)
 .debug_info    0x00030404      0x23e c:/altera/12.0/nios2eds/bin/gnu/h-i686-mingw32/bin/../lib/gcc/nios2-elf/4.1.2/../../../../nios2-elf/lib\libc.a(lib_a-gdtoa-hexnan.o)
 .debug_info    0x00030642      0x215 c:/altera/12.0/nios2eds/bin/gnu/h-i686-mingw32/bin/../lib/gcc/nios2-elf/4.1.2\libgcc.a(_muldi3.o)
 .debug_info    0x00030857       0xce c:/altera/12.0/nios2eds/bin/gnu/h-i686-mingw32/bin/../lib/gcc/nios2-elf/4.1.2\libgcc.a(_fixunsdfsi.o)
 .debug_info    0x00030925      0x724 c:/altera/12.0/nios2eds/bin/gnu/h-i686-mingw32/bin/../lib/gcc/nios2-elf/4.1.2\libgcc.a(_udivdi3.o)
 .debug_info    0x00031049      0x751 c:/altera/12.0/nios2eds/bin/gnu/h-i686-mingw32/bin/../lib/gcc/nios2-elf/4.1.2\libgcc.a(_umoddi3.o)
 .debug_info    0x0003179a      0x290 c:/altera/12.0/nios2eds/bin/gnu/h-i686-mingw32/bin/../lib/gcc/nios2-elf/4.1.2\libgcc.a(_ne_sf.o)
 .debug_info    0x00031a2a      0x290 c:/altera/12.0/nios2eds/bin/gnu/h-i686-mingw32/bin/../lib/gcc/nios2-elf/4.1.2\libgcc.a(_gt_sf.o)
 .debug_info    0x00031cba      0x290 c:/altera/12.0/nios2eds/bin/gnu/h-i686-mingw32/bin/../lib/gcc/nios2-elf/4.1.2\libgcc.a(_lt_sf.o)
 .debug_info    0x00031f4a      0x493 c:/altera/12.0/nios2eds/bin/gnu/h-i686-mingw32/bin/../lib/gcc/nios2-elf/4.1.2\libgcc.a(_addsub_df.o)
 .debug_info    0x000323dd      0x488 c:/altera/12.0/nios2eds/bin/gnu/h-i686-mingw32/bin/../lib/gcc/nios2-elf/4.1.2\libgcc.a(_mul_df.o)
 .debug_info    0x00032865      0x39b c:/altera/12.0/nios2eds/bin/gnu/h-i686-mingw32/bin/../lib/gcc/nios2-elf/4.1.2\libgcc.a(_div_df.o)
 .debug_info    0x00032c00      0x29d c:/altera/12.0/nios2eds/bin/gnu/h-i686-mingw32/bin/../lib/gcc/nios2-elf/4.1.2\libgcc.a(_eq_df.o)
 .debug_info    0x00032e9d      0x29d c:/altera/12.0/nios2eds/bin/gnu/h-i686-mingw32/bin/../lib/gcc/nios2-elf/4.1.2\libgcc.a(_ne_df.o)
 .debug_info    0x0003313a      0x29d c:/altera/12.0/nios2eds/bin/gnu/h-i686-mingw32/bin/../lib/gcc/nios2-elf/4.1.2\libgcc.a(_gt_df.o)
 .debug_info    0x000333d7      0x29d c:/altera/12.0/nios2eds/bin/gnu/h-i686-mingw32/bin/../lib/gcc/nios2-elf/4.1.2\libgcc.a(_ge_df.o)
 .debug_info    0x00033674      0x29d c:/altera/12.0/nios2eds/bin/gnu/h-i686-mingw32/bin/../lib/gcc/nios2-elf/4.1.2\libgcc.a(_lt_df.o)
 .debug_info    0x00033911      0x29d c:/altera/12.0/nios2eds/bin/gnu/h-i686-mingw32/bin/../lib/gcc/nios2-elf/4.1.2\libgcc.a(_le_df.o)
 .debug_info    0x00033bae      0x218 c:/altera/12.0/nios2eds/bin/gnu/h-i686-mingw32/bin/../lib/gcc/nios2-elf/4.1.2\libgcc.a(_si_to_df.o)
 .debug_info    0x00033dc6      0x2cd c:/altera/12.0/nios2eds/bin/gnu/h-i686-mingw32/bin/../lib/gcc/nios2-elf/4.1.2\libgcc.a(_df_to_si.o)
 .debug_info    0x00034093      0x261 c:/altera/12.0/nios2eds/bin/gnu/h-i686-mingw32/bin/../lib/gcc/nios2-elf/4.1.2\libgcc.a(_df_to_sf.o)
 .debug_info    0x000342f4      0x164 c:/altera/12.0/nios2eds/bin/gnu/h-i686-mingw32/bin/../lib/gcc/nios2-elf/4.1.2\libgcc.a(_thenan_df.o)
 .debug_info    0x00034458      0x213 c:/altera/12.0/nios2eds/bin/gnu/h-i686-mingw32/bin/../lib/gcc/nios2-elf/4.1.2\libgcc.a(_usi_to_df.o)
 .debug_info    0x0003466b       0xc9 c:/altera/12.0/nios2eds/bin/gnu/h-i686-mingw32/bin/../lib/gcc/nios2-elf/4.1.2\libgcc.a(_clz.o)
 .debug_info    0x00034734      0x130 c:/altera/12.0/nios2eds/bin/gnu/h-i686-mingw32/bin/../lib/gcc/nios2-elf/4.1.2\libgcc.a(_clzsi2.o)
 .debug_info    0x00034864      0x25a c:/altera/12.0/nios2eds/bin/gnu/h-i686-mingw32/bin/../lib/gcc/nios2-elf/4.1.2\libgcc.a(_unpack_sf.o)
 .debug_info    0x00034abe      0x21f c:/altera/12.0/nios2eds/bin/gnu/h-i686-mingw32/bin/../lib/gcc/nios2-elf/4.1.2\libgcc.a(_fpcmp_parts_sf.o)
 .debug_info    0x00034cdd      0x1d7 c:/altera/12.0/nios2eds/bin/gnu/h-i686-mingw32/bin/../lib/gcc/nios2-elf/4.1.2\libgcc.a(_make_sf.o)
 .debug_info    0x00034eb4      0x2fc c:/altera/12.0/nios2eds/bin/gnu/h-i686-mingw32/bin/../lib/gcc/nios2-elf/4.1.2\libgcc.a(_pack_df.o)
 .debug_info    0x000351b0      0x268 c:/altera/12.0/nios2eds/bin/gnu/h-i686-mingw32/bin/../lib/gcc/nios2-elf/4.1.2\libgcc.a(_unpack_df.o)
 .debug_info    0x00035418      0x21b c:/altera/12.0/nios2eds/bin/gnu/h-i686-mingw32/bin/../lib/gcc/nios2-elf/4.1.2\libgcc.a(_fpcmp_parts_df.o)
 .debug_info    0x00035633      0x2f2 c:/altera/12.0/nios2eds/bin/gnu/h-i686-mingw32/bin/../lib/gcc/nios2-elf/4.1.2\libgcc.a(_pack_sf.o)
 .debug_info    0x00035925      0x1b4 ../web_server_bsp/\libucosii_bsp.a(alt_dcache_flush.o)
 .debug_info    0x00035ad9      0x5fd ../web_server_bsp/\libucosii_bsp.a(alt_flash_dev.o)
 .debug_info    0x000360d6      0x6c4 ../web_server_bsp/\libucosii_bsp.a(alt_fstat.o)
 .debug_info    0x0003679a      0x6ca ../web_server_bsp/\libucosii_bsp.a(alt_isatty.o)
 .debug_info    0x00036e64      0x29d ../web_server_bsp/\libucosii_bsp.a(alt_load.o)
 .debug_info    0x00037101      0x4fe ../web_server_bsp/\libucosii_bsp.a(alt_lseek.o)
 .debug_info    0x000375ff      0x3ed ../web_server_bsp/\libucosii_bsp.a(alt_main.o)
 .debug_info    0x000379ec      0x57a ../web_server_bsp/\libucosii_bsp.a(alt_open.o)
 .debug_info    0x00037f66      0x45f ../web_server_bsp/\libucosii_bsp.a(alt_release_fd.o)
 .debug_info    0x000383c5      0x2c7 ../web_server_bsp/\libucosii_bsp.a(alt_sbrk.o)
 .debug_info    0x0003868c      0x421 ../web_server_bsp/\libucosii_bsp.a(alt_tick.o)
 .debug_info    0x00038aad      0x244 ../web_server_bsp/\libucosii_bsp.a(alt_usleep.o)
 .debug_info    0x00038cf1     0x11e3 ../web_server_bsp/\libucosii_bsp.a(alt_env_lock.o)
 .debug_info    0x00039ed4     0x133f ../web_server_bsp/\libucosii_bsp.a(alt_malloc_lock.o)
 .debug_info    0x0003b213     0x1bf9 ../web_server_bsp/\libucosii_bsp.a(os_core.o)
 .debug_info    0x0003ce0c     0x113e ../web_server_bsp/\libucosii_bsp.a(os_dbg.o)
 .debug_info    0x0003df4a     0x1254 ../web_server_bsp/\libucosii_bsp.a(os_flag.o)
 .debug_info    0x0003f19e      0xd50 ../web_server_bsp/\libucosii_bsp.a(os_mbox.o)
 .debug_info    0x0003feee      0x81e ../web_server_bsp/\libucosii_bsp.a(os_mem.o)
 .debug_info    0x0004070c     0x108e ../web_server_bsp/\libucosii_bsp.a(os_q.o)
 .debug_info    0x0004179a      0xcf6 ../web_server_bsp/\libucosii_bsp.a(os_sem.o)
 .debug_info    0x00042490     0x136c ../web_server_bsp/\libucosii_bsp.a(os_task.o)
 .debug_info    0x000437fc      0x9f0 ../web_server_bsp/\libucosii_bsp.a(os_time.o)
 .debug_info    0x000441ec     0x1f75 ../web_server_bsp/\libucosii_bsp.a(alt_sys_init.o)
 .debug_info    0x00046161      0xb59 ../web_server_bsp/\libucosii_bsp.a(altera_avalon_cfi_flash.o)
 .debug_info    0x00046cba      0xe45 ../web_server_bsp/\libucosii_bsp.a(altera_avalon_cfi_flash_table.o)
 .debug_info    0x00047aff      0x9e2 ../web_server_bsp/\libucosii_bsp.a(altera_avalon_jtag_uart_fd.o)
 .debug_info    0x000484e1      0x960 ../web_server_bsp/\libucosii_bsp.a(altera_avalon_jtag_uart_init.o)
 .debug_info    0x00048e41      0x64c ../web_server_bsp/\libucosii_bsp.a(altera_avalon_jtag_uart_ioctl.o)
 .debug_info    0x0004948d      0x808 ../web_server_bsp/\libucosii_bsp.a(altera_avalon_jtag_uart_read.o)
 .debug_info    0x00049c95      0x7ff ../web_server_bsp/\libucosii_bsp.a(altera_avalon_jtag_uart_write.o)
 .debug_info    0x0004a494      0xaae ../web_server_bsp/\libucosii_bsp.a(altera_avalon_lcd_16207.o)
 .debug_info    0x0004af42      0x846 ../web_server_bsp/\libucosii_bsp.a(altera_avalon_lcd_16207_fd.o)
 .debug_info    0x0004b788      0xf2f ../web_server_bsp/\libucosii_bsp.a(altera_avalon_sgdma.o)
 .debug_info    0x0004c6b7      0x39b ../web_server_bsp/\libucosii_bsp.a(altera_avalon_timer_sc.o)
 .debug_info    0x0004ca52     0x311e ../web_server_bsp/\libucosii_bsp.a(altera_avalon_tse.o)
 .debug_info    0x0004fb70      0x882 ../web_server_bsp/\libucosii_bsp.a(altera_avalon_uart_fd.o)
 .debug_info    0x000503f2      0x84e ../web_server_bsp/\libucosii_bsp.a(altera_avalon_uart_init.o)
 .debug_info    0x00050c40      0x7d0 ../web_server_bsp/\libucosii_bsp.a(altera_avalon_uart_read.o)
 .debug_info    0x00051410      0x7bf ../web_server_bsp/\libucosii_bsp.a(altera_avalon_uart_write.o)
 .debug_info    0x00051bcf      0xf2e ../web_server_bsp/\libucosii_bsp.a(altera_ro_zipfs.o)
 .debug_info    0x00052afd     0x2b4c ../web_server_bsp/\libucosii_bsp.a(ins_tse_mac.o)
 .debug_info    0x00055649      0x1c6 ../web_server_bsp/\libucosii_bsp.a(alt_iniche_close.o)
 .debug_info    0x0005580f      0xb6d ../web_server_bsp/\libucosii_bsp.a(alt_iniche_dev.o)
 .debug_info    0x0005637c      0x1f0 ../web_server_bsp/\libucosii_bsp.a(alt_iniche_read.o)
 .debug_info    0x0005656c      0x1f7 ../web_server_bsp/\libucosii_bsp.a(alt_iniche_write.o)
 .debug_info    0x00056763      0xc59 ../web_server_bsp/\libucosii_bsp.a(ipnet.o)
 .debug_info    0x000573bc      0xbac ../web_server_bsp/\libucosii_bsp.a(ipstart.o)
 .debug_info    0x00057f68     0x1540 ../web_server_bsp/\libucosii_bsp.a(igmp_cmn.o)
 .debug_info    0x000594a8     0x1470 ../web_server_bsp/\libucosii_bsp.a(bsdsock.o)
 .debug_info    0x0005a918      0x262 ../web_server_bsp/\libucosii_bsp.a(cksum.o)
 .debug_info    0x0005ab7a      0x754 ../web_server_bsp/\libucosii_bsp.a(in_utils.o)
 .debug_info    0x0005b2ce      0x56e ../web_server_bsp/\libucosii_bsp.a(netmain.o)
 .debug_info    0x0005b83c      0x97b ../web_server_bsp/\libucosii_bsp.a(tk_crnos.o)
 .debug_info    0x0005c1b7     0x1609 ../web_server_bsp/\libucosii_bsp.a(dhcpclnt.o)
 .debug_info    0x0005d7c0      0x1ec ../web_server_bsp/\libucosii_bsp.a(dhcputil.o)
 .debug_info    0x0005d9ac      0xcb8 ../web_server_bsp/\libucosii_bsp.a(pktalloc.o)
 .debug_info    0x0005e664      0x2fc ../web_server_bsp/\libucosii_bsp.a(q.o)
 .debug_info    0x0005e960      0xb37 ../web_server_bsp/\libucosii_bsp.a(udp_open.o)
 .debug_info    0x0005f497       0x9d ../web_server_bsp/\libucosii_bsp.a(asm_cksum.o)
 .debug_info    0x0005f534      0xebd ../web_server_bsp/\libucosii_bsp.a(brdutils.o)
 .debug_info    0x000603f1      0x6ef ../web_server_bsp/\libucosii_bsp.a(osportco.o)
 .debug_info    0x00060ae0      0x66c ../web_server_bsp/\libucosii_bsp.a(targnios.o)
 .debug_info    0x0006114c     0x2533 ../web_server_bsp/\libucosii_bsp.a(nptcp.o)
 .debug_info    0x0006367f     0x11eb ../web_server_bsp/\libucosii_bsp.a(rawsock.o)
 .debug_info    0x0006486a     0x1ca9 ../web_server_bsp/\libucosii_bsp.a(sockcall.o)
 .debug_info    0x00066513     0x1aaf ../web_server_bsp/\libucosii_bsp.a(socket.o)
 .debug_info    0x00067fc2     0x1575 ../web_server_bsp/\libucosii_bsp.a(socket2.o)
 .debug_info    0x00069537     0x128e ../web_server_bsp/\libucosii_bsp.a(soselect.o)
 .debug_info    0x0006a7c5     0x2140 ../web_server_bsp/\libucosii_bsp.a(tcp_in.o)
 .debug_info    0x0006c905     0x1e2f ../web_server_bsp/\libucosii_bsp.a(tcp_out.o)
 .debug_info    0x0006e734     0x1e97 ../web_server_bsp/\libucosii_bsp.a(tcp_subr.o)
 .debug_info    0x000705cb     0x1cb2 ../web_server_bsp/\libucosii_bsp.a(tcp_timr.o)
 .debug_info    0x0007227d     0x1c6f ../web_server_bsp/\libucosii_bsp.a(tcp_usr.o)
 .debug_info    0x00073eec      0x1c2 ../web_server_bsp/\libucosii_bsp.a(tcpport.o)
 .debug_info    0x000740ae     0x1345 ../web_server_bsp/\libucosii_bsp.a(udpsock.o)
 .debug_info    0x000753f3      0x452 ../web_server_bsp/\libucosii_bsp.a(alt_alarm_start.o)
 .debug_info    0x00075845      0x1bb ../web_server_bsp/\libucosii_bsp.a(alt_busy_sleep.o)
 .debug_info    0x00075a00      0x4cf ../web_server_bsp/\libucosii_bsp.a(alt_close.o)
 .debug_info    0x00075ecf      0x17f ../web_server_bsp/\libucosii_bsp.a(alt_dcache_flush_all.o)
 .debug_info    0x0007604e      0x7ed ../web_server_bsp/\libucosii_bsp.a(alt_dev.o)
 .debug_info    0x0007683b      0x2c7 ../web_server_bsp/\libucosii_bsp.a(alt_dev_llist_insert.o)
 .debug_info    0x00076b02      0x11f ../web_server_bsp/\libucosii_bsp.a(alt_do_ctors.o)
 .debug_info    0x00076c21      0x11e ../web_server_bsp/\libucosii_bsp.a(alt_do_dtors.o)
 .debug_info    0x00076d3f      0x174 ../web_server_bsp/\libucosii_bsp.a(alt_errno.o)
 .debug_info    0x00076eb3      0x47c ../web_server_bsp/\libucosii_bsp.a(alt_find_dev.o)
 .debug_info    0x0007732f      0x483 ../web_server_bsp/\libucosii_bsp.a(alt_find_file.o)
 .debug_info    0x000777b2      0x494 ../web_server_bsp/\libucosii_bsp.a(alt_fs_reg.o)
 .debug_info    0x00077c46      0x615 ../web_server_bsp/\libucosii_bsp.a(alt_get_fd.o)
 .debug_info    0x0007825b      0x16c ../web_server_bsp/\libucosii_bsp.a(alt_icache_flush_all.o)
 .debug_info    0x000783c7      0x4a3 ../web_server_bsp/\libucosii_bsp.a(alt_iic.o)
 .debug_info    0x0007886a      0x324 ../web_server_bsp/\libucosii_bsp.a(alt_iic_isr_register.o)
 .debug_info    0x00078b8e      0x6f9 ../web_server_bsp/\libucosii_bsp.a(alt_io_redirect.o)
 .debug_info    0x00079287       0x94 ../web_server_bsp/\libucosii_bsp.a(alt_irq_entry.o)
 .debug_info    0x0007931b      0x2ca ../web_server_bsp/\libucosii_bsp.a(alt_irq_handler.o)
 .debug_info    0x000795e5      0x177 ../web_server_bsp/\libucosii_bsp.a(alt_irq_vars.o)
 .debug_info    0x0007975c      0x6f2 ../web_server_bsp/\libucosii_bsp.a(alt_read.o)
 .debug_info    0x00079e4e      0x1a1 ../web_server_bsp/\libucosii_bsp.a(alt_remap_cached.o)
 .debug_info    0x00079fef      0x1a5 ../web_server_bsp/\libucosii_bsp.a(alt_remap_uncached.o)
 .debug_info    0x0007a194      0x1a7 ../web_server_bsp/\libucosii_bsp.a(alt_uncached_malloc.o)
 .debug_info    0x0007a33b      0x6fb ../web_server_bsp/\libucosii_bsp.a(alt_write.o)
 .debug_info    0x0007aa36      0x173 ../web_server_bsp/\libucosii_bsp.a(altera_nios2_qsys_irq.o)
 .debug_info    0x0007aba9       0x93 ../web_server_bsp/\libucosii_bsp.a(os_cpu_a.o)
 .debug_info    0x0007ac3c     0x12e3 ../web_server_bsp/\libucosii_bsp.a(os_cpu_c.o)
 .debug_info    0x0007bf1f      0x8f9 ../web_server_bsp/\libucosii_bsp.a(altera_avalon_cfi_flash_amd.o)
 .debug_info    0x0007c818      0x8ef ../web_server_bsp/\libucosii_bsp.a(altera_avalon_cfi_flash_intel.o)
 .debug_info    0x0007d107      0xdaf ../web_server_bsp/\libucosii_bsp.a(allports.o)
 .debug_info    0x0007deb6      0x3d1 ../web_server_bsp/\libucosii_bsp.a(timeouts.o)
 .debug_info    0x0007e287      0x230 ../web_server_bsp/\libucosii_bsp.a(tk_misc.o)
 .debug_info    0x0007e4b7      0x21d ../web_server_bsp/\libucosii_bsp.a(alt_iniche_fcntl.o)
 .debug_info    0x0007e6d4     0x1289 ../web_server_bsp/\libucosii_bsp.a(et_arp.o)
 .debug_info    0x0007f95d      0xfa7 ../web_server_bsp/\libucosii_bsp.a(iface.o)
 .debug_info    0x00080904     0x1714 ../web_server_bsp/\libucosii_bsp.a(ip.o)
 .debug_info    0x00082018     0x1878 ../web_server_bsp/\libucosii_bsp.a(ip_reasm.o)
 .debug_info    0x00083890      0xdf9 ../web_server_bsp/\libucosii_bsp.a(ipdemux.o)
 .debug_info    0x00084689      0xa55 ../web_server_bsp/\libucosii_bsp.a(ipmc.o)
 .debug_info    0x000850de      0x2f3 ../web_server_bsp/\libucosii_bsp.a(ipport.o)
 .debug_info    0x000853d1      0xf66 ../web_server_bsp/\libucosii_bsp.a(ipraw.o)
 .debug_info    0x00086337      0xf11 ../web_server_bsp/\libucosii_bsp.a(iproute.o)
 .debug_info    0x00087248     0x12a8 ../web_server_bsp/\libucosii_bsp.a(udp.o)
 .debug_info    0x000884f0     0x1142 ../web_server_bsp/\libucosii_bsp.a(igmp.o)
 .debug_info    0x00089632     0x1376 ../web_server_bsp/\libucosii_bsp.a(igmp2.o)
 .debug_info    0x0008a9a8     0x10f1 ../web_server_bsp/\libucosii_bsp.a(ipopt.o)
 .debug_info    0x0008ba99      0xbc9 ../web_server_bsp/\libucosii_bsp.a(u_mctest.o)
 .debug_info    0x0008c662      0xa67 ../web_server_bsp/\libucosii_bsp.a(dhcsetup.o)
 .debug_info    0x0008d0c9      0x74f ../web_server_bsp/\libucosii_bsp.a(memdev.o)
 .debug_info    0x0008d818      0x6fa ../web_server_bsp/\libucosii_bsp.a(parseip.o)
 .debug_info    0x0008df12      0x3f4 ../web_server_bsp/\libucosii_bsp.a(tcpcksum.o)
 .debug_info    0x0008e306     0x12c3 ../web_server_bsp/\libucosii_bsp.a(in_pcb.o)
 .debug_info    0x0008f5c9      0xff4 ../web_server_bsp/\libucosii_bsp.a(vfsfiles.o)
 .debug_info    0x000905bd      0x1c3 ../web_server_bsp/\libucosii_bsp.a(vfsport.o)
 .debug_info    0x00090780       0x9a ../web_server_bsp/\libucosii_bsp.a(alt_exception_entry.o)
 .debug_info    0x0009081a      0x710 ../web_server_bsp/\libucosii_bsp.a(alt_fcntl.o)
 .debug_info    0x00090f2a      0x1b4 ../web_server_bsp/\libucosii_bsp.a(alt_icache_flush.o)
 .debug_info    0x000910de     0x1196 ../web_server_bsp/\libucosii_bsp.a(icmp.o)
 .debug_info    0x00092274      0x181 c:/altera/12.0/nios2eds/bin/gnu/h-i686-mingw32/bin/../lib/gcc/nios2-elf/4.1.2/../../../../nios2-elf/lib\libc.a(lib_a-atexit.o)
 .debug_info    0x000923f5      0x954 c:/altera/12.0/nios2eds/bin/gnu/h-i686-mingw32/bin/../lib/gcc/nios2-elf/4.1.2/../../../../nios2-elf/lib\libc.a(lib_a-calloc.o)
 .debug_info    0x00092d49      0x93f c:/altera/12.0/nios2eds/bin/gnu/h-i686-mingw32/bin/../lib/gcc/nios2-elf/4.1.2/../../../../nios2-elf/lib\libc.a(lib_a-exit.o)
 .debug_info    0x00093688      0x96e c:/altera/12.0/nios2eds/bin/gnu/h-i686-mingw32/bin/../lib/gcc/nios2-elf/4.1.2/../../../../nios2-elf/lib\libc.a(lib_a-malloc.o)
 .debug_info    0x00093ff6      0x9aa c:/altera/12.0/nios2eds/bin/gnu/h-i686-mingw32/bin/../lib/gcc/nios2-elf/4.1.2/../../../../nios2-elf/lib\libc.a(lib_a-vprintf.o)
 .debug_info    0x000949a0      0x9ed c:/altera/12.0/nios2eds/bin/gnu/h-i686-mingw32/bin/../lib/gcc/nios2-elf/4.1.2/../../../../nios2-elf/lib\libc.a(lib_a-vsprintf.o)
 .debug_info    0x0009538d      0x99c c:/altera/12.0/nios2eds/bin/gnu/h-i686-mingw32/bin/../lib/gcc/nios2-elf/4.1.2/../../../../nios2-elf/lib\libc.a(lib_a-__atexit.o)
 .debug_info    0x00095d29      0x9e2 c:/altera/12.0/nios2eds/bin/gnu/h-i686-mingw32/bin/../lib/gcc/nios2-elf/4.1.2/../../../../nios2-elf/lib\libc.a(lib_a-__call_atexit.o)
 .debug_info    0x0009670b      0x218 ../web_server_bsp/\libucosii_bsp.a(alt_exit.o)

.debug_abbrev   0x00000000    0x16102
 *(.debug_abbrev)
 .debug_abbrev  0x00000000       0x12 ../web_server_bsp//obj/HAL/src/crt0.o
 .debug_abbrev  0x00000012      0x1bc obj/default/alt_error_handler.o
 .debug_abbrev  0x000001ce      0x305 obj/default/http.o
 .debug_abbrev  0x000004d3      0x2a6 obj/default/network_utilities.o
 .debug_abbrev  0x00000779      0x1c4 obj/default/srec_flash.o
 .debug_abbrev  0x0000093d       0xe5 obj/default/tse_my_system.o
 .debug_abbrev  0x00000a22      0x270 obj/default/web_server.o
 .debug_abbrev  0x00000c92       0xe0 c:/altera/12.0/nios2eds/bin/gnu/h-i686-mingw32/bin/../lib/gcc/nios2-elf/4.1.2\libgcc.a(lib2-divmod.o)
 .debug_abbrev  0x00000d72      0x176 c:/altera/12.0/nios2eds/bin/gnu/h-i686-mingw32/bin/../lib/gcc/nios2-elf/4.1.2/../../../../nios2-elf/lib\libc.a(lib_a-atoi.o)
 .debug_abbrev  0x00000ee8       0x61 c:/altera/12.0/nios2eds/bin/gnu/h-i686-mingw32/bin/../lib/gcc/nios2-elf/4.1.2/../../../../nios2-elf/lib\libc.a(lib_a-ctype_.o)
 .debug_abbrev  0x00000f49      0x1a7 c:/altera/12.0/nios2eds/bin/gnu/h-i686-mingw32/bin/../lib/gcc/nios2-elf/4.1.2/../../../../nios2-elf/lib\libc.a(lib_a-fclose.o)
 .debug_abbrev  0x000010f0      0x1c6 c:/altera/12.0/nios2eds/bin/gnu/h-i686-mingw32/bin/../lib/gcc/nios2-elf/4.1.2/../../../../nios2-elf/lib\libc.a(lib_a-fflush.o)
 .debug_abbrev  0x000012b6      0x189 c:/altera/12.0/nios2eds/bin/gnu/h-i686-mingw32/bin/../lib/gcc/nios2-elf/4.1.2/../../../../nios2-elf/lib\libc.a(lib_a-fgetpos.o)
 .debug_abbrev  0x0000143f      0x24c c:/altera/12.0/nios2eds/bin/gnu/h-i686-mingw32/bin/../lib/gcc/nios2-elf/4.1.2/../../../../nios2-elf/lib\libc.a(lib_a-findfp.o)
 .debug_abbrev  0x0000168b      0x1b6 c:/altera/12.0/nios2eds/bin/gnu/h-i686-mingw32/bin/../lib/gcc/nios2-elf/4.1.2/../../../../nios2-elf/lib\libc.a(lib_a-fopen.o)
 .debug_abbrev  0x00001841      0x197 c:/altera/12.0/nios2eds/bin/gnu/h-i686-mingw32/bin/../lib/gcc/nios2-elf/4.1.2/../../../../nios2-elf/lib\libc.a(lib_a-fprintf.o)
 .debug_abbrev  0x000019d8      0x20d c:/altera/12.0/nios2eds/bin/gnu/h-i686-mingw32/bin/../lib/gcc/nios2-elf/4.1.2/../../../../nios2-elf/lib\libc.a(lib_a-fread.o)
 .debug_abbrev  0x00001be5      0x1d9 c:/altera/12.0/nios2eds/bin/gnu/h-i686-mingw32/bin/../lib/gcc/nios2-elf/4.1.2/../../../../nios2-elf/lib\libc.a(lib_a-freer.o)
 .debug_abbrev  0x00001dbe      0x208 c:/altera/12.0/nios2eds/bin/gnu/h-i686-mingw32/bin/../lib/gcc/nios2-elf/4.1.2/../../../../nios2-elf/lib\libc.a(lib_a-fseek.o)
 .debug_abbrev  0x00001fc6      0x18e c:/altera/12.0/nios2eds/bin/gnu/h-i686-mingw32/bin/../lib/gcc/nios2-elf/4.1.2/../../../../nios2-elf/lib\libc.a(lib_a-fstatr.o)
 .debug_abbrev  0x00002154      0x198 c:/altera/12.0/nios2eds/bin/gnu/h-i686-mingw32/bin/../lib/gcc/nios2-elf/4.1.2/../../../../nios2-elf/lib\libc.a(lib_a-ftell.o)
 .debug_abbrev  0x000022ec      0x1e3 c:/altera/12.0/nios2eds/bin/gnu/h-i686-mingw32/bin/../lib/gcc/nios2-elf/4.1.2/../../../../nios2-elf/lib\libc.a(lib_a-fwalk.o)
 .debug_abbrev  0x000024cf      0x1b1 c:/altera/12.0/nios2eds/bin/gnu/h-i686-mingw32/bin/../lib/gcc/nios2-elf/4.1.2/../../../../nios2-elf/lib\libc.a(lib_a-fwrite.o)
 .debug_abbrev  0x00002680      0x17f c:/altera/12.0/nios2eds/bin/gnu/h-i686-mingw32/bin/../lib/gcc/nios2-elf/4.1.2/../../../../nios2-elf/lib\libc.a(lib_a-getc.o)
 .debug_abbrev  0x000027ff      0x157 c:/altera/12.0/nios2eds/bin/gnu/h-i686-mingw32/bin/../lib/gcc/nios2-elf/4.1.2/../../../../nios2-elf/lib\libc.a(lib_a-impure.o)
 .debug_abbrev  0x00002956       0x3b c:/altera/12.0/nios2eds/bin/gnu/h-i686-mingw32/bin/../lib/gcc/nios2-elf/4.1.2/../../../../nios2-elf/lib\libc.a(lib_a-int_errno.o)
 .debug_abbrev  0x00002991      0x197 c:/altera/12.0/nios2eds/bin/gnu/h-i686-mingw32/bin/../lib/gcc/nios2-elf/4.1.2/../../../../nios2-elf/lib\libc.a(lib_a-makebuf.o)
 .debug_abbrev  0x00002b28      0x216 c:/altera/12.0/nios2eds/bin/gnu/h-i686-mingw32/bin/../lib/gcc/nios2-elf/4.1.2/../../../../nios2-elf/lib\libc.a(lib_a-mallocr.o)
 .debug_abbrev  0x00002d3e       0xb5 c:/altera/12.0/nios2eds/bin/gnu/h-i686-mingw32/bin/../lib/gcc/nios2-elf/4.1.2/../../../../nios2-elf/lib\libc.a(lib_a-memcpy.o)
 .debug_abbrev  0x00002df3       0xb5 c:/altera/12.0/nios2eds/bin/gnu/h-i686-mingw32/bin/../lib/gcc/nios2-elf/4.1.2/../../../../nios2-elf/lib\libc.a(lib_a-memmove.o)
 .debug_abbrev  0x00002ea8       0xb8 c:/altera/12.0/nios2eds/bin/gnu/h-i686-mingw32/bin/../lib/gcc/nios2-elf/4.1.2/../../../../nios2-elf/lib\libc.a(lib_a-memset.o)
 .debug_abbrev  0x00002f60      0x18e c:/altera/12.0/nios2eds/bin/gnu/h-i686-mingw32/bin/../lib/gcc/nios2-elf/4.1.2/../../../../nios2-elf/lib\libc.a(lib_a-openr.o)
 .debug_abbrev  0x000030ee      0x194 c:/altera/12.0/nios2eds/bin/gnu/h-i686-mingw32/bin/../lib/gcc/nios2-elf/4.1.2/../../../../nios2-elf/lib\libc.a(lib_a-perror.o)
 .debug_abbrev  0x00003282      0x191 c:/altera/12.0/nios2eds/bin/gnu/h-i686-mingw32/bin/../lib/gcc/nios2-elf/4.1.2/../../../../nios2-elf/lib\libc.a(lib_a-printf.o)
 .debug_abbrev  0x00003413      0x17f c:/altera/12.0/nios2eds/bin/gnu/h-i686-mingw32/bin/../lib/gcc/nios2-elf/4.1.2/../../../../nios2-elf/lib\libc.a(lib_a-putc.o)
 .debug_abbrev  0x00003592      0x170 c:/altera/12.0/nios2eds/bin/gnu/h-i686-mingw32/bin/../lib/gcc/nios2-elf/4.1.2/../../../../nios2-elf/lib\libc.a(lib_a-putchar.o)
 .debug_abbrev  0x00003702      0x1ac c:/altera/12.0/nios2eds/bin/gnu/h-i686-mingw32/bin/../lib/gcc/nios2-elf/4.1.2/../../../../nios2-elf/lib\libc.a(lib_a-puts.o)
 .debug_abbrev  0x000038ae      0x187 c:/altera/12.0/nios2eds/bin/gnu/h-i686-mingw32/bin/../lib/gcc/nios2-elf/4.1.2/../../../../nios2-elf/lib\libc.a(lib_a-refill.o)
 .debug_abbrev  0x00003a35      0x189 c:/altera/12.0/nios2eds/bin/gnu/h-i686-mingw32/bin/../lib/gcc/nios2-elf/4.1.2/../../../../nios2-elf/lib\libc.a(lib_a-rget.o)
 .debug_abbrev  0x00003bbe      0x18c c:/altera/12.0/nios2eds/bin/gnu/h-i686-mingw32/bin/../lib/gcc/nios2-elf/4.1.2/../../../../nios2-elf/lib\libc.a(lib_a-sbrkr.o)
 .debug_abbrev  0x00003d4a      0x191 c:/altera/12.0/nios2eds/bin/gnu/h-i686-mingw32/bin/../lib/gcc/nios2-elf/4.1.2/../../../../nios2-elf/lib\libc.a(lib_a-sprintf.o)
 .debug_abbrev  0x00003edb      0x1c6 c:/altera/12.0/nios2eds/bin/gnu/h-i686-mingw32/bin/../lib/gcc/nios2-elf/4.1.2/../../../../nios2-elf/lib\libc.a(lib_a-sscanf.o)
 .debug_abbrev  0x000040a1      0x1c9 c:/altera/12.0/nios2eds/bin/gnu/h-i686-mingw32/bin/../lib/gcc/nios2-elf/4.1.2/../../../../nios2-elf/lib\libc.a(lib_a-stdio.o)
 .debug_abbrev  0x0000426a       0x96 c:/altera/12.0/nios2eds/bin/gnu/h-i686-mingw32/bin/../lib/gcc/nios2-elf/4.1.2/../../../../nios2-elf/lib\libc.a(lib_a-strcasecmp.o)
 .debug_abbrev  0x00004300       0x87 c:/altera/12.0/nios2eds/bin/gnu/h-i686-mingw32/bin/../lib/gcc/nios2-elf/4.1.2/../../../../nios2-elf/lib\libc.a(lib_a-strcat.o)
 .debug_abbrev  0x00004387       0x80 c:/altera/12.0/nios2eds/bin/gnu/h-i686-mingw32/bin/../lib/gcc/nios2-elf/4.1.2/../../../../nios2-elf/lib\libc.a(lib_a-strchr.o)
 .debug_abbrev  0x00004407       0x80 c:/altera/12.0/nios2eds/bin/gnu/h-i686-mingw32/bin/../lib/gcc/nios2-elf/4.1.2/../../../../nios2-elf/lib\libc.a(lib_a-strcmp.o)
 .debug_abbrev  0x00004487       0x8f c:/altera/12.0/nios2eds/bin/gnu/h-i686-mingw32/bin/../lib/gcc/nios2-elf/4.1.2/../../../../nios2-elf/lib\libc.a(lib_a-strcpy.o)
 .debug_abbrev  0x00004516       0x68 c:/altera/12.0/nios2eds/bin/gnu/h-i686-mingw32/bin/../lib/gcc/nios2-elf/4.1.2/../../../../nios2-elf/lib\libc.a(lib_a-strerror.o)
 .debug_abbrev  0x0000457e       0x8b c:/altera/12.0/nios2eds/bin/gnu/h-i686-mingw32/bin/../lib/gcc/nios2-elf/4.1.2/../../../../nios2-elf/lib\libc.a(lib_a-strlen.o)
 .debug_abbrev  0x00004609       0x8d c:/altera/12.0/nios2eds/bin/gnu/h-i686-mingw32/bin/../lib/gcc/nios2-elf/4.1.2/../../../../nios2-elf/lib\libc.a(lib_a-strncmp.o)
 .debug_abbrev  0x00004696       0x9c c:/altera/12.0/nios2eds/bin/gnu/h-i686-mingw32/bin/../lib/gcc/nios2-elf/4.1.2/../../../../nios2-elf/lib\libc.a(lib_a-strncpy.o)
 .debug_abbrev  0x00004732      0x19a c:/altera/12.0/nios2eds/bin/gnu/h-i686-mingw32/bin/../lib/gcc/nios2-elf/4.1.2/../../../../nios2-elf/lib\libc.a(lib_a-strstr.o)
 .debug_abbrev  0x000048cc      0x17f c:/altera/12.0/nios2eds/bin/gnu/h-i686-mingw32/bin/../lib/gcc/nios2-elf/4.1.2/../../../../nios2-elf/lib\libc.a(lib_a-strtok.o)
 .debug_abbrev  0x00004a4b       0xcd c:/altera/12.0/nios2eds/bin/gnu/h-i686-mingw32/bin/../lib/gcc/nios2-elf/4.1.2/../../../../nios2-elf/lib\libc.a(lib_a-strtok_r.o)
 .debug_abbrev  0x00004b18      0x1c7 c:/altera/12.0/nios2eds/bin/gnu/h-i686-mingw32/bin/../lib/gcc/nios2-elf/4.1.2/../../../../nios2-elf/lib\libc.a(lib_a-strtol.o)
 .debug_abbrev  0x00004cdf       0x5b c:/altera/12.0/nios2eds/bin/gnu/h-i686-mingw32/bin/../lib/gcc/nios2-elf/4.1.2/../../../../nios2-elf/lib\libc.a(lib_a-u_strerr.o)
 .debug_abbrev  0x00004d3a      0x30a c:/altera/12.0/nios2eds/bin/gnu/h-i686-mingw32/bin/../lib/gcc/nios2-elf/4.1.2/../../../../nios2-elf/lib\libc.a(lib_a-vfprintf.o)
 .debug_abbrev  0x00005044      0x286 c:/altera/12.0/nios2eds/bin/gnu/h-i686-mingw32/bin/../lib/gcc/nios2-elf/4.1.2/../../../../nios2-elf/lib\libc.a(lib_a-vfscanf.o)
 .debug_abbrev  0x000052ca      0x198 c:/altera/12.0/nios2eds/bin/gnu/h-i686-mingw32/bin/../lib/gcc/nios2-elf/4.1.2/../../../../nios2-elf/lib\libc.a(lib_a-wbuf.o)
 .debug_abbrev  0x00005462      0x184 c:/altera/12.0/nios2eds/bin/gnu/h-i686-mingw32/bin/../lib/gcc/nios2-elf/4.1.2/../../../../nios2-elf/lib\libc.a(lib_a-writer.o)
 .debug_abbrev  0x000055e6      0x170 c:/altera/12.0/nios2eds/bin/gnu/h-i686-mingw32/bin/../lib/gcc/nios2-elf/4.1.2/../../../../nios2-elf/lib\libc.a(lib_a-wsetup.o)
 .debug_abbrev  0x00005756      0x17f c:/altera/12.0/nios2eds/bin/gnu/h-i686-mingw32/bin/../lib/gcc/nios2-elf/4.1.2/../../../../nios2-elf/lib\libc.a(lib_a-closer.o)
 .debug_abbrev  0x000058d5      0x232 c:/altera/12.0/nios2eds/bin/gnu/h-i686-mingw32/bin/../lib/gcc/nios2-elf/4.1.2/../../../../nios2-elf/lib\libc.a(lib_a-dtoa.o)
 .debug_abbrev  0x00005b07      0x17d c:/altera/12.0/nios2eds/bin/gnu/h-i686-mingw32/bin/../lib/gcc/nios2-elf/4.1.2/../../../../nios2-elf/lib\libc.a(lib_a-flags.o)
 .debug_abbrev  0x00005c84      0x18c c:/altera/12.0/nios2eds/bin/gnu/h-i686-mingw32/bin/../lib/gcc/nios2-elf/4.1.2/../../../../nios2-elf/lib\libc.a(lib_a-fputc.o)
 .debug_abbrev  0x00005e10      0x1aa c:/altera/12.0/nios2eds/bin/gnu/h-i686-mingw32/bin/../lib/gcc/nios2-elf/4.1.2/../../../../nios2-elf/lib\libc.a(lib_a-fputs.o)
 .debug_abbrev  0x00005fba      0x1a3 c:/altera/12.0/nios2eds/bin/gnu/h-i686-mingw32/bin/../lib/gcc/nios2-elf/4.1.2/../../../../nios2-elf/lib\libc.a(lib_a-fvwrite.o)
 .debug_abbrev  0x0000615d      0x17f c:/altera/12.0/nios2eds/bin/gnu/h-i686-mingw32/bin/../lib/gcc/nios2-elf/4.1.2/../../../../nios2-elf/lib\libc.a(lib_a-isattyr.o)
 .debug_abbrev  0x000062dc       0x9f c:/altera/12.0/nios2eds/bin/gnu/h-i686-mingw32/bin/../lib/gcc/nios2-elf/4.1.2/../../../../nios2-elf/lib\libc.a(lib_a-iswspace.o)
 .debug_abbrev  0x0000637b      0x1ed c:/altera/12.0/nios2eds/bin/gnu/h-i686-mingw32/bin/../lib/gcc/nios2-elf/4.1.2/../../../../nios2-elf/lib\libc.a(lib_a-locale.o)
 .debug_abbrev  0x00006568      0x18e c:/altera/12.0/nios2eds/bin/gnu/h-i686-mingw32/bin/../lib/gcc/nios2-elf/4.1.2/../../../../nios2-elf/lib\libc.a(lib_a-lseekr.o)
 .debug_abbrev  0x000066f6      0x17f c:/altera/12.0/nios2eds/bin/gnu/h-i686-mingw32/bin/../lib/gcc/nios2-elf/4.1.2/../../../../nios2-elf/lib\libc.a(lib_a-mbrtowc.o)
 .debug_abbrev  0x00006875      0x18a c:/altera/12.0/nios2eds/bin/gnu/h-i686-mingw32/bin/../lib/gcc/nios2-elf/4.1.2/../../../../nios2-elf/lib\libc.a(lib_a-mbtowc_r.o)
 .debug_abbrev  0x000069ff       0xb5 c:/altera/12.0/nios2eds/bin/gnu/h-i686-mingw32/bin/../lib/gcc/nios2-elf/4.1.2/../../../../nios2-elf/lib\libc.a(lib_a-memchr.o)
 .debug_abbrev  0x00006ab4       0x7c c:/altera/12.0/nios2eds/bin/gnu/h-i686-mingw32/bin/../lib/gcc/nios2-elf/4.1.2/../../../../nios2-elf/lib\libc.a(lib_a-memcmp.o)
 .debug_abbrev  0x00006b30      0x297 c:/altera/12.0/nios2eds/bin/gnu/h-i686-mingw32/bin/../lib/gcc/nios2-elf/4.1.2/../../../../nios2-elf/lib\libc.a(lib_a-mprec.o)
 .debug_abbrev  0x00006dc7      0x17f c:/altera/12.0/nios2eds/bin/gnu/h-i686-mingw32/bin/../lib/gcc/nios2-elf/4.1.2/../../../../nios2-elf/lib\libc.a(lib_a-readr.o)
 .debug_abbrev  0x00006f46      0x1c3 c:/altera/12.0/nios2eds/bin/gnu/h-i686-mingw32/bin/../lib/gcc/nios2-elf/4.1.2/../../../../nios2-elf/lib\libc.a(lib_a-reallocr.o)
 .debug_abbrev  0x00007109       0x79 c:/altera/12.0/nios2eds/bin/gnu/h-i686-mingw32/bin/../lib/gcc/nios2-elf/4.1.2/../../../../nios2-elf/lib\libc.a(lib_a-s_isinfd.o)
 .debug_abbrev  0x00007182       0x79 c:/altera/12.0/nios2eds/bin/gnu/h-i686-mingw32/bin/../lib/gcc/nios2-elf/4.1.2/../../../../nios2-elf/lib\libc.a(lib_a-s_isnand.o)
 .debug_abbrev  0x000071fb       0x93 c:/altera/12.0/nios2eds/bin/gnu/h-i686-mingw32/bin/../lib/gcc/nios2-elf/4.1.2/../../../../nios2-elf/lib\libc.a(lib_a-sccl.o)
 .debug_abbrev  0x0000728e       0x6d c:/altera/12.0/nios2eds/bin/gnu/h-i686-mingw32/bin/../lib/gcc/nios2-elf/4.1.2/../../../../nios2-elf/lib\libc.a(lib_a-sf_nan.o)
 .debug_abbrev  0x000072fb      0x2e8 c:/altera/12.0/nios2eds/bin/gnu/h-i686-mingw32/bin/../lib/gcc/nios2-elf/4.1.2/../../../../nios2-elf/lib\libc.a(lib_a-strtod.o)
 .debug_abbrev  0x000075e3      0x18e c:/altera/12.0/nios2eds/bin/gnu/h-i686-mingw32/bin/../lib/gcc/nios2-elf/4.1.2/../../../../nios2-elf/lib\libc.a(lib_a-strtoll_r.o)
 .debug_abbrev  0x00007771      0x1c5 c:/altera/12.0/nios2eds/bin/gnu/h-i686-mingw32/bin/../lib/gcc/nios2-elf/4.1.2/../../../../nios2-elf/lib\libc.a(lib_a-strtoul.o)
 .debug_abbrev  0x00007936      0x18c c:/altera/12.0/nios2eds/bin/gnu/h-i686-mingw32/bin/../lib/gcc/nios2-elf/4.1.2/../../../../nios2-elf/lib\libc.a(lib_a-strtoull_r.o)
 .debug_abbrev  0x00007ac2      0x1a7 c:/altera/12.0/nios2eds/bin/gnu/h-i686-mingw32/bin/../lib/gcc/nios2-elf/4.1.2/../../../../nios2-elf/lib\libc.a(lib_a-ungetc.o)
 .debug_abbrev  0x00007c69      0x1b8 c:/altera/12.0/nios2eds/bin/gnu/h-i686-mingw32/bin/../lib/gcc/nios2-elf/4.1.2/../../../../nios2-elf/lib\libc.a(lib_a-callocr.o)
 .debug_abbrev  0x00007e21      0x273 c:/altera/12.0/nios2eds/bin/gnu/h-i686-mingw32/bin/../lib/gcc/nios2-elf/4.1.2/../../../../nios2-elf/lib\libc.a(lib_a-gdtoa-gethex.o)
 .debug_abbrev  0x00008094      0x117 c:/altera/12.0/nios2eds/bin/gnu/h-i686-mingw32/bin/../lib/gcc/nios2-elf/4.1.2/../../../../nios2-elf/lib\libc.a(lib_a-gdtoa-hexnan.o)
 .debug_abbrev  0x000081ab       0xee c:/altera/12.0/nios2eds/bin/gnu/h-i686-mingw32/bin/../lib/gcc/nios2-elf/4.1.2\libgcc.a(_muldi3.o)
 .debug_abbrev  0x00008299       0x5d c:/altera/12.0/nios2eds/bin/gnu/h-i686-mingw32/bin/../lib/gcc/nios2-elf/4.1.2\libgcc.a(_fixunsdfsi.o)
 .debug_abbrev  0x000082f6      0x16b c:/altera/12.0/nios2eds/bin/gnu/h-i686-mingw32/bin/../lib/gcc/nios2-elf/4.1.2\libgcc.a(_udivdi3.o)
 .debug_abbrev  0x00008461      0x18e c:/altera/12.0/nios2eds/bin/gnu/h-i686-mingw32/bin/../lib/gcc/nios2-elf/4.1.2\libgcc.a(_umoddi3.o)
 .debug_abbrev  0x000085ef      0x151 c:/altera/12.0/nios2eds/bin/gnu/h-i686-mingw32/bin/../lib/gcc/nios2-elf/4.1.2\libgcc.a(_ne_sf.o)
 .debug_abbrev  0x00008740      0x151 c:/altera/12.0/nios2eds/bin/gnu/h-i686-mingw32/bin/../lib/gcc/nios2-elf/4.1.2\libgcc.a(_gt_sf.o)
 .debug_abbrev  0x00008891      0x151 c:/altera/12.0/nios2eds/bin/gnu/h-i686-mingw32/bin/../lib/gcc/nios2-elf/4.1.2\libgcc.a(_lt_sf.o)
 .debug_abbrev  0x000089e2      0x1d2 c:/altera/12.0/nios2eds/bin/gnu/h-i686-mingw32/bin/../lib/gcc/nios2-elf/4.1.2\libgcc.a(_addsub_df.o)
 .debug_abbrev  0x00008bb4      0x204 c:/altera/12.0/nios2eds/bin/gnu/h-i686-mingw32/bin/../lib/gcc/nios2-elf/4.1.2\libgcc.a(_mul_df.o)
 .debug_abbrev  0x00008db8      0x1e3 c:/altera/12.0/nios2eds/bin/gnu/h-i686-mingw32/bin/../lib/gcc/nios2-elf/4.1.2\libgcc.a(_div_df.o)
 .debug_abbrev  0x00008f9b      0x151 c:/altera/12.0/nios2eds/bin/gnu/h-i686-mingw32/bin/../lib/gcc/nios2-elf/4.1.2\libgcc.a(_eq_df.o)
 .debug_abbrev  0x000090ec      0x151 c:/altera/12.0/nios2eds/bin/gnu/h-i686-mingw32/bin/../lib/gcc/nios2-elf/4.1.2\libgcc.a(_ne_df.o)
 .debug_abbrev  0x0000923d      0x151 c:/altera/12.0/nios2eds/bin/gnu/h-i686-mingw32/bin/../lib/gcc/nios2-elf/4.1.2\libgcc.a(_gt_df.o)
 .debug_abbrev  0x0000938e      0x151 c:/altera/12.0/nios2eds/bin/gnu/h-i686-mingw32/bin/../lib/gcc/nios2-elf/4.1.2\libgcc.a(_ge_df.o)
 .debug_abbrev  0x000094df      0x151 c:/altera/12.0/nios2eds/bin/gnu/h-i686-mingw32/bin/../lib/gcc/nios2-elf/4.1.2\libgcc.a(_lt_df.o)
 .debug_abbrev  0x00009630      0x151 c:/altera/12.0/nios2eds/bin/gnu/h-i686-mingw32/bin/../lib/gcc/nios2-elf/4.1.2\libgcc.a(_le_df.o)
 .debug_abbrev  0x00009781      0x13f c:/altera/12.0/nios2eds/bin/gnu/h-i686-mingw32/bin/../lib/gcc/nios2-elf/4.1.2\libgcc.a(_si_to_df.o)
 .debug_abbrev  0x000098c0      0x176 c:/altera/12.0/nios2eds/bin/gnu/h-i686-mingw32/bin/../lib/gcc/nios2-elf/4.1.2\libgcc.a(_df_to_si.o)
 .debug_abbrev  0x00009a36      0x137 c:/altera/12.0/nios2eds/bin/gnu/h-i686-mingw32/bin/../lib/gcc/nios2-elf/4.1.2\libgcc.a(_df_to_sf.o)
 .debug_abbrev  0x00009b6d       0xba c:/altera/12.0/nios2eds/bin/gnu/h-i686-mingw32/bin/../lib/gcc/nios2-elf/4.1.2\libgcc.a(_thenan_df.o)
 .debug_abbrev  0x00009c27      0x155 c:/altera/12.0/nios2eds/bin/gnu/h-i686-mingw32/bin/../lib/gcc/nios2-elf/4.1.2\libgcc.a(_usi_to_df.o)
 .debug_abbrev  0x00009d7c       0x61 c:/altera/12.0/nios2eds/bin/gnu/h-i686-mingw32/bin/../lib/gcc/nios2-elf/4.1.2\libgcc.a(_clz.o)
 .debug_abbrev  0x00009ddd       0xb9 c:/altera/12.0/nios2eds/bin/gnu/h-i686-mingw32/bin/../lib/gcc/nios2-elf/4.1.2\libgcc.a(_clzsi2.o)
 .debug_abbrev  0x00009e96      0x158 c:/altera/12.0/nios2eds/bin/gnu/h-i686-mingw32/bin/../lib/gcc/nios2-elf/4.1.2\libgcc.a(_unpack_sf.o)
 .debug_abbrev  0x00009fee      0x132 c:/altera/12.0/nios2eds/bin/gnu/h-i686-mingw32/bin/../lib/gcc/nios2-elf/4.1.2\libgcc.a(_fpcmp_parts_sf.o)
 .debug_abbrev  0x0000a120      0x100 c:/altera/12.0/nios2eds/bin/gnu/h-i686-mingw32/bin/../lib/gcc/nios2-elf/4.1.2\libgcc.a(_make_sf.o)
 .debug_abbrev  0x0000a220      0x1b1 c:/altera/12.0/nios2eds/bin/gnu/h-i686-mingw32/bin/../lib/gcc/nios2-elf/4.1.2\libgcc.a(_pack_df.o)
 .debug_abbrev  0x0000a3d1      0x149 c:/altera/12.0/nios2eds/bin/gnu/h-i686-mingw32/bin/../lib/gcc/nios2-elf/4.1.2\libgcc.a(_unpack_df.o)
 .debug_abbrev  0x0000a51a      0x132 c:/altera/12.0/nios2eds/bin/gnu/h-i686-mingw32/bin/../lib/gcc/nios2-elf/4.1.2\libgcc.a(_fpcmp_parts_df.o)
 .debug_abbrev  0x0000a64c      0x1aa c:/altera/12.0/nios2eds/bin/gnu/h-i686-mingw32/bin/../lib/gcc/nios2-elf/4.1.2\libgcc.a(_pack_sf.o)
 .debug_abbrev  0x0000a7f6       0x7a ../web_server_bsp/\libucosii_bsp.a(alt_dcache_flush.o)
 .debug_abbrev  0x0000a870      0x128 ../web_server_bsp/\libucosii_bsp.a(alt_flash_dev.o)
 .debug_abbrev  0x0000a998      0x102 ../web_server_bsp/\libucosii_bsp.a(alt_fstat.o)
 .debug_abbrev  0x0000aa9a      0x102 ../web_server_bsp/\libucosii_bsp.a(alt_isatty.o)
 .debug_abbrev  0x0000ab9c       0x88 ../web_server_bsp/\libucosii_bsp.a(alt_load.o)
 .debug_abbrev  0x0000ac24      0x102 ../web_server_bsp/\libucosii_bsp.a(alt_lseek.o)
 .debug_abbrev  0x0000ad26      0x120 ../web_server_bsp/\libucosii_bsp.a(alt_main.o)
 .debug_abbrev  0x0000ae46      0x119 ../web_server_bsp/\libucosii_bsp.a(alt_open.o)
 .debug_abbrev  0x0000af5f       0xd3 ../web_server_bsp/\libucosii_bsp.a(alt_release_fd.o)
 .debug_abbrev  0x0000b032      0x115 ../web_server_bsp/\libucosii_bsp.a(alt_sbrk.o)
 .debug_abbrev  0x0000b147      0x150 ../web_server_bsp/\libucosii_bsp.a(alt_tick.o)
 .debug_abbrev  0x0000b297       0xb7 ../web_server_bsp/\libucosii_bsp.a(alt_usleep.o)
 .debug_abbrev  0x0000b34e      0x1b3 ../web_server_bsp/\libucosii_bsp.a(alt_env_lock.o)
 .debug_abbrev  0x0000b501      0x234 ../web_server_bsp/\libucosii_bsp.a(alt_malloc_lock.o)
 .debug_abbrev  0x0000b735      0x2aa ../web_server_bsp/\libucosii_bsp.a(os_core.o)
 .debug_abbrev  0x0000b9df      0x114 ../web_server_bsp/\libucosii_bsp.a(os_dbg.o)
 .debug_abbrev  0x0000baf3      0x21b ../web_server_bsp/\libucosii_bsp.a(os_flag.o)
 .debug_abbrev  0x0000bd0e      0x1f6 ../web_server_bsp/\libucosii_bsp.a(os_mbox.o)
 .debug_abbrev  0x0000bf04      0x235 ../web_server_bsp/\libucosii_bsp.a(os_mem.o)
 .debug_abbrev  0x0000c139      0x20d ../web_server_bsp/\libucosii_bsp.a(os_q.o)
 .debug_abbrev  0x0000c346      0x20d ../web_server_bsp/\libucosii_bsp.a(os_sem.o)
 .debug_abbrev  0x0000c553      0x20e ../web_server_bsp/\libucosii_bsp.a(os_task.o)
 .debug_abbrev  0x0000c761      0x1de ../web_server_bsp/\libucosii_bsp.a(os_time.o)
 .debug_abbrev  0x0000c93f      0x1fa ../web_server_bsp/\libucosii_bsp.a(alt_sys_init.o)
 .debug_abbrev  0x0000cb39      0x1bf ../web_server_bsp/\libucosii_bsp.a(altera_avalon_cfi_flash.o)
 .debug_abbrev  0x0000ccf8      0x185 ../web_server_bsp/\libucosii_bsp.a(altera_avalon_cfi_flash_table.o)
 .debug_abbrev  0x0000ce7d      0x13c ../web_server_bsp/\libucosii_bsp.a(altera_avalon_jtag_uart_fd.o)
 .debug_abbrev  0x0000cfb9      0x21e ../web_server_bsp/\libucosii_bsp.a(altera_avalon_jtag_uart_init.o)
 .debug_abbrev  0x0000d1d7      0x135 ../web_server_bsp/\libucosii_bsp.a(altera_avalon_jtag_uart_ioctl.o)
 .debug_abbrev  0x0000d30c      0x1ee ../web_server_bsp/\libucosii_bsp.a(altera_avalon_jtag_uart_read.o)
 .debug_abbrev  0x0000d4fa      0x1ea ../web_server_bsp/\libucosii_bsp.a(altera_avalon_jtag_uart_write.o)
 .debug_abbrev  0x0000d6e4      0x235 ../web_server_bsp/\libucosii_bsp.a(altera_avalon_lcd_16207.o)
 .debug_abbrev  0x0000d919      0x12f ../web_server_bsp/\libucosii_bsp.a(altera_avalon_lcd_16207_fd.o)
 .debug_abbrev  0x0000da48      0x23a ../web_server_bsp/\libucosii_bsp.a(altera_avalon_sgdma.o)
 .debug_abbrev  0x0000dc82      0x137 ../web_server_bsp/\libucosii_bsp.a(altera_avalon_timer_sc.o)
 .debug_abbrev  0x0000ddb9      0x229 ../web_server_bsp/\libucosii_bsp.a(altera_avalon_tse.o)
 .debug_abbrev  0x0000dfe2      0x124 ../web_server_bsp/\libucosii_bsp.a(altera_avalon_uart_fd.o)
 .debug_abbrev  0x0000e106      0x204 ../web_server_bsp/\libucosii_bsp.a(altera_avalon_uart_init.o)
 .debug_abbrev  0x0000e30a      0x1b9 ../web_server_bsp/\libucosii_bsp.a(altera_avalon_uart_read.o)
 .debug_abbrev  0x0000e4c3      0x1c0 ../web_server_bsp/\libucosii_bsp.a(altera_avalon_uart_write.o)
 .debug_abbrev  0x0000e683      0x20a ../web_server_bsp/\libucosii_bsp.a(altera_ro_zipfs.o)
 .debug_abbrev  0x0000e88d      0x299 ../web_server_bsp/\libucosii_bsp.a(ins_tse_mac.o)
 .debug_abbrev  0x0000eb26       0x77 ../web_server_bsp/\libucosii_bsp.a(alt_iniche_close.o)
 .debug_abbrev  0x0000eb9d      0x11f ../web_server_bsp/\libucosii_bsp.a(alt_iniche_dev.o)
 .debug_abbrev  0x0000ecbc       0x7e ../web_server_bsp/\libucosii_bsp.a(alt_iniche_read.o)
 .debug_abbrev  0x0000ed3a       0x85 ../web_server_bsp/\libucosii_bsp.a(alt_iniche_write.o)
 .debug_abbrev  0x0000edbf      0x184 ../web_server_bsp/\libucosii_bsp.a(ipnet.o)
 .debug_abbrev  0x0000ef43      0x18b ../web_server_bsp/\libucosii_bsp.a(ipstart.o)
 .debug_abbrev  0x0000f0ce      0x191 ../web_server_bsp/\libucosii_bsp.a(igmp_cmn.o)
 .debug_abbrev  0x0000f25f      0x1a3 ../web_server_bsp/\libucosii_bsp.a(bsdsock.o)
 .debug_abbrev  0x0000f402       0x96 ../web_server_bsp/\libucosii_bsp.a(cksum.o)
 .debug_abbrev  0x0000f498      0x18b ../web_server_bsp/\libucosii_bsp.a(in_utils.o)
 .debug_abbrev  0x0000f623      0x152 ../web_server_bsp/\libucosii_bsp.a(netmain.o)
 .debug_abbrev  0x0000f775      0x144 ../web_server_bsp/\libucosii_bsp.a(tk_crnos.o)
 .debug_abbrev  0x0000f8b9      0x217 ../web_server_bsp/\libucosii_bsp.a(dhcpclnt.o)
 .debug_abbrev  0x0000fad0       0x8f ../web_server_bsp/\libucosii_bsp.a(dhcputil.o)
 .debug_abbrev  0x0000fb5f      0x196 ../web_server_bsp/\libucosii_bsp.a(pktalloc.o)
 .debug_abbrev  0x0000fcf5       0xcb ../web_server_bsp/\libucosii_bsp.a(q.o)
 .debug_abbrev  0x0000fdc0      0x144 ../web_server_bsp/\libucosii_bsp.a(udp_open.o)
 .debug_abbrev  0x0000ff04       0x14 ../web_server_bsp/\libucosii_bsp.a(asm_cksum.o)
 .debug_abbrev  0x0000ff18      0x242 ../web_server_bsp/\libucosii_bsp.a(brdutils.o)
 .debug_abbrev  0x0001015a      0x194 ../web_server_bsp/\libucosii_bsp.a(osportco.o)
 .debug_abbrev  0x000102ee      0x199 ../web_server_bsp/\libucosii_bsp.a(targnios.o)
 .debug_abbrev  0x00010487      0x1dc ../web_server_bsp/\libucosii_bsp.a(nptcp.o)
 .debug_abbrev  0x00010663      0x136 ../web_server_bsp/\libucosii_bsp.a(rawsock.o)
 .debug_abbrev  0x00010799      0x1de ../web_server_bsp/\libucosii_bsp.a(sockcall.o)
 .debug_abbrev  0x00010977      0x1ef ../web_server_bsp/\libucosii_bsp.a(socket.o)
 .debug_abbrev  0x00010b66      0x1ac ../web_server_bsp/\libucosii_bsp.a(socket2.o)
 .debug_abbrev  0x00010d12      0x17f ../web_server_bsp/\libucosii_bsp.a(soselect.o)
 .debug_abbrev  0x00010e91      0x1ca ../web_server_bsp/\libucosii_bsp.a(tcp_in.o)
 .debug_abbrev  0x0001105b      0x1a4 ../web_server_bsp/\libucosii_bsp.a(tcp_out.o)
 .debug_abbrev  0x000111ff      0x1c3 ../web_server_bsp/\libucosii_bsp.a(tcp_subr.o)
 .debug_abbrev  0x000113c2      0x19e ../web_server_bsp/\libucosii_bsp.a(tcp_timr.o)
 .debug_abbrev  0x00011560      0x175 ../web_server_bsp/\libucosii_bsp.a(tcp_usr.o)
 .debug_abbrev  0x000116d5       0x77 ../web_server_bsp/\libucosii_bsp.a(tcpport.o)
 .debug_abbrev  0x0001174c      0x190 ../web_server_bsp/\libucosii_bsp.a(udpsock.o)
 .debug_abbrev  0x000118dc      0x172 ../web_server_bsp/\libucosii_bsp.a(alt_alarm_start.o)
 .debug_abbrev  0x00011a4e       0x6c ../web_server_bsp/\libucosii_bsp.a(alt_busy_sleep.o)
 .debug_abbrev  0x00011aba      0x102 ../web_server_bsp/\libucosii_bsp.a(alt_close.o)
 .debug_abbrev  0x00011bbc       0x57 ../web_server_bsp/\libucosii_bsp.a(alt_dcache_flush_all.o)
 .debug_abbrev  0x00011c13      0x10a ../web_server_bsp/\libucosii_bsp.a(alt_dev.o)
 .debug_abbrev  0x00011d1d       0xf6 ../web_server_bsp/\libucosii_bsp.a(alt_dev_llist_insert.o)
 .debug_abbrev  0x00011e13       0x76 ../web_server_bsp/\libucosii_bsp.a(alt_do_ctors.o)
 .debug_abbrev  0x00011e89       0x76 ../web_server_bsp/\libucosii_bsp.a(alt_do_dtors.o)
 .debug_abbrev  0x00011eff       0x5e ../web_server_bsp/\libucosii_bsp.a(alt_errno.o)
 .debug_abbrev  0x00011f5d       0xd6 ../web_server_bsp/\libucosii_bsp.a(alt_find_dev.o)
 .debug_abbrev  0x00012033       0xd6 ../web_server_bsp/\libucosii_bsp.a(alt_find_file.o)
 .debug_abbrev  0x00012109       0xf4 ../web_server_bsp/\libucosii_bsp.a(alt_fs_reg.o)
 .debug_abbrev  0x000121fd      0x173 ../web_server_bsp/\libucosii_bsp.a(alt_get_fd.o)
 .debug_abbrev  0x00012370       0x3f ../web_server_bsp/\libucosii_bsp.a(alt_icache_flush_all.o)
 .debug_abbrev  0x000123af      0x134 ../web_server_bsp/\libucosii_bsp.a(alt_iic.o)
 .debug_abbrev  0x000124e3      0x14e ../web_server_bsp/\libucosii_bsp.a(alt_iic_isr_register.o)
 .debug_abbrev  0x00012631       0xf7 ../web_server_bsp/\libucosii_bsp.a(alt_io_redirect.o)
 .debug_abbrev  0x00012728       0x12 ../web_server_bsp/\libucosii_bsp.a(alt_irq_entry.o)
 .debug_abbrev  0x0001273a      0x124 ../web_server_bsp/\libucosii_bsp.a(alt_irq_handler.o)
 .debug_abbrev  0x0001285e       0x44 ../web_server_bsp/\libucosii_bsp.a(alt_irq_vars.o)
 .debug_abbrev  0x000128a2      0x102 ../web_server_bsp/\libucosii_bsp.a(alt_read.o)
 .debug_abbrev  0x000129a4       0x74 ../web_server_bsp/\libucosii_bsp.a(alt_remap_cached.o)
 .debug_abbrev  0x00012a18       0x74 ../web_server_bsp/\libucosii_bsp.a(alt_remap_uncached.o)
 .debug_abbrev  0x00012a8c       0x83 ../web_server_bsp/\libucosii_bsp.a(alt_uncached_malloc.o)
 .debug_abbrev  0x00012b0f      0x107 ../web_server_bsp/\libucosii_bsp.a(alt_write.o)
 .debug_abbrev  0x00012c16       0x3f ../web_server_bsp/\libucosii_bsp.a(altera_nios2_qsys_irq.o)
 .debug_abbrev  0x00012c55       0x14 ../web_server_bsp/\libucosii_bsp.a(os_cpu_a.o)
 .debug_abbrev  0x00012c69      0x1d0 ../web_server_bsp/\libucosii_bsp.a(os_cpu_c.o)
 .debug_abbrev  0x00012e39      0x14d ../web_server_bsp/\libucosii_bsp.a(altera_avalon_cfi_flash_amd.o)
 .debug_abbrev  0x00012f86      0x14d ../web_server_bsp/\libucosii_bsp.a(altera_avalon_cfi_flash_intel.o)
 .debug_abbrev  0x000130d3      0x173 ../web_server_bsp/\libucosii_bsp.a(allports.o)
 .debug_abbrev  0x00013246      0x151 ../web_server_bsp/\libucosii_bsp.a(timeouts.o)
 .debug_abbrev  0x00013397       0xa4 ../web_server_bsp/\libucosii_bsp.a(tk_misc.o)
 .debug_abbrev  0x0001343b       0x92 ../web_server_bsp/\libucosii_bsp.a(alt_iniche_fcntl.o)
 .debug_abbrev  0x000134cd      0x1eb ../web_server_bsp/\libucosii_bsp.a(et_arp.o)
 .debug_abbrev  0x000136b8      0x13d ../web_server_bsp/\libucosii_bsp.a(iface.o)
 .debug_abbrev  0x000137f5      0x1ed ../web_server_bsp/\libucosii_bsp.a(ip.o)
 .debug_abbrev  0x000139e2      0x1ca ../web_server_bsp/\libucosii_bsp.a(ip_reasm.o)
 .debug_abbrev  0x00013bac      0x166 ../web_server_bsp/\libucosii_bsp.a(ipdemux.o)
 .debug_abbrev  0x00013d12      0x114 ../web_server_bsp/\libucosii_bsp.a(ipmc.o)
 .debug_abbrev  0x00013e26       0xe9 ../web_server_bsp/\libucosii_bsp.a(ipport.o)
 .debug_abbrev  0x00013f0f      0x19c ../web_server_bsp/\libucosii_bsp.a(ipraw.o)
 .debug_abbrev  0x000140ab      0x156 ../web_server_bsp/\libucosii_bsp.a(iproute.o)
 .debug_abbrev  0x00014201      0x1c0 ../web_server_bsp/\libucosii_bsp.a(udp.o)
 .debug_abbrev  0x000143c1      0x10e ../web_server_bsp/\libucosii_bsp.a(igmp.o)
 .debug_abbrev  0x000144cf      0x17a ../web_server_bsp/\libucosii_bsp.a(igmp2.o)
 .debug_abbrev  0x00014649      0x189 ../web_server_bsp/\libucosii_bsp.a(ipopt.o)
 .debug_abbrev  0x000147d2      0x15a ../web_server_bsp/\libucosii_bsp.a(u_mctest.o)
 .debug_abbrev  0x0001492c      0x12e ../web_server_bsp/\libucosii_bsp.a(dhcsetup.o)
 .debug_abbrev  0x00014a5a      0x175 ../web_server_bsp/\libucosii_bsp.a(memdev.o)
 .debug_abbrev  0x00014bcf      0x154 ../web_server_bsp/\libucosii_bsp.a(parseip.o)
 .debug_abbrev  0x00014d23       0xad ../web_server_bsp/\libucosii_bsp.a(tcpcksum.o)
 .debug_abbrev  0x00014dd0      0x19f ../web_server_bsp/\libucosii_bsp.a(in_pcb.o)
 .debug_abbrev  0x00014f6f      0x1b6 ../web_server_bsp/\libucosii_bsp.a(vfsfiles.o)
 .debug_abbrev  0x00015125       0x77 ../web_server_bsp/\libucosii_bsp.a(vfsport.o)
 .debug_abbrev  0x0001519c       0x12 ../web_server_bsp/\libucosii_bsp.a(alt_exception_entry.o)
 .debug_abbrev  0x000151ae      0x107 ../web_server_bsp/\libucosii_bsp.a(alt_fcntl.o)
 .debug_abbrev  0x000152b5       0x7a ../web_server_bsp/\libucosii_bsp.a(alt_icache_flush.o)
 .debug_abbrev  0x0001532f      0x15d ../web_server_bsp/\libucosii_bsp.a(icmp.o)
 .debug_abbrev  0x0001548c       0xb7 c:/altera/12.0/nios2eds/bin/gnu/h-i686-mingw32/bin/../lib/gcc/nios2-elf/4.1.2/../../../../nios2-elf/lib\libc.a(lib_a-atexit.o)
 .debug_abbrev  0x00015543      0x17f c:/altera/12.0/nios2eds/bin/gnu/h-i686-mingw32/bin/../lib/gcc/nios2-elf/4.1.2/../../../../nios2-elf/lib\libc.a(lib_a-calloc.o)
 .debug_abbrev  0x000156c2      0x16e c:/altera/12.0/nios2eds/bin/gnu/h-i686-mingw32/bin/../lib/gcc/nios2-elf/4.1.2/../../../../nios2-elf/lib\libc.a(lib_a-exit.o)
 .debug_abbrev  0x00015830      0x187 c:/altera/12.0/nios2eds/bin/gnu/h-i686-mingw32/bin/../lib/gcc/nios2-elf/4.1.2/../../../../nios2-elf/lib\libc.a(lib_a-malloc.o)
 .debug_abbrev  0x000159b7      0x170 c:/altera/12.0/nios2eds/bin/gnu/h-i686-mingw32/bin/../lib/gcc/nios2-elf/4.1.2/../../../../nios2-elf/lib\libc.a(lib_a-vprintf.o)
 .debug_abbrev  0x00015b27      0x1a5 c:/altera/12.0/nios2eds/bin/gnu/h-i686-mingw32/bin/../lib/gcc/nios2-elf/4.1.2/../../../../nios2-elf/lib\libc.a(lib_a-vsprintf.o)
 .debug_abbrev  0x00015ccc      0x1ae c:/altera/12.0/nios2eds/bin/gnu/h-i686-mingw32/bin/../lib/gcc/nios2-elf/4.1.2/../../../../nios2-elf/lib\libc.a(lib_a-__atexit.o)
 .debug_abbrev  0x00015e7a      0x1de c:/altera/12.0/nios2eds/bin/gnu/h-i686-mingw32/bin/../lib/gcc/nios2-elf/4.1.2/../../../../nios2-elf/lib\libc.a(lib_a-__call_atexit.o)
 .debug_abbrev  0x00016058       0xaa ../web_server_bsp/\libucosii_bsp.a(alt_exit.o)

.debug_line     0x00000000    0x4db96
 *(.debug_line)
 .debug_line    0x00000000       0x72 ../web_server_bsp//obj/HAL/src/crt0.o
 .debug_line    0x00000072      0x4c6 obj/default/alt_error_handler.o
 .debug_line    0x00000538     0x143f obj/default/http.o
 .debug_line    0x00001977      0x7bf obj/default/network_utilities.o
 .debug_line    0x00002136      0x6a7 obj/default/srec_flash.o
 .debug_line    0x000027dd      0x36c obj/default/tse_my_system.o
 .debug_line    0x00002b49      0x6ad obj/default/web_server.o
 .debug_line    0x000031f6      0x24f c:/altera/12.0/nios2eds/bin/gnu/h-i686-mingw32/bin/../lib/gcc/nios2-elf/4.1.2\libgcc.a(lib2-divmod.o)
 .debug_line    0x00003445      0x204 c:/altera/12.0/nios2eds/bin/gnu/h-i686-mingw32/bin/../lib/gcc/nios2-elf/4.1.2/../../../../nios2-elf/lib\libc.a(lib_a-atoi.o)
 .debug_line    0x00003649       0x7e c:/altera/12.0/nios2eds/bin/gnu/h-i686-mingw32/bin/../lib/gcc/nios2-elf/4.1.2/../../../../nios2-elf/lib\libc.a(lib_a-ctype_.o)
 .debug_line    0x000036c7      0x2e2 c:/altera/12.0/nios2eds/bin/gnu/h-i686-mingw32/bin/../lib/gcc/nios2-elf/4.1.2/../../../../nios2-elf/lib\libc.a(lib_a-fclose.o)
 .debug_line    0x000039a9      0x407 c:/altera/12.0/nios2eds/bin/gnu/h-i686-mingw32/bin/../lib/gcc/nios2-elf/4.1.2/../../../../nios2-elf/lib\libc.a(lib_a-fflush.o)
 .debug_line    0x00003db0      0x253 c:/altera/12.0/nios2eds/bin/gnu/h-i686-mingw32/bin/../lib/gcc/nios2-elf/4.1.2/../../../../nios2-elf/lib\libc.a(lib_a-fgetpos.o)
 .debug_line    0x00004003      0x5fb c:/altera/12.0/nios2eds/bin/gnu/h-i686-mingw32/bin/../lib/gcc/nios2-elf/4.1.2/../../../../nios2-elf/lib\libc.a(lib_a-findfp.o)
 .debug_line    0x000045fe      0x33c c:/altera/12.0/nios2eds/bin/gnu/h-i686-mingw32/bin/../lib/gcc/nios2-elf/4.1.2/../../../../nios2-elf/lib\libc.a(lib_a-fopen.o)
 .debug_line    0x0000493a      0x27e c:/altera/12.0/nios2eds/bin/gnu/h-i686-mingw32/bin/../lib/gcc/nios2-elf/4.1.2/../../../../nios2-elf/lib\libc.a(lib_a-fprintf.o)
 .debug_line    0x00004bb8      0x450 c:/altera/12.0/nios2eds/bin/gnu/h-i686-mingw32/bin/../lib/gcc/nios2-elf/4.1.2/../../../../nios2-elf/lib\libc.a(lib_a-fread.o)
 .debug_line    0x00005008      0x5e5 c:/altera/12.0/nios2eds/bin/gnu/h-i686-mingw32/bin/../lib/gcc/nios2-elf/4.1.2/../../../../nios2-elf/lib\libc.a(lib_a-freer.o)
 .debug_line    0x000055ed      0x5a5 c:/altera/12.0/nios2eds/bin/gnu/h-i686-mingw32/bin/../lib/gcc/nios2-elf/4.1.2/../../../../nios2-elf/lib\libc.a(lib_a-fseek.o)
 .debug_line    0x00005b92      0x25e c:/altera/12.0/nios2eds/bin/gnu/h-i686-mingw32/bin/../lib/gcc/nios2-elf/4.1.2/../../../../nios2-elf/lib\libc.a(lib_a-fstatr.o)
 .debug_line    0x00005df0      0x2e4 c:/altera/12.0/nios2eds/bin/gnu/h-i686-mingw32/bin/../lib/gcc/nios2-elf/4.1.2/../../../../nios2-elf/lib\libc.a(lib_a-ftell.o)
 .debug_line    0x000060d4      0x344 c:/altera/12.0/nios2eds/bin/gnu/h-i686-mingw32/bin/../lib/gcc/nios2-elf/4.1.2/../../../../nios2-elf/lib\libc.a(lib_a-fwalk.o)
 .debug_line    0x00006418      0x2d3 c:/altera/12.0/nios2eds/bin/gnu/h-i686-mingw32/bin/../lib/gcc/nios2-elf/4.1.2/../../../../nios2-elf/lib\libc.a(lib_a-fwrite.o)
 .debug_line    0x000066eb      0x29e c:/altera/12.0/nios2eds/bin/gnu/h-i686-mingw32/bin/../lib/gcc/nios2-elf/4.1.2/../../../../nios2-elf/lib\libc.a(lib_a-getc.o)
 .debug_line    0x00006989      0x224 c:/altera/12.0/nios2eds/bin/gnu/h-i686-mingw32/bin/../lib/gcc/nios2-elf/4.1.2/../../../../nios2-elf/lib\libc.a(lib_a-impure.o)
 .debug_line    0x00006bad      0x1d9 c:/altera/12.0/nios2eds/bin/gnu/h-i686-mingw32/bin/../lib/gcc/nios2-elf/4.1.2/../../../../nios2-elf/lib\libc.a(lib_a-int_errno.o)
 .debug_line    0x00006d86      0x3bd c:/altera/12.0/nios2eds/bin/gnu/h-i686-mingw32/bin/../lib/gcc/nios2-elf/4.1.2/../../../../nios2-elf/lib\libc.a(lib_a-makebuf.o)
 .debug_line    0x00007143      0x804 c:/altera/12.0/nios2eds/bin/gnu/h-i686-mingw32/bin/../lib/gcc/nios2-elf/4.1.2/../../../../nios2-elf/lib\libc.a(lib_a-mallocr.o)
 .debug_line    0x00007947      0x1a9 c:/altera/12.0/nios2eds/bin/gnu/h-i686-mingw32/bin/../lib/gcc/nios2-elf/4.1.2/../../../../nios2-elf/lib\libc.a(lib_a-memcpy.o)
 .debug_line    0x00007af0      0x301 c:/altera/12.0/nios2eds/bin/gnu/h-i686-mingw32/bin/../lib/gcc/nios2-elf/4.1.2/../../../../nios2-elf/lib\libc.a(lib_a-memmove.o)
 .debug_line    0x00007df1      0x2f8 c:/altera/12.0/nios2eds/bin/gnu/h-i686-mingw32/bin/../lib/gcc/nios2-elf/4.1.2/../../../../nios2-elf/lib\libc.a(lib_a-memset.o)
 .debug_line    0x000080e9      0x275 c:/altera/12.0/nios2eds/bin/gnu/h-i686-mingw32/bin/../lib/gcc/nios2-elf/4.1.2/../../../../nios2-elf/lib\libc.a(lib_a-openr.o)
 .debug_line    0x0000835e      0x29e c:/altera/12.0/nios2eds/bin/gnu/h-i686-mingw32/bin/../lib/gcc/nios2-elf/4.1.2/../../../../nios2-elf/lib\libc.a(lib_a-perror.o)
 .debug_line    0x000085fc      0x295 c:/altera/12.0/nios2eds/bin/gnu/h-i686-mingw32/bin/../lib/gcc/nios2-elf/4.1.2/../../../../nios2-elf/lib\libc.a(lib_a-printf.o)
 .debug_line    0x00008891      0x2be c:/altera/12.0/nios2eds/bin/gnu/h-i686-mingw32/bin/../lib/gcc/nios2-elf/4.1.2/../../../../nios2-elf/lib\libc.a(lib_a-putc.o)
 .debug_line    0x00008b4f      0x25e c:/altera/12.0/nios2eds/bin/gnu/h-i686-mingw32/bin/../lib/gcc/nios2-elf/4.1.2/../../../../nios2-elf/lib\libc.a(lib_a-putchar.o)
 .debug_line    0x00008dad      0x2f1 c:/altera/12.0/nios2eds/bin/gnu/h-i686-mingw32/bin/../lib/gcc/nios2-elf/4.1.2/../../../../nios2-elf/lib\libc.a(lib_a-puts.o)
 .debug_line    0x0000909e      0x3be c:/altera/12.0/nios2eds/bin/gnu/h-i686-mingw32/bin/../lib/gcc/nios2-elf/4.1.2/../../../../nios2-elf/lib\libc.a(lib_a-refill.o)
 .debug_line    0x0000945c      0x287 c:/altera/12.0/nios2eds/bin/gnu/h-i686-mingw32/bin/../lib/gcc/nios2-elf/4.1.2/../../../../nios2-elf/lib\libc.a(lib_a-rget.o)
 .debug_line    0x000096e3      0x290 c:/altera/12.0/nios2eds/bin/gnu/h-i686-mingw32/bin/../lib/gcc/nios2-elf/4.1.2/../../../../nios2-elf/lib\libc.a(lib_a-sbrkr.o)
 .debug_line    0x00009973      0x31c c:/altera/12.0/nios2eds/bin/gnu/h-i686-mingw32/bin/../lib/gcc/nios2-elf/4.1.2/../../../../nios2-elf/lib\libc.a(lib_a-sprintf.o)
 .debug_line    0x00009c8f      0x35b c:/altera/12.0/nios2eds/bin/gnu/h-i686-mingw32/bin/../lib/gcc/nios2-elf/4.1.2/../../../../nios2-elf/lib\libc.a(lib_a-sscanf.o)
 .debug_line    0x00009fea      0x386 c:/altera/12.0/nios2eds/bin/gnu/h-i686-mingw32/bin/../lib/gcc/nios2-elf/4.1.2/../../../../nios2-elf/lib\libc.a(lib_a-stdio.o)
 .debug_line    0x0000a370      0x209 c:/altera/12.0/nios2eds/bin/gnu/h-i686-mingw32/bin/../lib/gcc/nios2-elf/4.1.2/../../../../nios2-elf/lib\libc.a(lib_a-strcasecmp.o)
 .debug_line    0x0000a579      0x286 c:/altera/12.0/nios2eds/bin/gnu/h-i686-mingw32/bin/../lib/gcc/nios2-elf/4.1.2/../../../../nios2-elf/lib\libc.a(lib_a-strcat.o)
 .debug_line    0x0000a7ff      0x2be c:/altera/12.0/nios2eds/bin/gnu/h-i686-mingw32/bin/../lib/gcc/nios2-elf/4.1.2/../../../../nios2-elf/lib\libc.a(lib_a-strchr.o)
 .debug_line    0x0000aabd      0x2cc c:/altera/12.0/nios2eds/bin/gnu/h-i686-mingw32/bin/../lib/gcc/nios2-elf/4.1.2/../../../../nios2-elf/lib\libc.a(lib_a-strcmp.o)
 .debug_line    0x0000ad89      0x27e c:/altera/12.0/nios2eds/bin/gnu/h-i686-mingw32/bin/../lib/gcc/nios2-elf/4.1.2/../../../../nios2-elf/lib\libc.a(lib_a-strcpy.o)
 .debug_line    0x0000b007      0x4db c:/altera/12.0/nios2eds/bin/gnu/h-i686-mingw32/bin/../lib/gcc/nios2-elf/4.1.2/../../../../nios2-elf/lib\libc.a(lib_a-strerror.o)
 .debug_line    0x0000b4e2      0x264 c:/altera/12.0/nios2eds/bin/gnu/h-i686-mingw32/bin/../lib/gcc/nios2-elf/4.1.2/../../../../nios2-elf/lib\libc.a(lib_a-strlen.o)
 .debug_line    0x0000b746      0x2f5 c:/altera/12.0/nios2eds/bin/gnu/h-i686-mingw32/bin/../lib/gcc/nios2-elf/4.1.2/../../../../nios2-elf/lib\libc.a(lib_a-strncmp.o)
 .debug_line    0x0000ba3b      0x2c7 c:/altera/12.0/nios2eds/bin/gnu/h-i686-mingw32/bin/../lib/gcc/nios2-elf/4.1.2/../../../../nios2-elf/lib\libc.a(lib_a-strncpy.o)
 .debug_line    0x0000bd02      0x6c7 c:/altera/12.0/nios2eds/bin/gnu/h-i686-mingw32/bin/../lib/gcc/nios2-elf/4.1.2/../../../../nios2-elf/lib\libc.a(lib_a-strstr.o)
 .debug_line    0x0000c3c9      0x247 c:/altera/12.0/nios2eds/bin/gnu/h-i686-mingw32/bin/../lib/gcc/nios2-elf/4.1.2/../../../../nios2-elf/lib\libc.a(lib_a-strtok.o)
 .debug_line    0x0000c610      0x302 c:/altera/12.0/nios2eds/bin/gnu/h-i686-mingw32/bin/../lib/gcc/nios2-elf/4.1.2/../../../../nios2-elf/lib\libc.a(lib_a-strtok_r.o)
 .debug_line    0x0000c912      0x3fd c:/altera/12.0/nios2eds/bin/gnu/h-i686-mingw32/bin/../lib/gcc/nios2-elf/4.1.2/../../../../nios2-elf/lib\libc.a(lib_a-strtol.o)
 .debug_line    0x0000cd0f       0x91 c:/altera/12.0/nios2eds/bin/gnu/h-i686-mingw32/bin/../lib/gcc/nios2-elf/4.1.2/../../../../nios2-elf/lib\libc.a(lib_a-u_strerr.o)
 .debug_line    0x0000cda0     0x1106 c:/altera/12.0/nios2eds/bin/gnu/h-i686-mingw32/bin/../lib/gcc/nios2-elf/4.1.2/../../../../nios2-elf/lib\libc.a(lib_a-vfprintf.o)
 .debug_line    0x0000dea6     0x1037 c:/altera/12.0/nios2eds/bin/gnu/h-i686-mingw32/bin/../lib/gcc/nios2-elf/4.1.2/../../../../nios2-elf/lib\libc.a(lib_a-vfscanf.o)
 .debug_line    0x0000eedd      0x34a c:/altera/12.0/nios2eds/bin/gnu/h-i686-mingw32/bin/../lib/gcc/nios2-elf/4.1.2/../../../../nios2-elf/lib\libc.a(lib_a-wbuf.o)
 .debug_line    0x0000f227      0x291 c:/altera/12.0/nios2eds/bin/gnu/h-i686-mingw32/bin/../lib/gcc/nios2-elf/4.1.2/../../../../nios2-elf/lib\libc.a(lib_a-writer.o)
 .debug_line    0x0000f4b8      0x2ea c:/altera/12.0/nios2eds/bin/gnu/h-i686-mingw32/bin/../lib/gcc/nios2-elf/4.1.2/../../../../nios2-elf/lib\libc.a(lib_a-wsetup.o)
 .debug_line    0x0000f7a2      0x291 c:/altera/12.0/nios2eds/bin/gnu/h-i686-mingw32/bin/../lib/gcc/nios2-elf/4.1.2/../../../../nios2-elf/lib\libc.a(lib_a-closer.o)
 .debug_line    0x0000fa33     0x12c0 c:/altera/12.0/nios2eds/bin/gnu/h-i686-mingw32/bin/../lib/gcc/nios2-elf/4.1.2/../../../../nios2-elf/lib\libc.a(lib_a-dtoa.o)
 .debug_line    0x00010cf3      0x290 c:/altera/12.0/nios2eds/bin/gnu/h-i686-mingw32/bin/../lib/gcc/nios2-elf/4.1.2/../../../../nios2-elf/lib\libc.a(lib_a-flags.o)
 .debug_line    0x00010f83      0x27f c:/altera/12.0/nios2eds/bin/gnu/h-i686-mingw32/bin/../lib/gcc/nios2-elf/4.1.2/../../../../nios2-elf/lib\libc.a(lib_a-fputc.o)
 .debug_line    0x00011202      0x2c2 c:/altera/12.0/nios2eds/bin/gnu/h-i686-mingw32/bin/../lib/gcc/nios2-elf/4.1.2/../../../../nios2-elf/lib\libc.a(lib_a-fputs.o)
 .debug_line    0x000114c4      0x63b c:/altera/12.0/nios2eds/bin/gnu/h-i686-mingw32/bin/../lib/gcc/nios2-elf/4.1.2/../../../../nios2-elf/lib\libc.a(lib_a-fvwrite.o)
 .debug_line    0x00011aff      0x292 c:/altera/12.0/nios2eds/bin/gnu/h-i686-mingw32/bin/../lib/gcc/nios2-elf/4.1.2/../../../../nios2-elf/lib\libc.a(lib_a-isattyr.o)
 .debug_line    0x00011d91      0x1f5 c:/altera/12.0/nios2eds/bin/gnu/h-i686-mingw32/bin/../lib/gcc/nios2-elf/4.1.2/../../../../nios2-elf/lib\libc.a(lib_a-iswspace.o)
 .debug_line    0x00011f86      0x2c2 c:/altera/12.0/nios2eds/bin/gnu/h-i686-mingw32/bin/../lib/gcc/nios2-elf/4.1.2/../../../../nios2-elf/lib\libc.a(lib_a-locale.o)
 .debug_line    0x00012248      0x291 c:/altera/12.0/nios2eds/bin/gnu/h-i686-mingw32/bin/../lib/gcc/nios2-elf/4.1.2/../../../../nios2-elf/lib\libc.a(lib_a-lseekr.o)
 .debug_line    0x000124d9      0x2c0 c:/altera/12.0/nios2eds/bin/gnu/h-i686-mingw32/bin/../lib/gcc/nios2-elf/4.1.2/../../../../nios2-elf/lib\libc.a(lib_a-mbrtowc.o)
 .debug_line    0x00012799      0x230 c:/altera/12.0/nios2eds/bin/gnu/h-i686-mingw32/bin/../lib/gcc/nios2-elf/4.1.2/../../../../nios2-elf/lib\libc.a(lib_a-mbtowc_r.o)
 .debug_line    0x000129c9      0x2fa c:/altera/12.0/nios2eds/bin/gnu/h-i686-mingw32/bin/../lib/gcc/nios2-elf/4.1.2/../../../../nios2-elf/lib\libc.a(lib_a-memchr.o)
 .debug_line    0x00012cc3      0x296 c:/altera/12.0/nios2eds/bin/gnu/h-i686-mingw32/bin/../lib/gcc/nios2-elf/4.1.2/../../../../nios2-elf/lib\libc.a(lib_a-memcmp.o)
 .debug_line    0x00012f59     0x123d c:/altera/12.0/nios2eds/bin/gnu/h-i686-mingw32/bin/../lib/gcc/nios2-elf/4.1.2/../../../../nios2-elf/lib\libc.a(lib_a-mprec.o)
 .debug_line    0x00014196      0x290 c:/altera/12.0/nios2eds/bin/gnu/h-i686-mingw32/bin/../lib/gcc/nios2-elf/4.1.2/../../../../nios2-elf/lib\libc.a(lib_a-readr.o)
 .debug_line    0x00014426      0x584 c:/altera/12.0/nios2eds/bin/gnu/h-i686-mingw32/bin/../lib/gcc/nios2-elf/4.1.2/../../../../nios2-elf/lib\libc.a(lib_a-reallocr.o)
 .debug_line    0x000149aa      0x21c c:/altera/12.0/nios2eds/bin/gnu/h-i686-mingw32/bin/../lib/gcc/nios2-elf/4.1.2/../../../../nios2-elf/lib\libc.a(lib_a-s_isinfd.o)
 .debug_line    0x00014bc6      0x214 c:/altera/12.0/nios2eds/bin/gnu/h-i686-mingw32/bin/../lib/gcc/nios2-elf/4.1.2/../../../../nios2-elf/lib\libc.a(lib_a-s_isnand.o)
 .debug_line    0x00014dda      0x2c3 c:/altera/12.0/nios2eds/bin/gnu/h-i686-mingw32/bin/../lib/gcc/nios2-elf/4.1.2/../../../../nios2-elf/lib\libc.a(lib_a-sccl.o)
 .debug_line    0x0001509d      0x202 c:/altera/12.0/nios2eds/bin/gnu/h-i686-mingw32/bin/../lib/gcc/nios2-elf/4.1.2/../../../../nios2-elf/lib\libc.a(lib_a-sf_nan.o)
 .debug_line    0x0001529f      0xfde c:/altera/12.0/nios2eds/bin/gnu/h-i686-mingw32/bin/../lib/gcc/nios2-elf/4.1.2/../../../../nios2-elf/lib\libc.a(lib_a-strtod.o)
 .debug_line    0x0001627d      0x400 c:/altera/12.0/nios2eds/bin/gnu/h-i686-mingw32/bin/../lib/gcc/nios2-elf/4.1.2/../../../../nios2-elf/lib\libc.a(lib_a-strtoll_r.o)
 .debug_line    0x0001667d      0x3b4 c:/altera/12.0/nios2eds/bin/gnu/h-i686-mingw32/bin/../lib/gcc/nios2-elf/4.1.2/../../../../nios2-elf/lib\libc.a(lib_a-strtoul.o)
 .debug_line    0x00016a31      0x3a9 c:/altera/12.0/nios2eds/bin/gnu/h-i686-mingw32/bin/../lib/gcc/nios2-elf/4.1.2/../../../../nios2-elf/lib\libc.a(lib_a-strtoull_r.o)
 .debug_line    0x00016dda      0x499 c:/altera/12.0/nios2eds/bin/gnu/h-i686-mingw32/bin/../lib/gcc/nios2-elf/4.1.2/../../../../nios2-elf/lib\libc.a(lib_a-ungetc.o)
 .debug_line    0x00017273      0x256 c:/altera/12.0/nios2eds/bin/gnu/h-i686-mingw32/bin/../lib/gcc/nios2-elf/4.1.2/../../../../nios2-elf/lib\libc.a(lib_a-callocr.o)
 .debug_line    0x000174c9      0x8bf c:/altera/12.0/nios2eds/bin/gnu/h-i686-mingw32/bin/../lib/gcc/nios2-elf/4.1.2/../../../../nios2-elf/lib\libc.a(lib_a-gdtoa-gethex.o)
 .debug_line    0x00017d88      0x475 c:/altera/12.0/nios2eds/bin/gnu/h-i686-mingw32/bin/../lib/gcc/nios2-elf/4.1.2/../../../../nios2-elf/lib\libc.a(lib_a-gdtoa-hexnan.o)
 .debug_line    0x000181fd      0x11f c:/altera/12.0/nios2eds/bin/gnu/h-i686-mingw32/bin/../lib/gcc/nios2-elf/4.1.2\libgcc.a(_muldi3.o)
 .debug_line    0x0001831c       0xff c:/altera/12.0/nios2eds/bin/gnu/h-i686-mingw32/bin/../lib/gcc/nios2-elf/4.1.2\libgcc.a(_fixunsdfsi.o)
 .debug_line    0x0001841b      0x2f2 c:/altera/12.0/nios2eds/bin/gnu/h-i686-mingw32/bin/../lib/gcc/nios2-elf/4.1.2\libgcc.a(_udivdi3.o)
 .debug_line    0x0001870d      0x37d c:/altera/12.0/nios2eds/bin/gnu/h-i686-mingw32/bin/../lib/gcc/nios2-elf/4.1.2\libgcc.a(_umoddi3.o)
 .debug_line    0x00018a8a      0x121 c:/altera/12.0/nios2eds/bin/gnu/h-i686-mingw32/bin/../lib/gcc/nios2-elf/4.1.2\libgcc.a(_ne_sf.o)
 .debug_line    0x00018bab      0x121 c:/altera/12.0/nios2eds/bin/gnu/h-i686-mingw32/bin/../lib/gcc/nios2-elf/4.1.2\libgcc.a(_gt_sf.o)
 .debug_line    0x00018ccc      0x121 c:/altera/12.0/nios2eds/bin/gnu/h-i686-mingw32/bin/../lib/gcc/nios2-elf/4.1.2\libgcc.a(_lt_sf.o)
 .debug_line    0x00018ded      0x430 c:/altera/12.0/nios2eds/bin/gnu/h-i686-mingw32/bin/../lib/gcc/nios2-elf/4.1.2\libgcc.a(_addsub_df.o)
 .debug_line    0x0001921d      0x3e5 c:/altera/12.0/nios2eds/bin/gnu/h-i686-mingw32/bin/../lib/gcc/nios2-elf/4.1.2\libgcc.a(_mul_df.o)
 .debug_line    0x00019602      0x301 c:/altera/12.0/nios2eds/bin/gnu/h-i686-mingw32/bin/../lib/gcc/nios2-elf/4.1.2\libgcc.a(_div_df.o)
 .debug_line    0x00019903      0x129 c:/altera/12.0/nios2eds/bin/gnu/h-i686-mingw32/bin/../lib/gcc/nios2-elf/4.1.2\libgcc.a(_eq_df.o)
 .debug_line    0x00019a2c      0x129 c:/altera/12.0/nios2eds/bin/gnu/h-i686-mingw32/bin/../lib/gcc/nios2-elf/4.1.2\libgcc.a(_ne_df.o)
 .debug_line    0x00019b55      0x129 c:/altera/12.0/nios2eds/bin/gnu/h-i686-mingw32/bin/../lib/gcc/nios2-elf/4.1.2\libgcc.a(_gt_df.o)
 .debug_line    0x00019c7e      0x129 c:/altera/12.0/nios2eds/bin/gnu/h-i686-mingw32/bin/../lib/gcc/nios2-elf/4.1.2\libgcc.a(_ge_df.o)
 .debug_line    0x00019da7      0x129 c:/altera/12.0/nios2eds/bin/gnu/h-i686-mingw32/bin/../lib/gcc/nios2-elf/4.1.2\libgcc.a(_lt_df.o)
 .debug_line    0x00019ed0      0x129 c:/altera/12.0/nios2eds/bin/gnu/h-i686-mingw32/bin/../lib/gcc/nios2-elf/4.1.2\libgcc.a(_le_df.o)
 .debug_line    0x00019ff9      0x175 c:/altera/12.0/nios2eds/bin/gnu/h-i686-mingw32/bin/../lib/gcc/nios2-elf/4.1.2\libgcc.a(_si_to_df.o)
 .debug_line    0x0001a16e      0x149 c:/altera/12.0/nios2eds/bin/gnu/h-i686-mingw32/bin/../lib/gcc/nios2-elf/4.1.2\libgcc.a(_df_to_si.o)
 .debug_line    0x0001a2b7      0x121 c:/altera/12.0/nios2eds/bin/gnu/h-i686-mingw32/bin/../lib/gcc/nios2-elf/4.1.2\libgcc.a(_df_to_sf.o)
 .debug_line    0x0001a3d8       0x94 c:/altera/12.0/nios2eds/bin/gnu/h-i686-mingw32/bin/../lib/gcc/nios2-elf/4.1.2\libgcc.a(_thenan_df.o)
 .debug_line    0x0001a46c      0x189 c:/altera/12.0/nios2eds/bin/gnu/h-i686-mingw32/bin/../lib/gcc/nios2-elf/4.1.2\libgcc.a(_usi_to_df.o)
 .debug_line    0x0001a5f5       0xaa c:/altera/12.0/nios2eds/bin/gnu/h-i686-mingw32/bin/../lib/gcc/nios2-elf/4.1.2\libgcc.a(_clz.o)
 .debug_line    0x0001a69f      0x105 c:/altera/12.0/nios2eds/bin/gnu/h-i686-mingw32/bin/../lib/gcc/nios2-elf/4.1.2\libgcc.a(_clzsi2.o)
 .debug_line    0x0001a7a4      0x197 c:/altera/12.0/nios2eds/bin/gnu/h-i686-mingw32/bin/../lib/gcc/nios2-elf/4.1.2\libgcc.a(_unpack_sf.o)
 .debug_line    0x0001a93b      0x177 c:/altera/12.0/nios2eds/bin/gnu/h-i686-mingw32/bin/../lib/gcc/nios2-elf/4.1.2\libgcc.a(_fpcmp_parts_sf.o)
 .debug_line    0x0001aab2       0xe1 c:/altera/12.0/nios2eds/bin/gnu/h-i686-mingw32/bin/../lib/gcc/nios2-elf/4.1.2\libgcc.a(_make_sf.o)
 .debug_line    0x0001ab93      0x222 c:/altera/12.0/nios2eds/bin/gnu/h-i686-mingw32/bin/../lib/gcc/nios2-elf/4.1.2\libgcc.a(_pack_df.o)
 .debug_line    0x0001adb5      0x1e4 c:/altera/12.0/nios2eds/bin/gnu/h-i686-mingw32/bin/../lib/gcc/nios2-elf/4.1.2\libgcc.a(_unpack_df.o)
 .debug_line    0x0001af99      0x187 c:/altera/12.0/nios2eds/bin/gnu/h-i686-mingw32/bin/../lib/gcc/nios2-elf/4.1.2\libgcc.a(_fpcmp_parts_df.o)
 .debug_line    0x0001b120      0x1ca c:/altera/12.0/nios2eds/bin/gnu/h-i686-mingw32/bin/../lib/gcc/nios2-elf/4.1.2\libgcc.a(_pack_sf.o)
 .debug_line    0x0001b2ea      0x1db ../web_server_bsp/\libucosii_bsp.a(alt_dcache_flush.o)
 .debug_line    0x0001b4c5      0x2c2 ../web_server_bsp/\libucosii_bsp.a(alt_flash_dev.o)
 .debug_line    0x0001b787      0x2fb ../web_server_bsp/\libucosii_bsp.a(alt_fstat.o)
 .debug_line    0x0001ba82      0x2fc ../web_server_bsp/\libucosii_bsp.a(alt_isatty.o)
 .debug_line    0x0001bd7e      0x211 ../web_server_bsp/\libucosii_bsp.a(alt_load.o)
 .debug_line    0x0001bf8f      0x2fb ../web_server_bsp/\libucosii_bsp.a(alt_lseek.o)
 .debug_line    0x0001c28a      0x343 ../web_server_bsp/\libucosii_bsp.a(alt_main.o)
 .debug_line    0x0001c5cd      0x359 ../web_server_bsp/\libucosii_bsp.a(alt_open.o)
 .debug_line    0x0001c926      0x273 ../web_server_bsp/\libucosii_bsp.a(alt_release_fd.o)
 .debug_line    0x0001cb99      0x25b ../web_server_bsp/\libucosii_bsp.a(alt_sbrk.o)
 .debug_line    0x0001cdf4      0x310 ../web_server_bsp/\libucosii_bsp.a(alt_tick.o)
 .debug_line    0x0001d104      0x2a7 ../web_server_bsp/\libucosii_bsp.a(alt_usleep.o)
 .debug_line    0x0001d3ab      0x2b9 ../web_server_bsp/\libucosii_bsp.a(alt_env_lock.o)
 .debug_line    0x0001d664      0x375 ../web_server_bsp/\libucosii_bsp.a(alt_malloc_lock.o)
 .debug_line    0x0001d9d9     0x165d ../web_server_bsp/\libucosii_bsp.a(os_core.o)
 .debug_line    0x0001f036      0x382 ../web_server_bsp/\libucosii_bsp.a(os_dbg.o)
 .debug_line    0x0001f3b8     0x11e1 ../web_server_bsp/\libucosii_bsp.a(os_flag.o)
 .debug_line    0x00020599      0xab0 ../web_server_bsp/\libucosii_bsp.a(os_mbox.o)
 .debug_line    0x00021049      0x784 ../web_server_bsp/\libucosii_bsp.a(os_mem.o)
 .debug_line    0x000217cd      0xe65 ../web_server_bsp/\libucosii_bsp.a(os_q.o)
 .debug_line    0x00022632      0xa1d ../web_server_bsp/\libucosii_bsp.a(os_sem.o)
 .debug_line    0x0002304f     0x1126 ../web_server_bsp/\libucosii_bsp.a(os_task.o)
 .debug_line    0x00024175      0x529 ../web_server_bsp/\libucosii_bsp.a(os_time.o)
 .debug_line    0x0002469e      0x5ee ../web_server_bsp/\libucosii_bsp.a(alt_sys_init.o)
 .debug_line    0x00024c8c      0x56d ../web_server_bsp/\libucosii_bsp.a(altera_avalon_cfi_flash.o)
 .debug_line    0x000251f9      0x94b ../web_server_bsp/\libucosii_bsp.a(altera_avalon_cfi_flash_table.o)
 .debug_line    0x00025b44      0x313 ../web_server_bsp/\libucosii_bsp.a(altera_avalon_jtag_uart_fd.o)
 .debug_line    0x00025e57      0x592 ../web_server_bsp/\libucosii_bsp.a(altera_avalon_jtag_uart_init.o)
 .debug_line    0x000263e9      0x350 ../web_server_bsp/\libucosii_bsp.a(altera_avalon_jtag_uart_ioctl.o)
 .debug_line    0x00026739      0x48e ../web_server_bsp/\libucosii_bsp.a(altera_avalon_jtag_uart_read.o)
 .debug_line    0x00026bc7      0x49c ../web_server_bsp/\libucosii_bsp.a(altera_avalon_jtag_uart_write.o)
 .debug_line    0x00027063      0x93a ../web_server_bsp/\libucosii_bsp.a(altera_avalon_lcd_16207.o)
 .debug_line    0x0002799d      0x2b3 ../web_server_bsp/\libucosii_bsp.a(altera_avalon_lcd_16207_fd.o)
 .debug_line    0x00027c50      0x668 ../web_server_bsp/\libucosii_bsp.a(altera_avalon_sgdma.o)
 .debug_line    0x000282b8      0x2ad ../web_server_bsp/\libucosii_bsp.a(altera_avalon_timer_sc.o)
 .debug_line    0x00028565     0x2091 ../web_server_bsp/\libucosii_bsp.a(altera_avalon_tse.o)
 .debug_line    0x0002a5f6      0x2f1 ../web_server_bsp/\libucosii_bsp.a(altera_avalon_uart_fd.o)
 .debug_line    0x0002a8e7      0x561 ../web_server_bsp/\libucosii_bsp.a(altera_avalon_uart_init.o)
 .debug_line    0x0002ae48      0x4ad ../web_server_bsp/\libucosii_bsp.a(altera_avalon_uart_read.o)
 .debug_line    0x0002b2f5      0x48f ../web_server_bsp/\libucosii_bsp.a(altera_avalon_uart_write.o)
 .debug_line    0x0002b784      0x81c ../web_server_bsp/\libucosii_bsp.a(altera_ro_zipfs.o)
 .debug_line    0x0002bfa0      0xc29 ../web_server_bsp/\libucosii_bsp.a(ins_tse_mac.o)
 .debug_line    0x0002cbc9      0x341 ../web_server_bsp/\libucosii_bsp.a(alt_iniche_close.o)
 .debug_line    0x0002cf0a      0x3e4 ../web_server_bsp/\libucosii_bsp.a(alt_iniche_dev.o)
 .debug_line    0x0002d2ee      0x340 ../web_server_bsp/\libucosii_bsp.a(alt_iniche_read.o)
 .debug_line    0x0002d62e      0x351 ../web_server_bsp/\libucosii_bsp.a(alt_iniche_write.o)
 .debug_line    0x0002d97f      0x7a0 ../web_server_bsp/\libucosii_bsp.a(ipnet.o)
 .debug_line    0x0002e11f      0x4e1 ../web_server_bsp/\libucosii_bsp.a(ipstart.o)
 .debug_line    0x0002e600      0x916 ../web_server_bsp/\libucosii_bsp.a(igmp_cmn.o)
 .debug_line    0x0002ef16      0x6c1 ../web_server_bsp/\libucosii_bsp.a(bsdsock.o)
 .debug_line    0x0002f5d7      0x304 ../web_server_bsp/\libucosii_bsp.a(cksum.o)
 .debug_line    0x0002f8db      0x7a3 ../web_server_bsp/\libucosii_bsp.a(in_utils.o)
 .debug_line    0x0003007e      0x439 ../web_server_bsp/\libucosii_bsp.a(netmain.o)
 .debug_line    0x000304b7      0x5a2 ../web_server_bsp/\libucosii_bsp.a(tk_crnos.o)
 .debug_line    0x00030a59     0x1063 ../web_server_bsp/\libucosii_bsp.a(dhcpclnt.o)
 .debug_line    0x00031abc      0x2f9 ../web_server_bsp/\libucosii_bsp.a(dhcputil.o)
 .debug_line    0x00031db5      0x643 ../web_server_bsp/\libucosii_bsp.a(pktalloc.o)
 .debug_line    0x000323f8      0x3d5 ../web_server_bsp/\libucosii_bsp.a(q.o)
 .debug_line    0x000327cd      0x468 ../web_server_bsp/\libucosii_bsp.a(udp_open.o)
 .debug_line    0x00032c35       0xaf ../web_server_bsp/\libucosii_bsp.a(asm_cksum.o)
 .debug_line    0x00032ce4      0x46c ../web_server_bsp/\libucosii_bsp.a(brdutils.o)
 .debug_line    0x00033150      0x4f9 ../web_server_bsp/\libucosii_bsp.a(osportco.o)
 .debug_line    0x00033649      0x638 ../web_server_bsp/\libucosii_bsp.a(targnios.o)
 .debug_line    0x00033c81      0xf1d ../web_server_bsp/\libucosii_bsp.a(nptcp.o)
 .debug_line    0x00034b9e      0x842 ../web_server_bsp/\libucosii_bsp.a(rawsock.o)
 .debug_line    0x000353e0      0xe30 ../web_server_bsp/\libucosii_bsp.a(sockcall.o)
 .debug_line    0x00036210     0x12b2 ../web_server_bsp/\libucosii_bsp.a(socket.o)
 .debug_line    0x000374c2      0xbe6 ../web_server_bsp/\libucosii_bsp.a(socket2.o)
 .debug_line    0x000380a8      0x727 ../web_server_bsp/\libucosii_bsp.a(soselect.o)
 .debug_line    0x000387cf     0x15e8 ../web_server_bsp/\libucosii_bsp.a(tcp_in.o)
 .debug_line    0x00039db7      0xa53 ../web_server_bsp/\libucosii_bsp.a(tcp_out.o)
 .debug_line    0x0003a80a      0x7bd ../web_server_bsp/\libucosii_bsp.a(tcp_subr.o)
 .debug_line    0x0003afc7      0x60d ../web_server_bsp/\libucosii_bsp.a(tcp_timr.o)
 .debug_line    0x0003b5d4      0x89c ../web_server_bsp/\libucosii_bsp.a(tcp_usr.o)
 .debug_line    0x0003be70      0x339 ../web_server_bsp/\libucosii_bsp.a(tcpport.o)
 .debug_line    0x0003c1a9      0x953 ../web_server_bsp/\libucosii_bsp.a(udpsock.o)
 .debug_line    0x0003cafc      0x2d6 ../web_server_bsp/\libucosii_bsp.a(alt_alarm_start.o)
 .debug_line    0x0003cdd2      0x253 ../web_server_bsp/\libucosii_bsp.a(alt_busy_sleep.o)
 .debug_line    0x0003d025      0x2f3 ../web_server_bsp/\libucosii_bsp.a(alt_close.o)
 .debug_line    0x0003d318      0x1c7 ../web_server_bsp/\libucosii_bsp.a(alt_dcache_flush_all.o)
 .debug_line    0x0003d4df      0x2b4 ../web_server_bsp/\libucosii_bsp.a(alt_dev.o)
 .debug_line    0x0003d793      0x254 ../web_server_bsp/\libucosii_bsp.a(alt_dev_llist_insert.o)
 .debug_line    0x0003d9e7       0x83 ../web_server_bsp/\libucosii_bsp.a(alt_do_ctors.o)
 .debug_line    0x0003da6a       0x83 ../web_server_bsp/\libucosii_bsp.a(alt_do_dtors.o)
 .debug_line    0x0003daed      0x1a4 ../web_server_bsp/\libucosii_bsp.a(alt_errno.o)
 .debug_line    0x0003dc91      0x2d4 ../web_server_bsp/\libucosii_bsp.a(alt_find_dev.o)
 .debug_line    0x0003df65      0x2e5 ../web_server_bsp/\libucosii_bsp.a(alt_find_file.o)
 .debug_line    0x0003e24a      0x29d ../web_server_bsp/\libucosii_bsp.a(alt_fs_reg.o)
 .debug_line    0x0003e4e7      0x315 ../web_server_bsp/\libucosii_bsp.a(alt_get_fd.o)
 .debug_line    0x0003e7fc      0x1b7 ../web_server_bsp/\libucosii_bsp.a(alt_icache_flush_all.o)
 .debug_line    0x0003e9b3      0x2c2 ../web_server_bsp/\libucosii_bsp.a(alt_iic.o)
 .debug_line    0x0003ec75      0x243 ../web_server_bsp/\libucosii_bsp.a(alt_iic_isr_register.o)
 .debug_line    0x0003eeb8      0x31d ../web_server_bsp/\libucosii_bsp.a(alt_io_redirect.o)
 .debug_line    0x0003f1d5       0x6b ../web_server_bsp/\libucosii_bsp.a(alt_irq_entry.o)
 .debug_line    0x0003f240      0x2be ../web_server_bsp/\libucosii_bsp.a(alt_irq_handler.o)
 .debug_line    0x0003f4fe       0x72 ../web_server_bsp/\libucosii_bsp.a(alt_irq_vars.o)
 .debug_line    0x0003f570      0x322 ../web_server_bsp/\libucosii_bsp.a(alt_read.o)
 .debug_line    0x0003f892      0x1b3 ../web_server_bsp/\libucosii_bsp.a(alt_remap_cached.o)
 .debug_line    0x0003fa45      0x1bd ../web_server_bsp/\libucosii_bsp.a(alt_remap_uncached.o)
 .debug_line    0x0003fc02      0x1c6 ../web_server_bsp/\libucosii_bsp.a(alt_uncached_malloc.o)
 .debug_line    0x0003fdc8      0x323 ../web_server_bsp/\libucosii_bsp.a(alt_write.o)
 .debug_line    0x000400eb      0x1c8 ../web_server_bsp/\libucosii_bsp.a(altera_nios2_qsys_irq.o)
 .debug_line    0x000402b3       0x86 ../web_server_bsp/\libucosii_bsp.a(os_cpu_a.o)
 .debug_line    0x00040339      0x32a ../web_server_bsp/\libucosii_bsp.a(os_cpu_c.o)
 .debug_line    0x00040663      0x43f ../web_server_bsp/\libucosii_bsp.a(altera_avalon_cfi_flash_amd.o)
 .debug_line    0x00040aa2      0x431 ../web_server_bsp/\libucosii_bsp.a(altera_avalon_cfi_flash_intel.o)
 .debug_line    0x00040ed3      0x519 ../web_server_bsp/\libucosii_bsp.a(allports.o)
 .debug_line    0x000413ec      0x47d ../web_server_bsp/\libucosii_bsp.a(timeouts.o)
 .debug_line    0x00041869      0x36a ../web_server_bsp/\libucosii_bsp.a(tk_misc.o)
 .debug_line    0x00041bd3      0x389 ../web_server_bsp/\libucosii_bsp.a(alt_iniche_fcntl.o)
 .debug_line    0x00041f5c      0xc9c ../web_server_bsp/\libucosii_bsp.a(et_arp.o)
 .debug_line    0x00042bf8      0x473 ../web_server_bsp/\libucosii_bsp.a(iface.o)
 .debug_line    0x0004306b      0xf8f ../web_server_bsp/\libucosii_bsp.a(ip.o)
 .debug_line    0x00043ffa      0xf76 ../web_server_bsp/\libucosii_bsp.a(ip_reasm.o)
 .debug_line    0x00044f70      0x780 ../web_server_bsp/\libucosii_bsp.a(ipdemux.o)
 .debug_line    0x000456f0      0x462 ../web_server_bsp/\libucosii_bsp.a(ipmc.o)
 .debug_line    0x00045b52      0x332 ../web_server_bsp/\libucosii_bsp.a(ipport.o)
 .debug_line    0x00045e84      0x5b3 ../web_server_bsp/\libucosii_bsp.a(ipraw.o)
 .debug_line    0x00046437      0x5b5 ../web_server_bsp/\libucosii_bsp.a(iproute.o)
 .debug_line    0x000469ec      0x7f0 ../web_server_bsp/\libucosii_bsp.a(udp.o)
 .debug_line    0x000471dc      0x434 ../web_server_bsp/\libucosii_bsp.a(igmp.o)
 .debug_line    0x00047610      0x627 ../web_server_bsp/\libucosii_bsp.a(igmp2.o)
 .debug_line    0x00047c37      0x70b ../web_server_bsp/\libucosii_bsp.a(ipopt.o)
 .debug_line    0x00048342      0x5f5 ../web_server_bsp/\libucosii_bsp.a(u_mctest.o)
 .debug_line    0x00048937      0x439 ../web_server_bsp/\libucosii_bsp.a(dhcsetup.o)
 .debug_line    0x00048d70      0x443 ../web_server_bsp/\libucosii_bsp.a(memdev.o)
 .debug_line    0x000491b3      0x647 ../web_server_bsp/\libucosii_bsp.a(parseip.o)
 .debug_line    0x000497fa      0x3b3 ../web_server_bsp/\libucosii_bsp.a(tcpcksum.o)
 .debug_line    0x00049bad      0x767 ../web_server_bsp/\libucosii_bsp.a(in_pcb.o)
 .debug_line    0x0004a314      0xff1 ../web_server_bsp/\libucosii_bsp.a(vfsfiles.o)
 .debug_line    0x0004b305      0x2be ../web_server_bsp/\libucosii_bsp.a(vfsport.o)
 .debug_line    0x0004b5c3       0xab ../web_server_bsp/\libucosii_bsp.a(alt_exception_entry.o)
 .debug_line    0x0004b66e      0x352 ../web_server_bsp/\libucosii_bsp.a(alt_fcntl.o)
 .debug_line    0x0004b9c0      0x1f3 ../web_server_bsp/\libucosii_bsp.a(alt_icache_flush.o)
 .debug_line    0x0004bbb3      0x952 ../web_server_bsp/\libucosii_bsp.a(icmp.o)
 .debug_line    0x0004c505      0x1fa c:/altera/12.0/nios2eds/bin/gnu/h-i686-mingw32/bin/../lib/gcc/nios2-elf/4.1.2/../../../../nios2-elf/lib\libc.a(lib_a-atexit.o)
 .debug_line    0x0004c6ff      0x206 c:/altera/12.0/nios2eds/bin/gnu/h-i686-mingw32/bin/../lib/gcc/nios2-elf/4.1.2/../../../../nios2-elf/lib\libc.a(lib_a-calloc.o)
 .debug_line    0x0004c905      0x232 c:/altera/12.0/nios2eds/bin/gnu/h-i686-mingw32/bin/../lib/gcc/nios2-elf/4.1.2/../../../../nios2-elf/lib\libc.a(lib_a-exit.o)
 .debug_line    0x0004cb37      0x245 c:/altera/12.0/nios2eds/bin/gnu/h-i686-mingw32/bin/../lib/gcc/nios2-elf/4.1.2/../../../../nios2-elf/lib\libc.a(lib_a-malloc.o)
 .debug_line    0x0004cd7c      0x269 c:/altera/12.0/nios2eds/bin/gnu/h-i686-mingw32/bin/../lib/gcc/nios2-elf/4.1.2/../../../../nios2-elf/lib\libc.a(lib_a-vprintf.o)
 .debug_line    0x0004cfe5      0x2d3 c:/altera/12.0/nios2eds/bin/gnu/h-i686-mingw32/bin/../lib/gcc/nios2-elf/4.1.2/../../../../nios2-elf/lib\libc.a(lib_a-vsprintf.o)
 .debug_line    0x0004d2b8      0x30d c:/altera/12.0/nios2eds/bin/gnu/h-i686-mingw32/bin/../lib/gcc/nios2-elf/4.1.2/../../../../nios2-elf/lib\libc.a(lib_a-__atexit.o)
 .debug_line    0x0004d5c5      0x361 c:/altera/12.0/nios2eds/bin/gnu/h-i686-mingw32/bin/../lib/gcc/nios2-elf/4.1.2/../../../../nios2-elf/lib\libc.a(lib_a-__call_atexit.o)
 .debug_line    0x0004d926      0x270 ../web_server_bsp/\libucosii_bsp.a(alt_exit.o)

.debug_frame    0x00000000     0x77dc
 *(.debug_frame)
 .debug_frame   0x00000000       0x2c obj/default/alt_error_handler.o
 .debug_frame   0x0000002c      0x2d8 obj/default/http.o
 .debug_frame   0x00000304       0xbc obj/default/network_utilities.o
 .debug_frame   0x000003c0       0x70 obj/default/srec_flash.o
 .debug_frame   0x00000430       0xf0 obj/default/web_server.o
 .debug_frame   0x00000520       0x70 c:/altera/12.0/nios2eds/bin/gnu/h-i686-mingw32/bin/../lib/gcc/nios2-elf/4.1.2\libgcc.a(lib2-divmod.o)
 .debug_frame   0x00000590       0x30 c:/altera/12.0/nios2eds/bin/gnu/h-i686-mingw32/bin/../lib/gcc/nios2-elf/4.1.2/../../../../nios2-elf/lib\libc.a(lib_a-atoi.o)
 .debug_frame   0x000005c0       0x3c c:/altera/12.0/nios2eds/bin/gnu/h-i686-mingw32/bin/../lib/gcc/nios2-elf/4.1.2/../../../../nios2-elf/lib\libc.a(lib_a-fclose.o)
 .debug_frame   0x000005fc       0x40 c:/altera/12.0/nios2eds/bin/gnu/h-i686-mingw32/bin/../lib/gcc/nios2-elf/4.1.2/../../../../nios2-elf/lib\libc.a(lib_a-fflush.o)
 .debug_frame   0x0000063c       0x38 c:/altera/12.0/nios2eds/bin/gnu/h-i686-mingw32/bin/../lib/gcc/nios2-elf/4.1.2/../../../../nios2-elf/lib\libc.a(lib_a-fgetpos.o)
 .debug_frame   0x00000674      0x118 c:/altera/12.0/nios2eds/bin/gnu/h-i686-mingw32/bin/../lib/gcc/nios2-elf/4.1.2/../../../../nios2-elf/lib\libc.a(lib_a-findfp.o)
 .debug_frame   0x0000078c       0x40 c:/altera/12.0/nios2eds/bin/gnu/h-i686-mingw32/bin/../lib/gcc/nios2-elf/4.1.2/../../../../nios2-elf/lib\libc.a(lib_a-fopen.o)
 .debug_frame   0x000007cc       0x40 c:/altera/12.0/nios2eds/bin/gnu/h-i686-mingw32/bin/../lib/gcc/nios2-elf/4.1.2/../../../../nios2-elf/lib\libc.a(lib_a-fprintf.o)
 .debug_frame   0x0000080c       0x54 c:/altera/12.0/nios2eds/bin/gnu/h-i686-mingw32/bin/../lib/gcc/nios2-elf/4.1.2/../../../../nios2-elf/lib\libc.a(lib_a-fread.o)
 .debug_frame   0x00000860       0x4c c:/altera/12.0/nios2eds/bin/gnu/h-i686-mingw32/bin/../lib/gcc/nios2-elf/4.1.2/../../../../nios2-elf/lib\libc.a(lib_a-freer.o)
 .debug_frame   0x000008ac       0x48 c:/altera/12.0/nios2eds/bin/gnu/h-i686-mingw32/bin/../lib/gcc/nios2-elf/4.1.2/../../../../nios2-elf/lib\libc.a(lib_a-fseek.o)
 .debug_frame   0x000008f4       0x2c c:/altera/12.0/nios2eds/bin/gnu/h-i686-mingw32/bin/../lib/gcc/nios2-elf/4.1.2/../../../../nios2-elf/lib\libc.a(lib_a-fstatr.o)
 .debug_frame   0x00000920       0x3c c:/altera/12.0/nios2eds/bin/gnu/h-i686-mingw32/bin/../lib/gcc/nios2-elf/4.1.2/../../../../nios2-elf/lib\libc.a(lib_a-ftell.o)
 .debug_frame   0x0000095c       0x60 c:/altera/12.0/nios2eds/bin/gnu/h-i686-mingw32/bin/../lib/gcc/nios2-elf/4.1.2/../../../../nios2-elf/lib\libc.a(lib_a-fwalk.o)
 .debug_frame   0x000009bc       0x48 c:/altera/12.0/nios2eds/bin/gnu/h-i686-mingw32/bin/../lib/gcc/nios2-elf/4.1.2/../../../../nios2-elf/lib\libc.a(lib_a-fwrite.o)
 .debug_frame   0x00000a04       0x48 c:/altera/12.0/nios2eds/bin/gnu/h-i686-mingw32/bin/../lib/gcc/nios2-elf/4.1.2/../../../../nios2-elf/lib\libc.a(lib_a-getc.o)
 .debug_frame   0x00000a4c       0x2c c:/altera/12.0/nios2eds/bin/gnu/h-i686-mingw32/bin/../lib/gcc/nios2-elf/4.1.2/../../../../nios2-elf/lib\libc.a(lib_a-makebuf.o)
 .debug_frame   0x00000a78       0x38 c:/altera/12.0/nios2eds/bin/gnu/h-i686-mingw32/bin/../lib/gcc/nios2-elf/4.1.2/../../../../nios2-elf/lib\libc.a(lib_a-mallocr.o)
 .debug_frame   0x00000ab0       0x20 c:/altera/12.0/nios2eds/bin/gnu/h-i686-mingw32/bin/../lib/gcc/nios2-elf/4.1.2/../../../../nios2-elf/lib\libc.a(lib_a-memcpy.o)
 .debug_frame   0x00000ad0       0x20 c:/altera/12.0/nios2eds/bin/gnu/h-i686-mingw32/bin/../lib/gcc/nios2-elf/4.1.2/../../../../nios2-elf/lib\libc.a(lib_a-memmove.o)
 .debug_frame   0x00000af0       0x20 c:/altera/12.0/nios2eds/bin/gnu/h-i686-mingw32/bin/../lib/gcc/nios2-elf/4.1.2/../../../../nios2-elf/lib\libc.a(lib_a-memset.o)
 .debug_frame   0x00000b10       0x2c c:/altera/12.0/nios2eds/bin/gnu/h-i686-mingw32/bin/../lib/gcc/nios2-elf/4.1.2/../../../../nios2-elf/lib\libc.a(lib_a-openr.o)
 .debug_frame   0x00000b3c       0x38 c:/altera/12.0/nios2eds/bin/gnu/h-i686-mingw32/bin/../lib/gcc/nios2-elf/4.1.2/../../../../nios2-elf/lib\libc.a(lib_a-perror.o)
 .debug_frame   0x00000b74       0x40 c:/altera/12.0/nios2eds/bin/gnu/h-i686-mingw32/bin/../lib/gcc/nios2-elf/4.1.2/../../../../nios2-elf/lib\libc.a(lib_a-printf.o)
 .debug_frame   0x00000bb4       0x4c c:/altera/12.0/nios2eds/bin/gnu/h-i686-mingw32/bin/../lib/gcc/nios2-elf/4.1.2/../../../../nios2-elf/lib\libc.a(lib_a-putc.o)
 .debug_frame   0x00000c00       0x30 c:/altera/12.0/nios2eds/bin/gnu/h-i686-mingw32/bin/../lib/gcc/nios2-elf/4.1.2/../../../../nios2-elf/lib\libc.a(lib_a-putchar.o)
 .debug_frame   0x00000c30       0x3c c:/altera/12.0/nios2eds/bin/gnu/h-i686-mingw32/bin/../lib/gcc/nios2-elf/4.1.2/../../../../nios2-elf/lib\libc.a(lib_a-puts.o)
 .debug_frame   0x00000c6c       0x3c c:/altera/12.0/nios2eds/bin/gnu/h-i686-mingw32/bin/../lib/gcc/nios2-elf/4.1.2/../../../../nios2-elf/lib\libc.a(lib_a-refill.o)
 .debug_frame   0x00000ca8       0x38 c:/altera/12.0/nios2eds/bin/gnu/h-i686-mingw32/bin/../lib/gcc/nios2-elf/4.1.2/../../../../nios2-elf/lib\libc.a(lib_a-rget.o)
 .debug_frame   0x00000ce0       0x2c c:/altera/12.0/nios2eds/bin/gnu/h-i686-mingw32/bin/../lib/gcc/nios2-elf/4.1.2/../../../../nios2-elf/lib\libc.a(lib_a-sbrkr.o)
 .debug_frame   0x00000d0c       0x40 c:/altera/12.0/nios2eds/bin/gnu/h-i686-mingw32/bin/../lib/gcc/nios2-elf/4.1.2/../../../../nios2-elf/lib\libc.a(lib_a-sprintf.o)
 .debug_frame   0x00000d4c       0x54 c:/altera/12.0/nios2eds/bin/gnu/h-i686-mingw32/bin/../lib/gcc/nios2-elf/4.1.2/../../../../nios2-elf/lib\libc.a(lib_a-sscanf.o)
 .debug_frame   0x00000da0       0x78 c:/altera/12.0/nios2eds/bin/gnu/h-i686-mingw32/bin/../lib/gcc/nios2-elf/4.1.2/../../../../nios2-elf/lib\libc.a(lib_a-stdio.o)
 .debug_frame   0x00000e18       0x20 c:/altera/12.0/nios2eds/bin/gnu/h-i686-mingw32/bin/../lib/gcc/nios2-elf/4.1.2/../../../../nios2-elf/lib\libc.a(lib_a-strcasecmp.o)
 .debug_frame   0x00000e38       0x28 c:/altera/12.0/nios2eds/bin/gnu/h-i686-mingw32/bin/../lib/gcc/nios2-elf/4.1.2/../../../../nios2-elf/lib\libc.a(lib_a-strcat.o)
 .debug_frame   0x00000e60       0x20 c:/altera/12.0/nios2eds/bin/gnu/h-i686-mingw32/bin/../lib/gcc/nios2-elf/4.1.2/../../../../nios2-elf/lib\libc.a(lib_a-strchr.o)
 .debug_frame   0x00000e80       0x20 c:/altera/12.0/nios2eds/bin/gnu/h-i686-mingw32/bin/../lib/gcc/nios2-elf/4.1.2/../../../../nios2-elf/lib\libc.a(lib_a-strcmp.o)
 .debug_frame   0x00000ea0       0x20 c:/altera/12.0/nios2eds/bin/gnu/h-i686-mingw32/bin/../lib/gcc/nios2-elf/4.1.2/../../../../nios2-elf/lib\libc.a(lib_a-strcpy.o)
 .debug_frame   0x00000ec0       0x28 c:/altera/12.0/nios2eds/bin/gnu/h-i686-mingw32/bin/../lib/gcc/nios2-elf/4.1.2/../../../../nios2-elf/lib\libc.a(lib_a-strerror.o)
 .debug_frame   0x00000ee8       0x20 c:/altera/12.0/nios2eds/bin/gnu/h-i686-mingw32/bin/../lib/gcc/nios2-elf/4.1.2/../../../../nios2-elf/lib\libc.a(lib_a-strlen.o)
 .debug_frame   0x00000f08       0x20 c:/altera/12.0/nios2eds/bin/gnu/h-i686-mingw32/bin/../lib/gcc/nios2-elf/4.1.2/../../../../nios2-elf/lib\libc.a(lib_a-strncmp.o)
 .debug_frame   0x00000f28       0x20 c:/altera/12.0/nios2eds/bin/gnu/h-i686-mingw32/bin/../lib/gcc/nios2-elf/4.1.2/../../../../nios2-elf/lib\libc.a(lib_a-strncpy.o)
 .debug_frame   0x00000f48       0x4c c:/altera/12.0/nios2eds/bin/gnu/h-i686-mingw32/bin/../lib/gcc/nios2-elf/4.1.2/../../../../nios2-elf/lib\libc.a(lib_a-strstr.o)
 .debug_frame   0x00000f94       0x20 c:/altera/12.0/nios2eds/bin/gnu/h-i686-mingw32/bin/../lib/gcc/nios2-elf/4.1.2/../../../../nios2-elf/lib\libc.a(lib_a-strtok.o)
 .debug_frame   0x00000fb4       0x30 c:/altera/12.0/nios2eds/bin/gnu/h-i686-mingw32/bin/../lib/gcc/nios2-elf/4.1.2/../../../../nios2-elf/lib\libc.a(lib_a-strtok_r.o)
 .debug_frame   0x00000fe4       0x4c c:/altera/12.0/nios2eds/bin/gnu/h-i686-mingw32/bin/../lib/gcc/nios2-elf/4.1.2/../../../../nios2-elf/lib\libc.a(lib_a-strtol.o)
 .debug_frame   0x00001030       0x20 c:/altera/12.0/nios2eds/bin/gnu/h-i686-mingw32/bin/../lib/gcc/nios2-elf/4.1.2/../../../../nios2-elf/lib\libc.a(lib_a-u_strerr.o)
 .debug_frame   0x00001050       0x64 c:/altera/12.0/nios2eds/bin/gnu/h-i686-mingw32/bin/../lib/gcc/nios2-elf/4.1.2/../../../../nios2-elf/lib\libc.a(lib_a-vfprintf.o)
 .debug_frame   0x000010b4       0x8c c:/altera/12.0/nios2eds/bin/gnu/h-i686-mingw32/bin/../lib/gcc/nios2-elf/4.1.2/../../../../nios2-elf/lib\libc.a(lib_a-vfscanf.o)
 .debug_frame   0x00001140       0x3c c:/altera/12.0/nios2eds/bin/gnu/h-i686-mingw32/bin/../lib/gcc/nios2-elf/4.1.2/../../../../nios2-elf/lib\libc.a(lib_a-wbuf.o)
 .debug_frame   0x0000117c       0x2c c:/altera/12.0/nios2eds/bin/gnu/h-i686-mingw32/bin/../lib/gcc/nios2-elf/4.1.2/../../../../nios2-elf/lib\libc.a(lib_a-writer.o)
 .debug_frame   0x000011a8       0x2c c:/altera/12.0/nios2eds/bin/gnu/h-i686-mingw32/bin/../lib/gcc/nios2-elf/4.1.2/../../../../nios2-elf/lib\libc.a(lib_a-wsetup.o)
 .debug_frame   0x000011d4       0x2c c:/altera/12.0/nios2eds/bin/gnu/h-i686-mingw32/bin/../lib/gcc/nios2-elf/4.1.2/../../../../nios2-elf/lib\libc.a(lib_a-closer.o)
 .debug_frame   0x00001200       0x64 c:/altera/12.0/nios2eds/bin/gnu/h-i686-mingw32/bin/../lib/gcc/nios2-elf/4.1.2/../../../../nios2-elf/lib\libc.a(lib_a-dtoa.o)
 .debug_frame   0x00001264       0x20 c:/altera/12.0/nios2eds/bin/gnu/h-i686-mingw32/bin/../lib/gcc/nios2-elf/4.1.2/../../../../nios2-elf/lib\libc.a(lib_a-flags.o)
 .debug_frame   0x00001284       0x4c c:/altera/12.0/nios2eds/bin/gnu/h-i686-mingw32/bin/../lib/gcc/nios2-elf/4.1.2/../../../../nios2-elf/lib\libc.a(lib_a-fputc.o)
 .debug_frame   0x000012d0       0x3c c:/altera/12.0/nios2eds/bin/gnu/h-i686-mingw32/bin/../lib/gcc/nios2-elf/4.1.2/../../../../nios2-elf/lib\libc.a(lib_a-fputs.o)
 .debug_frame   0x0000130c       0x38 c:/altera/12.0/nios2eds/bin/gnu/h-i686-mingw32/bin/../lib/gcc/nios2-elf/4.1.2/../../../../nios2-elf/lib\libc.a(lib_a-fvwrite.o)
 .debug_frame   0x00001344       0x2c c:/altera/12.0/nios2eds/bin/gnu/h-i686-mingw32/bin/../lib/gcc/nios2-elf/4.1.2/../../../../nios2-elf/lib\libc.a(lib_a-isattyr.o)
 .debug_frame   0x00001370       0x20 c:/altera/12.0/nios2eds/bin/gnu/h-i686-mingw32/bin/../lib/gcc/nios2-elf/4.1.2/../../../../nios2-elf/lib\libc.a(lib_a-iswspace.o)
 .debug_frame   0x00001390       0x70 c:/altera/12.0/nios2eds/bin/gnu/h-i686-mingw32/bin/../lib/gcc/nios2-elf/4.1.2/../../../../nios2-elf/lib\libc.a(lib_a-locale.o)
 .debug_frame   0x00001400       0x2c c:/altera/12.0/nios2eds/bin/gnu/h-i686-mingw32/bin/../lib/gcc/nios2-elf/4.1.2/../../../../nios2-elf/lib\libc.a(lib_a-lseekr.o)
 .debug_frame   0x0000142c       0x44 c:/altera/12.0/nios2eds/bin/gnu/h-i686-mingw32/bin/../lib/gcc/nios2-elf/4.1.2/../../../../nios2-elf/lib\libc.a(lib_a-mbrtowc.o)
 .debug_frame   0x00001470       0x24 c:/altera/12.0/nios2eds/bin/gnu/h-i686-mingw32/bin/../lib/gcc/nios2-elf/4.1.2/../../../../nios2-elf/lib\libc.a(lib_a-mbtowc_r.o)
 .debug_frame   0x00001494       0x20 c:/altera/12.0/nios2eds/bin/gnu/h-i686-mingw32/bin/../lib/gcc/nios2-elf/4.1.2/../../../../nios2-elf/lib\libc.a(lib_a-memchr.o)
 .debug_frame   0x000014b4       0x20 c:/altera/12.0/nios2eds/bin/gnu/h-i686-mingw32/bin/../lib/gcc/nios2-elf/4.1.2/../../../../nios2-elf/lib\libc.a(lib_a-memcmp.o)
 .debug_frame   0x000014d4      0x218 c:/altera/12.0/nios2eds/bin/gnu/h-i686-mingw32/bin/../lib/gcc/nios2-elf/4.1.2/../../../../nios2-elf/lib\libc.a(lib_a-mprec.o)
 .debug_frame   0x000016ec       0x2c c:/altera/12.0/nios2eds/bin/gnu/h-i686-mingw32/bin/../lib/gcc/nios2-elf/4.1.2/../../../../nios2-elf/lib\libc.a(lib_a-readr.o)
 .debug_frame   0x00001718       0x38 c:/altera/12.0/nios2eds/bin/gnu/h-i686-mingw32/bin/../lib/gcc/nios2-elf/4.1.2/../../../../nios2-elf/lib\libc.a(lib_a-reallocr.o)
 .debug_frame   0x00001750       0x20 c:/altera/12.0/nios2eds/bin/gnu/h-i686-mingw32/bin/../lib/gcc/nios2-elf/4.1.2/../../../../nios2-elf/lib\libc.a(lib_a-s_isinfd.o)
 .debug_frame   0x00001770       0x20 c:/altera/12.0/nios2eds/bin/gnu/h-i686-mingw32/bin/../lib/gcc/nios2-elf/4.1.2/../../../../nios2-elf/lib\libc.a(lib_a-s_isnand.o)
 .debug_frame   0x00001790       0x20 c:/altera/12.0/nios2eds/bin/gnu/h-i686-mingw32/bin/../lib/gcc/nios2-elf/4.1.2/../../../../nios2-elf/lib\libc.a(lib_a-sccl.o)
 .debug_frame   0x000017b0       0x20 c:/altera/12.0/nios2eds/bin/gnu/h-i686-mingw32/bin/../lib/gcc/nios2-elf/4.1.2/../../../../nios2-elf/lib\libc.a(lib_a-sf_nan.o)
 .debug_frame   0x000017d0       0x80 c:/altera/12.0/nios2eds/bin/gnu/h-i686-mingw32/bin/../lib/gcc/nios2-elf/4.1.2/../../../../nios2-elf/lib\libc.a(lib_a-strtod.o)
 .debug_frame   0x00001850       0x3c c:/altera/12.0/nios2eds/bin/gnu/h-i686-mingw32/bin/../lib/gcc/nios2-elf/4.1.2/../../../../nios2-elf/lib\libc.a(lib_a-strtoll_r.o)
 .debug_frame   0x0000188c       0x4c c:/altera/12.0/nios2eds/bin/gnu/h-i686-mingw32/bin/../lib/gcc/nios2-elf/4.1.2/../../../../nios2-elf/lib\libc.a(lib_a-strtoul.o)
 .debug_frame   0x000018d8       0x3c c:/altera/12.0/nios2eds/bin/gnu/h-i686-mingw32/bin/../lib/gcc/nios2-elf/4.1.2/../../../../nios2-elf/lib\libc.a(lib_a-strtoull_r.o)
 .debug_frame   0x00001914       0x60 c:/altera/12.0/nios2eds/bin/gnu/h-i686-mingw32/bin/../lib/gcc/nios2-elf/4.1.2/../../../../nios2-elf/lib\libc.a(lib_a-ungetc.o)
 .debug_frame   0x00001974       0x28 c:/altera/12.0/nios2eds/bin/gnu/h-i686-mingw32/bin/../lib/gcc/nios2-elf/4.1.2/../../../../nios2-elf/lib\libc.a(lib_a-callocr.o)
 .debug_frame   0x0000199c       0x74 c:/altera/12.0/nios2eds/bin/gnu/h-i686-mingw32/bin/../lib/gcc/nios2-elf/4.1.2/../../../../nios2-elf/lib\libc.a(lib_a-gdtoa-gethex.o)
 .debug_frame   0x00001a10       0x4c c:/altera/12.0/nios2eds/bin/gnu/h-i686-mingw32/bin/../lib/gcc/nios2-elf/4.1.2/../../../../nios2-elf/lib\libc.a(lib_a-gdtoa-hexnan.o)
 .debug_frame   0x00001a5c       0x2c c:/altera/12.0/nios2eds/bin/gnu/h-i686-mingw32/bin/../lib/gcc/nios2-elf/4.1.2\libgcc.a(_muldi3.o)
 .debug_frame   0x00001a88       0x30 c:/altera/12.0/nios2eds/bin/gnu/h-i686-mingw32/bin/../lib/gcc/nios2-elf/4.1.2\libgcc.a(_fixunsdfsi.o)
 .debug_frame   0x00001ab8       0x38 c:/altera/12.0/nios2eds/bin/gnu/h-i686-mingw32/bin/../lib/gcc/nios2-elf/4.1.2\libgcc.a(_udivdi3.o)
 .debug_frame   0x00001af0       0x38 c:/altera/12.0/nios2eds/bin/gnu/h-i686-mingw32/bin/../lib/gcc/nios2-elf/4.1.2\libgcc.a(_umoddi3.o)
 .debug_frame   0x00001b28       0x2c c:/altera/12.0/nios2eds/bin/gnu/h-i686-mingw32/bin/../lib/gcc/nios2-elf/4.1.2\libgcc.a(_ne_sf.o)
 .debug_frame   0x00001b54       0x2c c:/altera/12.0/nios2eds/bin/gnu/h-i686-mingw32/bin/../lib/gcc/nios2-elf/4.1.2\libgcc.a(_gt_sf.o)
 .debug_frame   0x00001b80       0x2c c:/altera/12.0/nios2eds/bin/gnu/h-i686-mingw32/bin/../lib/gcc/nios2-elf/4.1.2\libgcc.a(_lt_sf.o)
 .debug_frame   0x00001bac       0x70 c:/altera/12.0/nios2eds/bin/gnu/h-i686-mingw32/bin/../lib/gcc/nios2-elf/4.1.2\libgcc.a(_addsub_df.o)
 .debug_frame   0x00001c1c       0x3c c:/altera/12.0/nios2eds/bin/gnu/h-i686-mingw32/bin/../lib/gcc/nios2-elf/4.1.2\libgcc.a(_mul_df.o)
 .debug_frame   0x00001c58       0x30 c:/altera/12.0/nios2eds/bin/gnu/h-i686-mingw32/bin/../lib/gcc/nios2-elf/4.1.2\libgcc.a(_div_df.o)
 .debug_frame   0x00001c88       0x2c c:/altera/12.0/nios2eds/bin/gnu/h-i686-mingw32/bin/../lib/gcc/nios2-elf/4.1.2\libgcc.a(_eq_df.o)
 .debug_frame   0x00001cb4       0x2c c:/altera/12.0/nios2eds/bin/gnu/h-i686-mingw32/bin/../lib/gcc/nios2-elf/4.1.2\libgcc.a(_ne_df.o)
 .debug_frame   0x00001ce0       0x2c c:/altera/12.0/nios2eds/bin/gnu/h-i686-mingw32/bin/../lib/gcc/nios2-elf/4.1.2\libgcc.a(_gt_df.o)
 .debug_frame   0x00001d0c       0x2c c:/altera/12.0/nios2eds/bin/gnu/h-i686-mingw32/bin/../lib/gcc/nios2-elf/4.1.2\libgcc.a(_ge_df.o)
 .debug_frame   0x00001d38       0x2c c:/altera/12.0/nios2eds/bin/gnu/h-i686-mingw32/bin/../lib/gcc/nios2-elf/4.1.2\libgcc.a(_lt_df.o)
 .debug_frame   0x00001d64       0x2c c:/altera/12.0/nios2eds/bin/gnu/h-i686-mingw32/bin/../lib/gcc/nios2-elf/4.1.2\libgcc.a(_le_df.o)
 .debug_frame   0x00001d90       0x30 c:/altera/12.0/nios2eds/bin/gnu/h-i686-mingw32/bin/../lib/gcc/nios2-elf/4.1.2\libgcc.a(_si_to_df.o)
 .debug_frame   0x00001dc0       0x28 c:/altera/12.0/nios2eds/bin/gnu/h-i686-mingw32/bin/../lib/gcc/nios2-elf/4.1.2\libgcc.a(_df_to_si.o)
 .debug_frame   0x00001de8       0x28 c:/altera/12.0/nios2eds/bin/gnu/h-i686-mingw32/bin/../lib/gcc/nios2-elf/4.1.2\libgcc.a(_df_to_sf.o)
 .debug_frame   0x00001e10       0x38 c:/altera/12.0/nios2eds/bin/gnu/h-i686-mingw32/bin/../lib/gcc/nios2-elf/4.1.2\libgcc.a(_usi_to_df.o)
 .debug_frame   0x00001e48       0x20 c:/altera/12.0/nios2eds/bin/gnu/h-i686-mingw32/bin/../lib/gcc/nios2-elf/4.1.2\libgcc.a(_clzsi2.o)
 .debug_frame   0x00001e68       0x20 c:/altera/12.0/nios2eds/bin/gnu/h-i686-mingw32/bin/../lib/gcc/nios2-elf/4.1.2\libgcc.a(_unpack_sf.o)
 .debug_frame   0x00001e88       0x20 c:/altera/12.0/nios2eds/bin/gnu/h-i686-mingw32/bin/../lib/gcc/nios2-elf/4.1.2\libgcc.a(_fpcmp_parts_sf.o)
 .debug_frame   0x00001ea8       0x28 c:/altera/12.0/nios2eds/bin/gnu/h-i686-mingw32/bin/../lib/gcc/nios2-elf/4.1.2\libgcc.a(_make_sf.o)
 .debug_frame   0x00001ed0       0x2c c:/altera/12.0/nios2eds/bin/gnu/h-i686-mingw32/bin/../lib/gcc/nios2-elf/4.1.2\libgcc.a(_pack_df.o)
 .debug_frame   0x00001efc       0x20 c:/altera/12.0/nios2eds/bin/gnu/h-i686-mingw32/bin/../lib/gcc/nios2-elf/4.1.2\libgcc.a(_unpack_df.o)
 .debug_frame   0x00001f1c       0x20 c:/altera/12.0/nios2eds/bin/gnu/h-i686-mingw32/bin/../lib/gcc/nios2-elf/4.1.2\libgcc.a(_fpcmp_parts_df.o)
 .debug_frame   0x00001f3c       0x20 c:/altera/12.0/nios2eds/bin/gnu/h-i686-mingw32/bin/../lib/gcc/nios2-elf/4.1.2\libgcc.a(_pack_sf.o)
 .debug_frame   0x00001f5c       0x2c ../web_server_bsp/\libucosii_bsp.a(alt_dcache_flush.o)
 .debug_frame   0x00001f88       0x48 ../web_server_bsp/\libucosii_bsp.a(alt_flash_dev.o)
 .debug_frame   0x00001fd0       0x48 ../web_server_bsp/\libucosii_bsp.a(alt_fstat.o)
 .debug_frame   0x00002018       0x48 ../web_server_bsp/\libucosii_bsp.a(alt_isatty.o)
 .debug_frame   0x00002060       0x48 ../web_server_bsp/\libucosii_bsp.a(alt_load.o)
 .debug_frame   0x000020a8       0x48 ../web_server_bsp/\libucosii_bsp.a(alt_lseek.o)
 .debug_frame   0x000020f0       0x2c ../web_server_bsp/\libucosii_bsp.a(alt_main.o)
 .debug_frame   0x0000211c       0x64 ../web_server_bsp/\libucosii_bsp.a(alt_open.o)
 .debug_frame   0x00002180       0x2c ../web_server_bsp/\libucosii_bsp.a(alt_release_fd.o)
 .debug_frame   0x000021ac       0x2c ../web_server_bsp/\libucosii_bsp.a(alt_sbrk.o)
 .debug_frame   0x000021d8       0x48 ../web_server_bsp/\libucosii_bsp.a(alt_tick.o)
 .debug_frame   0x00002220       0x30 ../web_server_bsp/\libucosii_bsp.a(alt_usleep.o)
 .debug_frame   0x00002250       0x4c ../web_server_bsp/\libucosii_bsp.a(alt_env_lock.o)
 .debug_frame   0x0000229c       0x4c ../web_server_bsp/\libucosii_bsp.a(alt_malloc_lock.o)
 .debug_frame   0x000022e8      0x3e4 ../web_server_bsp/\libucosii_bsp.a(os_core.o)
 .debug_frame   0x000026cc       0x2c ../web_server_bsp/\libucosii_bsp.a(os_dbg.o)
 .debug_frame   0x000026f8      0x180 ../web_server_bsp/\libucosii_bsp.a(os_flag.o)
 .debug_frame   0x00002878       0xf0 ../web_server_bsp/\libucosii_bsp.a(os_mbox.o)
 .debug_frame   0x00002968       0xd4 ../web_server_bsp/\libucosii_bsp.a(os_mem.o)
 .debug_frame   0x00002a3c      0x144 ../web_server_bsp/\libucosii_bsp.a(os_q.o)
 .debug_frame   0x00002b80       0xf0 ../web_server_bsp/\libucosii_bsp.a(os_sem.o)
 .debug_frame   0x00002c70      0x160 ../web_server_bsp/\libucosii_bsp.a(os_task.o)
 .debug_frame   0x00002dd0       0xa0 ../web_server_bsp/\libucosii_bsp.a(os_time.o)
 .debug_frame   0x00002e70       0x64 ../web_server_bsp/\libucosii_bsp.a(alt_sys_init.o)
 .debug_frame   0x00002ed4       0xd4 ../web_server_bsp/\libucosii_bsp.a(altera_avalon_cfi_flash.o)
 .debug_frame   0x00002fa8      0x210 ../web_server_bsp/\libucosii_bsp.a(altera_avalon_cfi_flash_table.o)
 .debug_frame   0x000031b8       0x80 ../web_server_bsp/\libucosii_bsp.a(altera_avalon_jtag_uart_fd.o)
 .debug_frame   0x00003238       0x80 ../web_server_bsp/\libucosii_bsp.a(altera_avalon_jtag_uart_init.o)
 .debug_frame   0x000032b8       0x2c ../web_server_bsp/\libucosii_bsp.a(altera_avalon_jtag_uart_ioctl.o)
 .debug_frame   0x000032e4       0x2c ../web_server_bsp/\libucosii_bsp.a(altera_avalon_jtag_uart_read.o)
 .debug_frame   0x00003310       0x2c ../web_server_bsp/\libucosii_bsp.a(altera_avalon_jtag_uart_write.o)
 .debug_frame   0x0000333c      0x114 ../web_server_bsp/\libucosii_bsp.a(altera_avalon_lcd_16207.o)
 .debug_frame   0x00003450       0x2c ../web_server_bsp/\libucosii_bsp.a(altera_avalon_lcd_16207_fd.o)
 .debug_frame   0x0000347c      0x240 ../web_server_bsp/\libucosii_bsp.a(altera_avalon_sgdma.o)
 .debug_frame   0x000036bc       0x48 ../web_server_bsp/\libucosii_bsp.a(altera_avalon_timer_sc.o)
 .debug_frame   0x00003704      0x4d8 ../web_server_bsp/\libucosii_bsp.a(altera_avalon_tse.o)
 .debug_frame   0x00003bdc       0x64 ../web_server_bsp/\libucosii_bsp.a(altera_avalon_uart_fd.o)
 .debug_frame   0x00003c40       0x9c ../web_server_bsp/\libucosii_bsp.a(altera_avalon_uart_init.o)
 .debug_frame   0x00003cdc       0x48 ../web_server_bsp/\libucosii_bsp.a(altera_avalon_uart_read.o)
 .debug_frame   0x00003d24       0x48 ../web_server_bsp/\libucosii_bsp.a(altera_avalon_uart_write.o)
 .debug_frame   0x00003d6c      0x1b4 ../web_server_bsp/\libucosii_bsp.a(altera_ro_zipfs.o)
 .debug_frame   0x00003f20      0x114 ../web_server_bsp/\libucosii_bsp.a(ins_tse_mac.o)
 .debug_frame   0x00004034       0x2c ../web_server_bsp/\libucosii_bsp.a(alt_iniche_close.o)
 .debug_frame   0x00004060       0x2c ../web_server_bsp/\libucosii_bsp.a(alt_iniche_dev.o)
 .debug_frame   0x0000408c       0x2c ../web_server_bsp/\libucosii_bsp.a(alt_iniche_read.o)
 .debug_frame   0x000040b8       0x2c ../web_server_bsp/\libucosii_bsp.a(alt_iniche_write.o)
 .debug_frame   0x000040e4       0xb8 ../web_server_bsp/\libucosii_bsp.a(ipnet.o)
 .debug_frame   0x0000419c       0x80 ../web_server_bsp/\libucosii_bsp.a(ipstart.o)
 .debug_frame   0x0000421c       0xf4 ../web_server_bsp/\libucosii_bsp.a(igmp_cmn.o)
 .debug_frame   0x00004310      0x128 ../web_server_bsp/\libucosii_bsp.a(bsdsock.o)
 .debug_frame   0x00004438       0x48 ../web_server_bsp/\libucosii_bsp.a(cksum.o)
 .debug_frame   0x00004480      0x164 ../web_server_bsp/\libucosii_bsp.a(in_utils.o)
 .debug_frame   0x000045e4       0x64 ../web_server_bsp/\libucosii_bsp.a(netmain.o)
 .debug_frame   0x00004648       0xd4 ../web_server_bsp/\libucosii_bsp.a(tk_crnos.o)
 .debug_frame   0x0000471c      0x24c ../web_server_bsp/\libucosii_bsp.a(dhcpclnt.o)
 .debug_frame   0x00004968       0x2c ../web_server_bsp/\libucosii_bsp.a(dhcputil.o)
 .debug_frame   0x00004994       0xb8 ../web_server_bsp/\libucosii_bsp.a(pktalloc.o)
 .debug_frame   0x00004a4c       0x64 ../web_server_bsp/\libucosii_bsp.a(q.o)
 .debug_frame   0x00004ab0       0x48 ../web_server_bsp/\libucosii_bsp.a(udp_open.o)
 .debug_frame   0x00004af8       0xf0 ../web_server_bsp/\libucosii_bsp.a(brdutils.o)
 .debug_frame   0x00004be8       0x9c ../web_server_bsp/\libucosii_bsp.a(osportco.o)
 .debug_frame   0x00004c84      0x110 ../web_server_bsp/\libucosii_bsp.a(targnios.o)
 .debug_frame   0x00004d94      0x208 ../web_server_bsp/\libucosii_bsp.a(nptcp.o)
 .debug_frame   0x00004f9c       0x68 ../web_server_bsp/\libucosii_bsp.a(rawsock.o)
 .debug_frame   0x00005004      0x224 ../web_server_bsp/\libucosii_bsp.a(sockcall.o)
 .debug_frame   0x00005228      0x1d0 ../web_server_bsp/\libucosii_bsp.a(socket.o)
 .debug_frame   0x000053f8      0x294 ../web_server_bsp/\libucosii_bsp.a(socket2.o)
 .debug_frame   0x0000568c      0x110 ../web_server_bsp/\libucosii_bsp.a(soselect.o)
 .debug_frame   0x0000579c       0xd8 ../web_server_bsp/\libucosii_bsp.a(tcp_in.o)
 .debug_frame   0x00005874       0x68 ../web_server_bsp/\libucosii_bsp.a(tcp_out.o)
 .debug_frame   0x000058dc      0x10c ../web_server_bsp/\libucosii_bsp.a(tcp_subr.o)
 .debug_frame   0x000059e8       0x64 ../web_server_bsp/\libucosii_bsp.a(tcp_timr.o)
 .debug_frame   0x00005a4c       0x80 ../web_server_bsp/\libucosii_bsp.a(tcp_usr.o)
 .debug_frame   0x00005acc       0x2c ../web_server_bsp/\libucosii_bsp.a(tcpport.o)
 .debug_frame   0x00005af8       0xbc ../web_server_bsp/\libucosii_bsp.a(udpsock.o)
 .debug_frame   0x00005bb4       0x2c ../web_server_bsp/\libucosii_bsp.a(alt_alarm_start.o)
 .debug_frame   0x00005be0       0x2c ../web_server_bsp/\libucosii_bsp.a(alt_busy_sleep.o)
 .debug_frame   0x00005c0c       0x48 ../web_server_bsp/\libucosii_bsp.a(alt_close.o)
 .debug_frame   0x00005c54       0x2c ../web_server_bsp/\libucosii_bsp.a(alt_dcache_flush_all.o)
 .debug_frame   0x00005c80       0x2c ../web_server_bsp/\libucosii_bsp.a(alt_dev.o)
 .debug_frame   0x00005cac       0x48 ../web_server_bsp/\libucosii_bsp.a(alt_dev_llist_insert.o)
 .debug_frame   0x00005cf4       0x2c ../web_server_bsp/\libucosii_bsp.a(alt_do_ctors.o)
 .debug_frame   0x00005d20       0x2c ../web_server_bsp/\libucosii_bsp.a(alt_do_dtors.o)
 .debug_frame   0x00005d4c       0x2c ../web_server_bsp/\libucosii_bsp.a(alt_find_dev.o)
 .debug_frame   0x00005d78       0x2c ../web_server_bsp/\libucosii_bsp.a(alt_find_file.o)
 .debug_frame   0x00005da4       0x2c ../web_server_bsp/\libucosii_bsp.a(alt_fs_reg.o)
 .debug_frame   0x00005dd0       0x2c ../web_server_bsp/\libucosii_bsp.a(alt_get_fd.o)
 .debug_frame   0x00005dfc       0x2c ../web_server_bsp/\libucosii_bsp.a(alt_icache_flush_all.o)
 .debug_frame   0x00005e28       0x80 ../web_server_bsp/\libucosii_bsp.a(alt_iic.o)
 .debug_frame   0x00005ea8       0x2c ../web_server_bsp/\libucosii_bsp.a(alt_iic_isr_register.o)
 .debug_frame   0x00005ed4       0x48 ../web_server_bsp/\libucosii_bsp.a(alt_io_redirect.o)
 .debug_frame   0x00005f1c       0x2c ../web_server_bsp/\libucosii_bsp.a(alt_irq_handler.o)
 .debug_frame   0x00005f48       0x48 ../web_server_bsp/\libucosii_bsp.a(alt_read.o)
 .debug_frame   0x00005f90       0x2c ../web_server_bsp/\libucosii_bsp.a(alt_remap_cached.o)
 .debug_frame   0x00005fbc       0x2c ../web_server_bsp/\libucosii_bsp.a(alt_remap_uncached.o)
 .debug_frame   0x00005fe8       0x2c ../web_server_bsp/\libucosii_bsp.a(alt_uncached_malloc.o)
 .debug_frame   0x00006014       0x48 ../web_server_bsp/\libucosii_bsp.a(alt_write.o)
 .debug_frame   0x0000605c       0x2c ../web_server_bsp/\libucosii_bsp.a(altera_nios2_qsys_irq.o)
 .debug_frame   0x00006088      0x128 ../web_server_bsp/\libucosii_bsp.a(os_cpu_c.o)
 .debug_frame   0x000061b0       0x80 ../web_server_bsp/\libucosii_bsp.a(altera_avalon_cfi_flash_amd.o)
 .debug_frame   0x00006230       0x80 ../web_server_bsp/\libucosii_bsp.a(altera_avalon_cfi_flash_intel.o)
 .debug_frame   0x000062b0       0xe0 ../web_server_bsp/\libucosii_bsp.a(allports.o)
 .debug_frame   0x00006390       0x84 ../web_server_bsp/\libucosii_bsp.a(timeouts.o)
 .debug_frame   0x00006414       0x48 ../web_server_bsp/\libucosii_bsp.a(tk_misc.o)
 .debug_frame   0x0000645c       0x2c ../web_server_bsp/\libucosii_bsp.a(alt_iniche_fcntl.o)
 .debug_frame   0x00006488      0x160 ../web_server_bsp/\libucosii_bsp.a(et_arp.o)
 .debug_frame   0x000065e8       0x80 ../web_server_bsp/\libucosii_bsp.a(iface.o)
 .debug_frame   0x00006668      0x160 ../web_server_bsp/\libucosii_bsp.a(ip.o)
 .debug_frame   0x000067c8      0x1d4 ../web_server_bsp/\libucosii_bsp.a(ip_reasm.o)
 .debug_frame   0x0000699c       0x68 ../web_server_bsp/\libucosii_bsp.a(ipdemux.o)
 .debug_frame   0x00006a04       0x64 ../web_server_bsp/\libucosii_bsp.a(ipmc.o)
 .debug_frame   0x00006a68       0x64 ../web_server_bsp/\libucosii_bsp.a(ipport.o)
 .debug_frame   0x00006acc       0xb8 ../web_server_bsp/\libucosii_bsp.a(ipraw.o)
 .debug_frame   0x00006b84       0x64 ../web_server_bsp/\libucosii_bsp.a(iproute.o)
 .debug_frame   0x00006be8       0xd4 ../web_server_bsp/\libucosii_bsp.a(udp.o)
 .debug_frame   0x00006cbc       0x2c ../web_server_bsp/\libucosii_bsp.a(igmp.o)
 .debug_frame   0x00006ce8       0x9c ../web_server_bsp/\libucosii_bsp.a(igmp2.o)
 .debug_frame   0x00006d84       0x84 ../web_server_bsp/\libucosii_bsp.a(ipopt.o)
 .debug_frame   0x00006e08       0x4c ../web_server_bsp/\libucosii_bsp.a(u_mctest.o)
 .debug_frame   0x00006e54       0x48 ../web_server_bsp/\libucosii_bsp.a(dhcsetup.o)
 .debug_frame   0x00006e9c      0x10c ../web_server_bsp/\libucosii_bsp.a(memdev.o)
 .debug_frame   0x00006fa8      0x10c ../web_server_bsp/\libucosii_bsp.a(parseip.o)
 .debug_frame   0x000070b4       0x2c ../web_server_bsp/\libucosii_bsp.a(tcpcksum.o)
 .debug_frame   0x000070e0       0xf0 ../web_server_bsp/\libucosii_bsp.a(in_pcb.o)
 .debug_frame   0x000071d0      0x320 ../web_server_bsp/\libucosii_bsp.a(vfsfiles.o)
 .debug_frame   0x000074f0       0x2c ../web_server_bsp/\libucosii_bsp.a(vfsport.o)
 .debug_frame   0x0000751c       0x48 ../web_server_bsp/\libucosii_bsp.a(alt_fcntl.o)
 .debug_frame   0x00007564       0x2c ../web_server_bsp/\libucosii_bsp.a(alt_icache_flush.o)
 .debug_frame   0x00007590       0x84 ../web_server_bsp/\libucosii_bsp.a(icmp.o)
 .debug_frame   0x00007614       0x20 c:/altera/12.0/nios2eds/bin/gnu/h-i686-mingw32/bin/../lib/gcc/nios2-elf/4.1.2/../../../../nios2-elf/lib\libc.a(lib_a-atexit.o)
 .debug_frame   0x00007634       0x20 c:/altera/12.0/nios2eds/bin/gnu/h-i686-mingw32/bin/../lib/gcc/nios2-elf/4.1.2/../../../../nios2-elf/lib\libc.a(lib_a-calloc.o)
 .debug_frame   0x00007654       0x28 c:/altera/12.0/nios2eds/bin/gnu/h-i686-mingw32/bin/../lib/gcc/nios2-elf/4.1.2/../../../../nios2-elf/lib\libc.a(lib_a-exit.o)
 .debug_frame   0x0000767c       0x30 c:/altera/12.0/nios2eds/bin/gnu/h-i686-mingw32/bin/../lib/gcc/nios2-elf/4.1.2/../../../../nios2-elf/lib\libc.a(lib_a-malloc.o)
 .debug_frame   0x000076ac       0x30 c:/altera/12.0/nios2eds/bin/gnu/h-i686-mingw32/bin/../lib/gcc/nios2-elf/4.1.2/../../../../nios2-elf/lib\libc.a(lib_a-vprintf.o)
 .debug_frame   0x000076dc       0x38 c:/altera/12.0/nios2eds/bin/gnu/h-i686-mingw32/bin/../lib/gcc/nios2-elf/4.1.2/../../../../nios2-elf/lib\libc.a(lib_a-vsprintf.o)
 .debug_frame   0x00007714       0x34 c:/altera/12.0/nios2eds/bin/gnu/h-i686-mingw32/bin/../lib/gcc/nios2-elf/4.1.2/../../../../nios2-elf/lib\libc.a(lib_a-__atexit.o)
 .debug_frame   0x00007748       0x4c c:/altera/12.0/nios2eds/bin/gnu/h-i686-mingw32/bin/../lib/gcc/nios2-elf/4.1.2/../../../../nios2-elf/lib\libc.a(lib_a-__call_atexit.o)
 .debug_frame   0x00007794       0x48 ../web_server_bsp/\libucosii_bsp.a(alt_exit.o)

.debug_str      0x00000000     0x4655
 *(.debug_str)
 .debug_str     0x00000000       0x20 obj/default/alt_error_handler.o
 .debug_str     0x00000020       0xaf obj/default/http.o
 .debug_str     0x000000cf       0x56 obj/default/network_utilities.o
 .debug_str     0x00000125       0x6f obj/default/srec_flash.o
 .debug_str     0x00000194       0x12 obj/default/tse_my_system.o
 .debug_str     0x000001a6       0x31 obj/default/web_server.o
 .debug_str     0x000001d7      0x164 c:/altera/12.0/nios2eds/bin/gnu/h-i686-mingw32/bin/../lib/gcc/nios2-elf/4.1.2\libgcc.a(lib2-divmod.o)
                                0x1b1 (size before relaxing)
 .debug_str     0x0000033b      0x430 c:/altera/12.0/nios2eds/bin/gnu/h-i686-mingw32/bin/../lib/gcc/nios2-elf/4.1.2/../../../../nios2-elf/lib\libc.a(lib_a-atoi.o)
                                0x4f9 (size before relaxing)
 .debug_str     0x0000076b       0xdf c:/altera/12.0/nios2eds/bin/gnu/h-i686-mingw32/bin/../lib/gcc/nios2-elf/4.1.2/../../../../nios2-elf/lib\libc.a(lib_a-ctype_.o)
                                0x102 (size before relaxing)
 .debug_str     0x0000084a       0xd8 c:/altera/12.0/nios2eds/bin/gnu/h-i686-mingw32/bin/../lib/gcc/nios2-elf/4.1.2/../../../../nios2-elf/lib\libc.a(lib_a-fclose.o)
                                0x513 (size before relaxing)
 .debug_str     0x00000922       0x65 c:/altera/12.0/nios2eds/bin/gnu/h-i686-mingw32/bin/../lib/gcc/nios2-elf/4.1.2/../../../../nios2-elf/lib\libc.a(lib_a-fflush.o)
                                0x52f (size before relaxing)
 .debug_str     0x00000987       0x4e c:/altera/12.0/nios2eds/bin/gnu/h-i686-mingw32/bin/../lib/gcc/nios2-elf/4.1.2/../../../../nios2-elf/lib\libc.a(lib_a-fgetpos.o)
                                0x511 (size before relaxing)
 .debug_str     0x000009d5      0x102 c:/altera/12.0/nios2eds/bin/gnu/h-i686-mingw32/bin/../lib/gcc/nios2-elf/4.1.2/../../../../nios2-elf/lib\libc.a(lib_a-findfp.o)
                                0x5f1 (size before relaxing)
 .debug_str     0x00000ad7       0x4f c:/altera/12.0/nios2eds/bin/gnu/h-i686-mingw32/bin/../lib/gcc/nios2-elf/4.1.2/../../../../nios2-elf/lib\libc.a(lib_a-fopen.o)
                                0x522 (size before relaxing)
 .debug_str     0x00000b26       0x5d c:/altera/12.0/nios2eds/bin/gnu/h-i686-mingw32/bin/../lib/gcc/nios2-elf/4.1.2/../../../../nios2-elf/lib\libc.a(lib_a-fprintf.o)
                                0x51c (size before relaxing)
 .debug_str     0x00000b83       0x6a c:/altera/12.0/nios2eds/bin/gnu/h-i686-mingw32/bin/../lib/gcc/nios2-elf/4.1.2/../../../../nios2-elf/lib\libc.a(lib_a-fread.o)
                                0x54b (size before relaxing)
 .debug_str     0x00000bed      0x15b c:/altera/12.0/nios2eds/bin/gnu/h-i686-mingw32/bin/../lib/gcc/nios2-elf/4.1.2/../../../../nios2-elf/lib\libc.a(lib_a-freer.o)
                                0x640 (size before relaxing)
 .debug_str     0x00000d48      0x13a c:/altera/12.0/nios2eds/bin/gnu/h-i686-mingw32/bin/../lib/gcc/nios2-elf/4.1.2/../../../../nios2-elf/lib\libc.a(lib_a-fseek.o)
                                0x62f (size before relaxing)
 .debug_str     0x00000e82       0xd1 c:/altera/12.0/nios2eds/bin/gnu/h-i686-mingw32/bin/../lib/gcc/nios2-elf/4.1.2/../../../../nios2-elf/lib\libc.a(lib_a-fstatr.o)
                                0x5ee (size before relaxing)
 .debug_str     0x00000f53       0x48 c:/altera/12.0/nios2eds/bin/gnu/h-i686-mingw32/bin/../lib/gcc/nios2-elf/4.1.2/../../../../nios2-elf/lib\libc.a(lib_a-ftell.o)
                                0x50b (size before relaxing)
 .debug_str     0x00000f9b       0x5e c:/altera/12.0/nios2eds/bin/gnu/h-i686-mingw32/bin/../lib/gcc/nios2-elf/4.1.2/../../../../nios2-elf/lib\libc.a(lib_a-fwalk.o)
                                0x532 (size before relaxing)
 .debug_str     0x00000ff9       0x87 c:/altera/12.0/nios2eds/bin/gnu/h-i686-mingw32/bin/../lib/gcc/nios2-elf/4.1.2/../../../../nios2-elf/lib\libc.a(lib_a-fwrite.o)
                                0x55c (size before relaxing)
 .debug_str     0x00001080       0x40 c:/altera/12.0/nios2eds/bin/gnu/h-i686-mingw32/bin/../lib/gcc/nios2-elf/4.1.2/../../../../nios2-elf/lib\libc.a(lib_a-getc.o)
                                0x50f (size before relaxing)
 .debug_str     0x000010c0       0x46 c:/altera/12.0/nios2eds/bin/gnu/h-i686-mingw32/bin/../lib/gcc/nios2-elf/4.1.2/../../../../nios2-elf/lib\libc.a(lib_a-impure.o)
                                0x517 (size before relaxing)
 .debug_str     0x00001106       0x3d c:/altera/12.0/nios2eds/bin/gnu/h-i686-mingw32/bin/../lib/gcc/nios2-elf/4.1.2/../../../../nios2-elf/lib\libc.a(lib_a-int_errno.o)
                                0x160 (size before relaxing)
 .debug_str     0x00001143       0x53 c:/altera/12.0/nios2eds/bin/gnu/h-i686-mingw32/bin/../lib/gcc/nios2-elf/4.1.2/../../../../nios2-elf/lib\libc.a(lib_a-makebuf.o)
                                0x603 (size before relaxing)
 .debug_str     0x00001196       0xe9 c:/altera/12.0/nios2eds/bin/gnu/h-i686-mingw32/bin/../lib/gcc/nios2-elf/4.1.2/../../../../nios2-elf/lib\libc.a(lib_a-mallocr.o)
                                0x6ee (size before relaxing)
 .debug_str     0x0000127f       0xf2 c:/altera/12.0/nios2eds/bin/gnu/h-i686-mingw32/bin/../lib/gcc/nios2-elf/4.1.2/../../../../nios2-elf/lib\libc.a(lib_a-memcpy.o)
                                0x125 (size before relaxing)
 .debug_str     0x00001371       0x5d c:/altera/12.0/nios2eds/bin/gnu/h-i686-mingw32/bin/../lib/gcc/nios2-elf/4.1.2/../../../../nios2-elf/lib\libc.a(lib_a-memmove.o)
                                0x19a (size before relaxing)
 .debug_str     0x000013ce       0x56 c:/altera/12.0/nios2eds/bin/gnu/h-i686-mingw32/bin/../lib/gcc/nios2-elf/4.1.2/../../../../nios2-elf/lib\libc.a(lib_a-memset.o)
                                0x17b (size before relaxing)
 .debug_str     0x00001424       0x41 c:/altera/12.0/nios2eds/bin/gnu/h-i686-mingw32/bin/../lib/gcc/nios2-elf/4.1.2/../../../../nios2-elf/lib\libc.a(lib_a-openr.o)
                                0x509 (size before relaxing)
 .debug_str     0x00001465       0x4b c:/altera/12.0/nios2eds/bin/gnu/h-i686-mingw32/bin/../lib/gcc/nios2-elf/4.1.2/../../../../nios2-elf/lib\libc.a(lib_a-perror.o)
                                0x50f (size before relaxing)
 .debug_str     0x000014b0       0x44 c:/altera/12.0/nios2eds/bin/gnu/h-i686-mingw32/bin/../lib/gcc/nios2-elf/4.1.2/../../../../nios2-elf/lib\libc.a(lib_a-printf.o)
                                0x520 (size before relaxing)
 .debug_str     0x000014f4       0x40 c:/altera/12.0/nios2eds/bin/gnu/h-i686-mingw32/bin/../lib/gcc/nios2-elf/4.1.2/../../../../nios2-elf/lib\libc.a(lib_a-putc.o)
                                0x50f (size before relaxing)
 .debug_str     0x00001534       0x4e c:/altera/12.0/nios2eds/bin/gnu/h-i686-mingw32/bin/../lib/gcc/nios2-elf/4.1.2/../../../../nios2-elf/lib\libc.a(lib_a-putchar.o)
                                0x50c (size before relaxing)
 .debug_str     0x00001582       0x40 c:/altera/12.0/nios2eds/bin/gnu/h-i686-mingw32/bin/../lib/gcc/nios2-elf/4.1.2/../../../../nios2-elf/lib\libc.a(lib_a-puts.o)
                                0x546 (size before relaxing)
 .debug_str     0x000015c2       0x4d c:/altera/12.0/nios2eds/bin/gnu/h-i686-mingw32/bin/../lib/gcc/nios2-elf/4.1.2/../../../../nios2-elf/lib\libc.a(lib_a-refill.o)
                                0x517 (size before relaxing)
 .debug_str     0x0000160f       0x4a c:/altera/12.0/nios2eds/bin/gnu/h-i686-mingw32/bin/../lib/gcc/nios2-elf/4.1.2/../../../../nios2-elf/lib\libc.a(lib_a-rget.o)
                                0x50d (size before relaxing)
 .debug_str     0x00001659       0x50 c:/altera/12.0/nios2eds/bin/gnu/h-i686-mingw32/bin/../lib/gcc/nios2-elf/4.1.2/../../../../nios2-elf/lib\libc.a(lib_a-sbrkr.o)
                                0x508 (size before relaxing)
 .debug_str     0x000016a9       0x46 c:/altera/12.0/nios2eds/bin/gnu/h-i686-mingw32/bin/../lib/gcc/nios2-elf/4.1.2/../../../../nios2-elf/lib\libc.a(lib_a-sprintf.o)
                                0x528 (size before relaxing)
 .debug_str     0x000016ef       0x53 c:/altera/12.0/nios2eds/bin/gnu/h-i686-mingw32/bin/../lib/gcc/nios2-elf/4.1.2/../../../../nios2-elf/lib\libc.a(lib_a-sscanf.o)
                                0x534 (size before relaxing)
 .debug_str     0x00001742       0x5b c:/altera/12.0/nios2eds/bin/gnu/h-i686-mingw32/bin/../lib/gcc/nios2-elf/4.1.2/../../../../nios2-elf/lib\libc.a(lib_a-stdio.o)
                                0x52e (size before relaxing)
 .debug_str     0x0000179d       0x4a c:/altera/12.0/nios2eds/bin/gnu/h-i686-mingw32/bin/../lib/gcc/nios2-elf/4.1.2/../../../../nios2-elf/lib\libc.a(lib_a-strcasecmp.o)
                                0x174 (size before relaxing)
 .debug_str     0x000017e7       0x4d c:/altera/12.0/nios2eds/bin/gnu/h-i686-mingw32/bin/../lib/gcc/nios2-elf/4.1.2/../../../../nios2-elf/lib\libc.a(lib_a-strcat.o)
                                0x16b (size before relaxing)
 .debug_str     0x00001834       0x47 c:/altera/12.0/nios2eds/bin/gnu/h-i686-mingw32/bin/../lib/gcc/nios2-elf/4.1.2/../../../../nios2-elf/lib\libc.a(lib_a-strchr.o)
                                0x172 (size before relaxing)
 .debug_str     0x0000187b       0x42 c:/altera/12.0/nios2eds/bin/gnu/h-i686-mingw32/bin/../lib/gcc/nios2-elf/4.1.2/../../../../nios2-elf/lib\libc.a(lib_a-strcmp.o)
                                0x160 (size before relaxing)
 .debug_str     0x000018bd       0x42 c:/altera/12.0/nios2eds/bin/gnu/h-i686-mingw32/bin/../lib/gcc/nios2-elf/4.1.2/../../../../nios2-elf/lib\libc.a(lib_a-strcpy.o)
                                0x182 (size before relaxing)
 .debug_str     0x000018ff       0x44 c:/altera/12.0/nios2eds/bin/gnu/h-i686-mingw32/bin/../lib/gcc/nios2-elf/4.1.2/../../../../nios2-elf/lib\libc.a(lib_a-strerror.o)
                                0x171 (size before relaxing)
 .debug_str     0x00001943       0x42 c:/altera/12.0/nios2eds/bin/gnu/h-i686-mingw32/bin/../lib/gcc/nios2-elf/4.1.2/../../../../nios2-elf/lib\libc.a(lib_a-strlen.o)
                                0x17a (size before relaxing)
 .debug_str     0x00001985       0x44 c:/altera/12.0/nios2eds/bin/gnu/h-i686-mingw32/bin/../lib/gcc/nios2-elf/4.1.2/../../../../nios2-elf/lib\libc.a(lib_a-strncmp.o)
                                0x169 (size before relaxing)
 .debug_str     0x000019c9       0x44 c:/altera/12.0/nios2eds/bin/gnu/h-i686-mingw32/bin/../lib/gcc/nios2-elf/4.1.2/../../../../nios2-elf/lib\libc.a(lib_a-strncpy.o)
                                0x191 (size before relaxing)
 .debug_str     0x00001a0d       0xe8 c:/altera/12.0/nios2eds/bin/gnu/h-i686-mingw32/bin/../lib/gcc/nios2-elf/4.1.2/../../../../nios2-elf/lib\libc.a(lib_a-strstr.o)
                                0x221 (size before relaxing)
 .debug_str     0x00001af5       0x42 c:/altera/12.0/nios2eds/bin/gnu/h-i686-mingw32/bin/../lib/gcc/nios2-elf/4.1.2/../../../../nios2-elf/lib\libc.a(lib_a-strtok.o)
                                0x507 (size before relaxing)
 .debug_str     0x00001b37       0x6c c:/altera/12.0/nios2eds/bin/gnu/h-i686-mingw32/bin/../lib/gcc/nios2-elf/4.1.2/../../../../nios2-elf/lib\libc.a(lib_a-strtok_r.o)
                                0x199 (size before relaxing)
 .debug_str     0x00001ba3       0x61 c:/altera/12.0/nios2eds/bin/gnu/h-i686-mingw32/bin/../lib/gcc/nios2-elf/4.1.2/../../../../nios2-elf/lib\libc.a(lib_a-strtol.o)
                                0x53b (size before relaxing)
 .debug_str     0x00001c04       0x4c c:/altera/12.0/nios2eds/bin/gnu/h-i686-mingw32/bin/../lib/gcc/nios2-elf/4.1.2/../../../../nios2-elf/lib\libc.a(lib_a-u_strerr.o)
                                 0xed (size before relaxing)
 .debug_str     0x00001c50      0x167 c:/altera/12.0/nios2eds/bin/gnu/h-i686-mingw32/bin/../lib/gcc/nios2-elf/4.1.2/../../../../nios2-elf/lib\libc.a(lib_a-vfprintf.o)
                                0x6f5 (size before relaxing)
 .debug_str     0x00001db7      0x144 c:/altera/12.0/nios2eds/bin/gnu/h-i686-mingw32/bin/../lib/gcc/nios2-elf/4.1.2/../../../../nios2-elf/lib\libc.a(lib_a-vfscanf.o)
                                0x68e (size before relaxing)
 .debug_str     0x00001efb       0x4a c:/altera/12.0/nios2eds/bin/gnu/h-i686-mingw32/bin/../lib/gcc/nios2-elf/4.1.2/../../../../nios2-elf/lib\libc.a(lib_a-wbuf.o)
                                0x50d (size before relaxing)
 .debug_str     0x00001f45       0x4c c:/altera/12.0/nios2eds/bin/gnu/h-i686-mingw32/bin/../lib/gcc/nios2-elf/4.1.2/../../../../nios2-elf/lib\libc.a(lib_a-writer.o)
                                0x50b (size before relaxing)
 .debug_str     0x00001f91       0x46 c:/altera/12.0/nios2eds/bin/gnu/h-i686-mingw32/bin/../lib/gcc/nios2-elf/4.1.2/../../../../nios2-elf/lib\libc.a(lib_a-wsetup.o)
                                0x509 (size before relaxing)
 .debug_str     0x00001fd7       0x43 c:/altera/12.0/nios2eds/bin/gnu/h-i686-mingw32/bin/../lib/gcc/nios2-elf/4.1.2/../../../../nios2-elf/lib\libc.a(lib_a-closer.o)
                                0x4fb (size before relaxing)
 .debug_str     0x0000201a       0xfc c:/altera/12.0/nios2eds/bin/gnu/h-i686-mingw32/bin/../lib/gcc/nios2-elf/4.1.2/../../../../nios2-elf/lib\libc.a(lib_a-dtoa.o)
                                0x5fe (size before relaxing)
 .debug_str     0x00002116       0x47 c:/altera/12.0/nios2eds/bin/gnu/h-i686-mingw32/bin/../lib/gcc/nios2-elf/4.1.2/../../../../nios2-elf/lib\libc.a(lib_a-flags.o)
                                0x4fe (size before relaxing)
 .debug_str     0x0000215d       0x48 c:/altera/12.0/nios2eds/bin/gnu/h-i686-mingw32/bin/../lib/gcc/nios2-elf/4.1.2/../../../../nios2-elf/lib\libc.a(lib_a-fputc.o)
                                0x517 (size before relaxing)
 .debug_str     0x000021a5       0x48 c:/altera/12.0/nios2eds/bin/gnu/h-i686-mingw32/bin/../lib/gcc/nios2-elf/4.1.2/../../../../nios2-elf/lib\libc.a(lib_a-fputs.o)
                                0x555 (size before relaxing)
 .debug_str     0x000021ed       0x66 c:/altera/12.0/nios2eds/bin/gnu/h-i686-mingw32/bin/../lib/gcc/nios2-elf/4.1.2/../../../../nios2-elf/lib\libc.a(lib_a-fvwrite.o)
                                0x560 (size before relaxing)
 .debug_str     0x00002253       0x45 c:/altera/12.0/nios2eds/bin/gnu/h-i686-mingw32/bin/../lib/gcc/nios2-elf/4.1.2/../../../../nios2-elf/lib\libc.a(lib_a-isattyr.o)
                                0x4fd (size before relaxing)
 .debug_str     0x00002298       0x58 c:/altera/12.0/nios2eds/bin/gnu/h-i686-mingw32/bin/../lib/gcc/nios2-elf/4.1.2/../../../../nios2-elf/lib\libc.a(lib_a-iswspace.o)
                                0x188 (size before relaxing)
 .debug_str     0x000022f0      0x20a c:/altera/12.0/nios2eds/bin/gnu/h-i686-mingw32/bin/../lib/gcc/nios2-elf/4.1.2/../../../../nios2-elf/lib\libc.a(lib_a-locale.o)
                                0x6a6 (size before relaxing)
 .debug_str     0x000024fa       0x43 c:/altera/12.0/nios2eds/bin/gnu/h-i686-mingw32/bin/../lib/gcc/nios2-elf/4.1.2/../../../../nios2-elf/lib\libc.a(lib_a-lseekr.o)
                                0x509 (size before relaxing)
 .debug_str     0x0000253d       0x56 c:/altera/12.0/nios2eds/bin/gnu/h-i686-mingw32/bin/../lib/gcc/nios2-elf/4.1.2/../../../../nios2-elf/lib\libc.a(lib_a-mbrtowc.o)
                                0x52e (size before relaxing)
 .debug_str     0x00002593       0x4d c:/altera/12.0/nios2eds/bin/gnu/h-i686-mingw32/bin/../lib/gcc/nios2-elf/4.1.2/../../../../nios2-elf/lib\libc.a(lib_a-mbtowc_r.o)
                                0x51f (size before relaxing)
 .debug_str     0x000025e0       0x47 c:/altera/12.0/nios2eds/bin/gnu/h-i686-mingw32/bin/../lib/gcc/nios2-elf/4.1.2/../../../../nios2-elf/lib\libc.a(lib_a-memchr.o)
                                0x188 (size before relaxing)
 .debug_str     0x00002627       0x42 c:/altera/12.0/nios2eds/bin/gnu/h-i686-mingw32/bin/../lib/gcc/nios2-elf/4.1.2/../../../../nios2-elf/lib\libc.a(lib_a-memcmp.o)
                                0x167 (size before relaxing)
 .debug_str     0x00002669       0xf8 c:/altera/12.0/nios2eds/bin/gnu/h-i686-mingw32/bin/../lib/gcc/nios2-elf/4.1.2/../../../../nios2-elf/lib\libc.a(lib_a-mprec.o)
                                0x60b (size before relaxing)
 .debug_str     0x00002761       0x41 c:/altera/12.0/nios2eds/bin/gnu/h-i686-mingw32/bin/../lib/gcc/nios2-elf/4.1.2/../../../../nios2-elf/lib\libc.a(lib_a-readr.o)
                                0x509 (size before relaxing)
 .debug_str     0x000027a2       0x59 c:/altera/12.0/nios2eds/bin/gnu/h-i686-mingw32/bin/../lib/gcc/nios2-elf/4.1.2/../../../../nios2-elf/lib\libc.a(lib_a-reallocr.o)
                                0x5c0 (size before relaxing)
 .debug_str     0x000027fb       0xd9 c:/altera/12.0/nios2eds/bin/gnu/h-i686-mingw32/bin/../lib/gcc/nios2-elf/4.1.2/../../../../nios2-elf/lib\libc.a(lib_a-s_isinfd.o)
                                0x187 (size before relaxing)
 .debug_str     0x000028d4       0x46 c:/altera/12.0/nios2eds/bin/gnu/h-i686-mingw32/bin/../lib/gcc/nios2-elf/4.1.2/../../../../nios2-elf/lib\libc.a(lib_a-s_isnand.o)
                                0x187 (size before relaxing)
 .debug_str     0x0000291a       0x4f c:/altera/12.0/nios2eds/bin/gnu/h-i686-mingw32/bin/../lib/gcc/nios2-elf/4.1.2/../../../../nios2-elf/lib\libc.a(lib_a-sccl.o)
                                0x16c (size before relaxing)
 .debug_str     0x00002969       0x40 c:/altera/12.0/nios2eds/bin/gnu/h-i686-mingw32/bin/../lib/gcc/nios2-elf/4.1.2/../../../../nios2-elf/lib\libc.a(lib_a-sf_nan.o)
                                0x17e (size before relaxing)
 .debug_str     0x000029a9       0xef c:/altera/12.0/nios2eds/bin/gnu/h-i686-mingw32/bin/../lib/gcc/nios2-elf/4.1.2/../../../../nios2-elf/lib\libc.a(lib_a-strtod.o)
                                0x61e (size before relaxing)
 .debug_str     0x00002a98       0x49 c:/altera/12.0/nios2eds/bin/gnu/h-i686-mingw32/bin/../lib/gcc/nios2-elf/4.1.2/../../../../nios2-elf/lib\libc.a(lib_a-strtoll_r.o)
                                0x52c (size before relaxing)
 .debug_str     0x00002ae1       0x4f c:/altera/12.0/nios2eds/bin/gnu/h-i686-mingw32/bin/../lib/gcc/nios2-elf/4.1.2/../../../../nios2-elf/lib\libc.a(lib_a-strtoul.o)
                                0x53e (size before relaxing)
 .debug_str     0x00002b30       0x4b c:/altera/12.0/nios2eds/bin/gnu/h-i686-mingw32/bin/../lib/gcc/nios2-elf/4.1.2/../../../../nios2-elf/lib\libc.a(lib_a-strtoull_r.o)
                                0x52e (size before relaxing)
 .debug_str     0x00002b7b       0x55 c:/altera/12.0/nios2eds/bin/gnu/h-i686-mingw32/bin/../lib/gcc/nios2-elf/4.1.2/../../../../nios2-elf/lib\libc.a(lib_a-ungetc.o)
                                0x51d (size before relaxing)
 .debug_str     0x00002bd0       0x19 c:/altera/12.0/nios2eds/bin/gnu/h-i686-mingw32/bin/../lib/gcc/nios2-elf/4.1.2/../../../../nios2-elf/lib\libc.a(lib_a-callocr.o)
                                0x53f (size before relaxing)
 .debug_str     0x00002be9       0x9e c:/altera/12.0/nios2eds/bin/gnu/h-i686-mingw32/bin/../lib/gcc/nios2-elf/4.1.2/../../../../nios2-elf/lib\libc.a(lib_a-gdtoa-gethex.o)
                                0x5b9 (size before relaxing)
 .debug_str     0x00002c87       0x52 c:/altera/12.0/nios2eds/bin/gnu/h-i686-mingw32/bin/../lib/gcc/nios2-elf/4.1.2/../../../../nios2-elf/lib\libc.a(lib_a-gdtoa-hexnan.o)
                                0x1cc (size before relaxing)
 .debug_str     0x00002cd9       0x67 c:/altera/12.0/nios2eds/bin/gnu/h-i686-mingw32/bin/../lib/gcc/nios2-elf/4.1.2\libgcc.a(_muldi3.o)
                                0x1a9 (size before relaxing)
 .debug_str     0x00002d40       0x14 c:/altera/12.0/nios2eds/bin/gnu/h-i686-mingw32/bin/../lib/gcc/nios2-elf/4.1.2\libgcc.a(_fixunsdfsi.o)
                                0x168 (size before relaxing)
 .debug_str     0x00002d54       0x54 c:/altera/12.0/nios2eds/bin/gnu/h-i686-mingw32/bin/../lib/gcc/nios2-elf/4.1.2\libgcc.a(_udivdi3.o)
                                0x1f4 (size before relaxing)
 .debug_str     0x00002da8        0xa c:/altera/12.0/nios2eds/bin/gnu/h-i686-mingw32/bin/../lib/gcc/nios2-elf/4.1.2\libgcc.a(_umoddi3.o)
                                0x1f4 (size before relaxing)
 .debug_str     0x00002db2       0xcd c:/altera/12.0/nios2eds/bin/gnu/h-i686-mingw32/bin/../lib/gcc/nios2-elf/4.1.2\libgcc.a(_ne_sf.o)
                                0x1f5 (size before relaxing)
 .debug_str     0x00002e7f        0x8 c:/altera/12.0/nios2eds/bin/gnu/h-i686-mingw32/bin/../lib/gcc/nios2-elf/4.1.2\libgcc.a(_gt_sf.o)
                                0x1f5 (size before relaxing)
 .debug_str     0x00002e87        0x8 c:/altera/12.0/nios2eds/bin/gnu/h-i686-mingw32/bin/../lib/gcc/nios2-elf/4.1.2\libgcc.a(_lt_sf.o)
                                0x1f5 (size before relaxing)
 .debug_str     0x00002e8f       0x8f c:/altera/12.0/nios2eds/bin/gnu/h-i686-mingw32/bin/../lib/gcc/nios2-elf/4.1.2\libgcc.a(_addsub_df.o)
                                0x26c (size before relaxing)
 .debug_str     0x00002f1e       0x40 c:/altera/12.0/nios2eds/bin/gnu/h-i686-mingw32/bin/../lib/gcc/nios2-elf/4.1.2\libgcc.a(_mul_df.o)
                                0x23e (size before relaxing)
 .debug_str     0x00002f5e       0x35 c:/altera/12.0/nios2eds/bin/gnu/h-i686-mingw32/bin/../lib/gcc/nios2-elf/4.1.2\libgcc.a(_div_df.o)
                                0x22e (size before relaxing)
 .debug_str     0x00002f93        0x8 c:/altera/12.0/nios2eds/bin/gnu/h-i686-mingw32/bin/../lib/gcc/nios2-elf/4.1.2\libgcc.a(_eq_df.o)
                                0x1fb (size before relaxing)
 .debug_str     0x00002f9b        0x8 c:/altera/12.0/nios2eds/bin/gnu/h-i686-mingw32/bin/../lib/gcc/nios2-elf/4.1.2\libgcc.a(_ne_df.o)
                                0x1fb (size before relaxing)
 .debug_str     0x00002fa3        0x8 c:/altera/12.0/nios2eds/bin/gnu/h-i686-mingw32/bin/../lib/gcc/nios2-elf/4.1.2\libgcc.a(_gt_df.o)
                                0x1fb (size before relaxing)
 .debug_str     0x00002fab        0x8 c:/altera/12.0/nios2eds/bin/gnu/h-i686-mingw32/bin/../lib/gcc/nios2-elf/4.1.2\libgcc.a(_ge_df.o)
                                0x1fb (size before relaxing)
 .debug_str     0x00002fb3        0x8 c:/altera/12.0/nios2eds/bin/gnu/h-i686-mingw32/bin/../lib/gcc/nios2-elf/4.1.2\libgcc.a(_lt_df.o)
                                0x1fb (size before relaxing)
 .debug_str     0x00002fbb        0x8 c:/altera/12.0/nios2eds/bin/gnu/h-i686-mingw32/bin/../lib/gcc/nios2-elf/4.1.2\libgcc.a(_le_df.o)
                                0x1fb (size before relaxing)
 .debug_str     0x00002fc3       0x18 c:/altera/12.0/nios2eds/bin/gnu/h-i686-mingw32/bin/../lib/gcc/nios2-elf/4.1.2\libgcc.a(_si_to_df.o)
                                0x1db (size before relaxing)
 .debug_str     0x00002fdb        0xa c:/altera/12.0/nios2eds/bin/gnu/h-i686-mingw32/bin/../lib/gcc/nios2-elf/4.1.2\libgcc.a(_df_to_si.o)
                                0x204 (size before relaxing)
 .debug_str     0x00002fe5       0x14 c:/altera/12.0/nios2eds/bin/gnu/h-i686-mingw32/bin/../lib/gcc/nios2-elf/4.1.2\libgcc.a(_df_to_sf.o)
                                0x1fb (size before relaxing)
 .debug_str     0x00000000      0x1a0 c:/altera/12.0/nios2eds/bin/gnu/h-i686-mingw32/bin/../lib/gcc/nios2-elf/4.1.2\libgcc.a(_thenan_df.o)
 .debug_str     0x00002ff9       0x14 c:/altera/12.0/nios2eds/bin/gnu/h-i686-mingw32/bin/../lib/gcc/nios2-elf/4.1.2\libgcc.a(_usi_to_df.o)
                                0x1d7 (size before relaxing)
 .debug_str     0x00000000      0x15e c:/altera/12.0/nios2eds/bin/gnu/h-i686-mingw32/bin/../lib/gcc/nios2-elf/4.1.2\libgcc.a(_clz.o)
 .debug_str     0x0000300d        0x9 c:/altera/12.0/nios2eds/bin/gnu/h-i686-mingw32/bin/../lib/gcc/nios2-elf/4.1.2\libgcc.a(_clzsi2.o)
                                0x17b (size before relaxing)
 .debug_str     0x00003016        0xb c:/altera/12.0/nios2eds/bin/gnu/h-i686-mingw32/bin/../lib/gcc/nios2-elf/4.1.2\libgcc.a(_unpack_sf.o)
                                0x1df (size before relaxing)
 .debug_str     0x00003021       0x10 c:/altera/12.0/nios2eds/bin/gnu/h-i686-mingw32/bin/../lib/gcc/nios2-elf/4.1.2\libgcc.a(_fpcmp_parts_sf.o)
                                0x1c3 (size before relaxing)
 .debug_str     0x00003031        0xa c:/altera/12.0/nios2eds/bin/gnu/h-i686-mingw32/bin/../lib/gcc/nios2-elf/4.1.2\libgcc.a(_make_sf.o)
                                0x1b6 (size before relaxing)
 .debug_str     0x0000303b       0x10 c:/altera/12.0/nios2eds/bin/gnu/h-i686-mingw32/bin/../lib/gcc/nios2-elf/4.1.2\libgcc.a(_pack_df.o)
                                0x203 (size before relaxing)
 .debug_str     0x0000304b        0xb c:/altera/12.0/nios2eds/bin/gnu/h-i686-mingw32/bin/../lib/gcc/nios2-elf/4.1.2\libgcc.a(_unpack_df.o)
                                0x1e5 (size before relaxing)
 .debug_str     0x00003056       0x10 c:/altera/12.0/nios2eds/bin/gnu/h-i686-mingw32/bin/../lib/gcc/nios2-elf/4.1.2\libgcc.a(_fpcmp_parts_df.o)
                                0x1c3 (size before relaxing)
 .debug_str     0x00003066        0x9 c:/altera/12.0/nios2eds/bin/gnu/h-i686-mingw32/bin/../lib/gcc/nios2-elf/4.1.2\libgcc.a(_pack_sf.o)
                                0x1fd (size before relaxing)
 .debug_str     0x0000306f       0x12 ../web_server_bsp/\libucosii_bsp.a(alt_dcache_flush.o)
 .debug_str     0x00003081       0x2d ../web_server_bsp/\libucosii_bsp.a(alt_flash_dev.o)
 .debug_str     0x000030ae       0x12 ../web_server_bsp/\libucosii_bsp.a(alt_fstat.o)
 .debug_str     0x000030c0       0x12 ../web_server_bsp/\libucosii_bsp.a(alt_isatty.o)
 .debug_str     0x000030d2       0x12 ../web_server_bsp/\libucosii_bsp.a(alt_load.o)
 .debug_str     0x000030e4       0x12 ../web_server_bsp/\libucosii_bsp.a(alt_lseek.o)
 .debug_str     0x000030f6       0x12 ../web_server_bsp/\libucosii_bsp.a(alt_main.o)
 .debug_str     0x00003108       0x12 ../web_server_bsp/\libucosii_bsp.a(alt_open.o)
 .debug_str     0x0000311a       0x12 ../web_server_bsp/\libucosii_bsp.a(alt_release_fd.o)
 .debug_str     0x0000312c       0x1a ../web_server_bsp/\libucosii_bsp.a(alt_sbrk.o)
 .debug_str     0x00003146       0x1a ../web_server_bsp/\libucosii_bsp.a(alt_tick.o)
 .debug_str     0x00003160       0x12 ../web_server_bsp/\libucosii_bsp.a(alt_usleep.o)
 .debug_str     0x00003172       0x36 ../web_server_bsp/\libucosii_bsp.a(alt_env_lock.o)
 .debug_str     0x000031a8       0x36 ../web_server_bsp/\libucosii_bsp.a(alt_malloc_lock.o)
 .debug_str     0x000031de       0x46 ../web_server_bsp/\libucosii_bsp.a(os_core.o)
 .debug_str     0x00003224       0x2b ../web_server_bsp/\libucosii_bsp.a(os_dbg.o)
 .debug_str     0x0000324f       0x4e ../web_server_bsp/\libucosii_bsp.a(os_flag.o)
 .debug_str     0x0000329d       0x36 ../web_server_bsp/\libucosii_bsp.a(os_mbox.o)
 .debug_str     0x000032d3       0x2c ../web_server_bsp/\libucosii_bsp.a(os_mem.o)
 .debug_str     0x000032ff       0x36 ../web_server_bsp/\libucosii_bsp.a(os_q.o)
 .debug_str     0x00003335       0x36 ../web_server_bsp/\libucosii_bsp.a(os_sem.o)
 .debug_str     0x0000336b       0x23 ../web_server_bsp/\libucosii_bsp.a(os_task.o)
 .debug_str     0x0000338e       0x1f ../web_server_bsp/\libucosii_bsp.a(os_time.o)
 .debug_str     0x000033ad       0x76 ../web_server_bsp/\libucosii_bsp.a(alt_sys_init.o)
 .debug_str     0x00003423       0x82 ../web_server_bsp/\libucosii_bsp.a(altera_avalon_cfi_flash.o)
 .debug_str     0x000034a5       0x6d ../web_server_bsp/\libucosii_bsp.a(altera_avalon_cfi_flash_table.o)
 .debug_str     0x00003512       0x12 ../web_server_bsp/\libucosii_bsp.a(altera_avalon_jtag_uart_fd.o)
 .debug_str     0x00003524       0x1a ../web_server_bsp/\libucosii_bsp.a(altera_avalon_jtag_uart_init.o)
 .debug_str     0x0000353e       0x12 ../web_server_bsp/\libucosii_bsp.a(altera_avalon_jtag_uart_ioctl.o)
 .debug_str     0x00003550       0x22 ../web_server_bsp/\libucosii_bsp.a(altera_avalon_jtag_uart_read.o)
 .debug_str     0x00003572       0x22 ../web_server_bsp/\libucosii_bsp.a(altera_avalon_jtag_uart_write.o)
 .debug_str     0x00003594       0x25 ../web_server_bsp/\libucosii_bsp.a(altera_avalon_lcd_16207.o)
 .debug_str     0x000035b9       0x12 ../web_server_bsp/\libucosii_bsp.a(altera_avalon_lcd_16207_fd.o)
 .debug_str     0x000035cb       0xe7 ../web_server_bsp/\libucosii_bsp.a(altera_avalon_sgdma.o)
 .debug_str     0x000036b2       0x12 ../web_server_bsp/\libucosii_bsp.a(altera_avalon_timer_sc.o)
 .debug_str     0x000036c4      0x328 ../web_server_bsp/\libucosii_bsp.a(altera_avalon_tse.o)
 .debug_str     0x000039ec       0x12 ../web_server_bsp/\libucosii_bsp.a(altera_avalon_uart_fd.o)
 .debug_str     0x000039fe       0x1f ../web_server_bsp/\libucosii_bsp.a(altera_avalon_uart_init.o)
 .debug_str     0x00003a1d       0x1a ../web_server_bsp/\libucosii_bsp.a(altera_avalon_uart_read.o)
 .debug_str     0x00003a37       0x1a ../web_server_bsp/\libucosii_bsp.a(altera_avalon_uart_write.o)
 .debug_str     0x00003a51       0x95 ../web_server_bsp/\libucosii_bsp.a(altera_ro_zipfs.o)
 .debug_str     0x00003ae6       0xac ../web_server_bsp/\libucosii_bsp.a(ins_tse_mac.o)
 .debug_str     0x00003b92       0x12 ../web_server_bsp/\libucosii_bsp.a(alt_iniche_close.o)
 .debug_str     0x00003ba4       0x12 ../web_server_bsp/\libucosii_bsp.a(alt_iniche_dev.o)
 .debug_str     0x00003bb6       0x12 ../web_server_bsp/\libucosii_bsp.a(alt_iniche_read.o)
 .debug_str     0x00003bc8       0x12 ../web_server_bsp/\libucosii_bsp.a(alt_iniche_write.o)
 .debug_str     0x00003bda       0x12 ../web_server_bsp/\libucosii_bsp.a(ipnet.o)
 .debug_str     0x00003bec       0x12 ../web_server_bsp/\libucosii_bsp.a(ipstart.o)
 .debug_str     0x00003bfe       0x12 ../web_server_bsp/\libucosii_bsp.a(igmp_cmn.o)
 .debug_str     0x00003c10       0x20 ../web_server_bsp/\libucosii_bsp.a(bsdsock.o)
 .debug_str     0x00003c30       0x12 ../web_server_bsp/\libucosii_bsp.a(cksum.o)
 .debug_str     0x00003c42       0x12 ../web_server_bsp/\libucosii_bsp.a(in_utils.o)
 .debug_str     0x00003c54       0x12 ../web_server_bsp/\libucosii_bsp.a(netmain.o)
 .debug_str     0x00003c66       0x12 ../web_server_bsp/\libucosii_bsp.a(tk_crnos.o)
 .debug_str     0x00003c78       0x2e ../web_server_bsp/\libucosii_bsp.a(dhcpclnt.o)
 .debug_str     0x00003ca6       0x12 ../web_server_bsp/\libucosii_bsp.a(dhcputil.o)
 .debug_str     0x00003cb8       0x12 ../web_server_bsp/\libucosii_bsp.a(pktalloc.o)
 .debug_str     0x00003cca       0x12 ../web_server_bsp/\libucosii_bsp.a(q.o)
 .debug_str     0x00003cdc       0x12 ../web_server_bsp/\libucosii_bsp.a(udp_open.o)
 .debug_str     0x00003cee       0x20 ../web_server_bsp/\libucosii_bsp.a(brdutils.o)
 .debug_str     0x00003d0e       0x22 ../web_server_bsp/\libucosii_bsp.a(osportco.o)
 .debug_str     0x00003d30       0x12 ../web_server_bsp/\libucosii_bsp.a(targnios.o)
 .debug_str     0x00003d42       0x1e ../web_server_bsp/\libucosii_bsp.a(nptcp.o)
 .debug_str     0x00003d60       0x12 ../web_server_bsp/\libucosii_bsp.a(rawsock.o)
 .debug_str     0x00003d72       0x34 ../web_server_bsp/\libucosii_bsp.a(sockcall.o)
 .debug_str     0x00003da6       0x18 ../web_server_bsp/\libucosii_bsp.a(socket.o)
 .debug_str     0x00003dbe       0x12 ../web_server_bsp/\libucosii_bsp.a(socket2.o)
 .debug_str     0x00003dd0       0x12 ../web_server_bsp/\libucosii_bsp.a(soselect.o)
 .debug_str     0x00003de2       0x12 ../web_server_bsp/\libucosii_bsp.a(tcp_in.o)
 .debug_str     0x00003df4       0x12 ../web_server_bsp/\libucosii_bsp.a(tcp_out.o)
 .debug_str     0x00003e06       0x12 ../web_server_bsp/\libucosii_bsp.a(tcp_subr.o)
 .debug_str     0x00003e18       0x12 ../web_server_bsp/\libucosii_bsp.a(tcp_timr.o)
 .debug_str     0x00003e2a       0x12 ../web_server_bsp/\libucosii_bsp.a(tcp_usr.o)
 .debug_str     0x00003e3c       0x12 ../web_server_bsp/\libucosii_bsp.a(tcpport.o)
 .debug_str     0x00003e4e       0x1a ../web_server_bsp/\libucosii_bsp.a(udpsock.o)
 .debug_str     0x00003e68       0x23 ../web_server_bsp/\libucosii_bsp.a(alt_alarm_start.o)
 .debug_str     0x00003e8b       0x12 ../web_server_bsp/\libucosii_bsp.a(alt_busy_sleep.o)
 .debug_str     0x00003e9d       0x12 ../web_server_bsp/\libucosii_bsp.a(alt_close.o)
 .debug_str     0x00003eaf       0x12 ../web_server_bsp/\libucosii_bsp.a(alt_dcache_flush_all.o)
 .debug_str     0x00003ec1       0x12 ../web_server_bsp/\libucosii_bsp.a(alt_dev.o)
 .debug_str     0x00003ed3       0x12 ../web_server_bsp/\libucosii_bsp.a(alt_dev_llist_insert.o)
 .debug_str     0x00003ee5       0x12 ../web_server_bsp/\libucosii_bsp.a(alt_errno.o)
 .debug_str     0x00003ef7       0x12 ../web_server_bsp/\libucosii_bsp.a(alt_find_dev.o)
 .debug_str     0x00003f09       0x12 ../web_server_bsp/\libucosii_bsp.a(alt_find_file.o)
 .debug_str     0x00003f1b       0x12 ../web_server_bsp/\libucosii_bsp.a(alt_fs_reg.o)
 .debug_str     0x00003f2d       0x12 ../web_server_bsp/\libucosii_bsp.a(alt_get_fd.o)
 .debug_str     0x00003f3f       0x12 ../web_server_bsp/\libucosii_bsp.a(alt_icache_flush_all.o)
 .debug_str     0x00003f51       0x18 ../web_server_bsp/\libucosii_bsp.a(alt_iic.o)
 .debug_str     0x00003f69       0x1a ../web_server_bsp/\libucosii_bsp.a(alt_iic_isr_register.o)
 .debug_str     0x00003f83       0x12 ../web_server_bsp/\libucosii_bsp.a(alt_io_redirect.o)
 .debug_str     0x00003f95       0x12 ../web_server_bsp/\libucosii_bsp.a(alt_irq_handler.o)
 .debug_str     0x00003fa7       0x12 ../web_server_bsp/\libucosii_bsp.a(alt_read.o)
 .debug_str     0x00003fb9       0x12 ../web_server_bsp/\libucosii_bsp.a(alt_remap_cached.o)
 .debug_str     0x00003fcb       0x12 ../web_server_bsp/\libucosii_bsp.a(alt_remap_uncached.o)
 .debug_str     0x00003fdd       0x12 ../web_server_bsp/\libucosii_bsp.a(alt_uncached_malloc.o)
 .debug_str     0x00003fef       0x12 ../web_server_bsp/\libucosii_bsp.a(alt_write.o)
 .debug_str     0x00004001       0x12 ../web_server_bsp/\libucosii_bsp.a(altera_nios2_qsys_irq.o)
 .debug_str     0x00004013       0x20 ../web_server_bsp/\libucosii_bsp.a(os_cpu_c.o)
 .debug_str     0x00004033       0x76 ../web_server_bsp/\libucosii_bsp.a(altera_avalon_cfi_flash_amd.o)
 .debug_str     0x000040a9       0x7d ../web_server_bsp/\libucosii_bsp.a(altera_avalon_cfi_flash_intel.o)
 .debug_str     0x00004126       0x12 ../web_server_bsp/\libucosii_bsp.a(allports.o)
 .debug_str     0x00004138       0x1b ../web_server_bsp/\libucosii_bsp.a(timeouts.o)
 .debug_str     0x00004153       0x12 ../web_server_bsp/\libucosii_bsp.a(tk_misc.o)
 .debug_str     0x00004165       0x12 ../web_server_bsp/\libucosii_bsp.a(alt_iniche_fcntl.o)
 .debug_str     0x00004177       0x3d ../web_server_bsp/\libucosii_bsp.a(et_arp.o)
 .debug_str     0x000041b4       0x12 ../web_server_bsp/\libucosii_bsp.a(iface.o)
 .debug_str     0x000041c6       0x2c ../web_server_bsp/\libucosii_bsp.a(ip.o)
 .debug_str     0x000041f2       0x4e ../web_server_bsp/\libucosii_bsp.a(ip_reasm.o)
 .debug_str     0x00004240       0x12 ../web_server_bsp/\libucosii_bsp.a(ipdemux.o)
 .debug_str     0x00004252       0x12 ../web_server_bsp/\libucosii_bsp.a(ipmc.o)
 .debug_str     0x00004264       0x12 ../web_server_bsp/\libucosii_bsp.a(ipport.o)
 .debug_str     0x00004276       0x12 ../web_server_bsp/\libucosii_bsp.a(ipraw.o)
 .debug_str     0x00004288       0x12 ../web_server_bsp/\libucosii_bsp.a(iproute.o)
 .debug_str     0x0000429a       0x12 ../web_server_bsp/\libucosii_bsp.a(udp.o)
 .debug_str     0x000042ac       0x12 ../web_server_bsp/\libucosii_bsp.a(igmp.o)
 .debug_str     0x000042be       0x20 ../web_server_bsp/\libucosii_bsp.a(igmp2.o)
 .debug_str     0x000042de       0x12 ../web_server_bsp/\libucosii_bsp.a(ipopt.o)
 .debug_str     0x000042f0       0x12 ../web_server_bsp/\libucosii_bsp.a(u_mctest.o)
 .debug_str     0x00004302       0x12 ../web_server_bsp/\libucosii_bsp.a(dhcsetup.o)
 .debug_str     0x00004314       0x1b ../web_server_bsp/\libucosii_bsp.a(memdev.o)
 .debug_str     0x0000432f       0x12 ../web_server_bsp/\libucosii_bsp.a(parseip.o)
 .debug_str     0x00004341       0x12 ../web_server_bsp/\libucosii_bsp.a(tcpcksum.o)
 .debug_str     0x00004353       0x12 ../web_server_bsp/\libucosii_bsp.a(in_pcb.o)
 .debug_str     0x00004365       0x2b ../web_server_bsp/\libucosii_bsp.a(vfsfiles.o)
 .debug_str     0x00004390       0x12 ../web_server_bsp/\libucosii_bsp.a(vfsport.o)
 .debug_str     0x000043a2       0x12 ../web_server_bsp/\libucosii_bsp.a(alt_fcntl.o)
 .debug_str     0x000043b4       0x12 ../web_server_bsp/\libucosii_bsp.a(alt_icache_flush.o)
 .debug_str     0x000043c6       0x12 ../web_server_bsp/\libucosii_bsp.a(icmp.o)
 .debug_str     0x000043d8       0x3b c:/altera/12.0/nios2eds/bin/gnu/h-i686-mingw32/bin/../lib/gcc/nios2-elf/4.1.2/../../../../nios2-elf/lib\libc.a(lib_a-atexit.o)
                                0x1bc (size before relaxing)
 .debug_str     0x00004413       0x42 c:/altera/12.0/nios2eds/bin/gnu/h-i686-mingw32/bin/../lib/gcc/nios2-elf/4.1.2/../../../../nios2-elf/lib\libc.a(lib_a-calloc.o)
                                0x50d (size before relaxing)
 .debug_str     0x00004455       0x39 c:/altera/12.0/nios2eds/bin/gnu/h-i686-mingw32/bin/../lib/gcc/nios2-elf/4.1.2/../../../../nios2-elf/lib\libc.a(lib_a-exit.o)
                                0x509 (size before relaxing)
 .debug_str     0x0000448e       0x40 c:/altera/12.0/nios2eds/bin/gnu/h-i686-mingw32/bin/../lib/gcc/nios2-elf/4.1.2/../../../../nios2-elf/lib\libc.a(lib_a-malloc.o)
                                0x519 (size before relaxing)
 .debug_str     0x000044ce       0x4e c:/altera/12.0/nios2eds/bin/gnu/h-i686-mingw32/bin/../lib/gcc/nios2-elf/4.1.2/../../../../nios2-elf/lib\libc.a(lib_a-vprintf.o)
                                0x523 (size before relaxing)
 .debug_str     0x0000451c       0x51 c:/altera/12.0/nios2eds/bin/gnu/h-i686-mingw32/bin/../lib/gcc/nios2-elf/4.1.2/../../../../nios2-elf/lib\libc.a(lib_a-vsprintf.o)
                                0x52b (size before relaxing)
 .debug_str     0x0000456d       0x51 c:/altera/12.0/nios2eds/bin/gnu/h-i686-mingw32/bin/../lib/gcc/nios2-elf/4.1.2/../../../../nios2-elf/lib\libc.a(lib_a-__atexit.o)
                                0x521 (size before relaxing)
 .debug_str     0x000045be       0x7b c:/altera/12.0/nios2eds/bin/gnu/h-i686-mingw32/bin/../lib/gcc/nios2-elf/4.1.2/../../../../nios2-elf/lib\libc.a(lib_a-__call_atexit.o)
                                0x54b (size before relaxing)
 .debug_str     0x00004639       0x1c ../web_server_bsp/\libucosii_bsp.a(alt_exit.o)

.debug_loc      0x00000000    0x1b857
 *(.debug_loc)
 .debug_loc     0x00000000       0x2b obj/default/alt_error_handler.o
 .debug_loc     0x0000002b      0x436 obj/default/http.o
 .debug_loc     0x00000461      0x103 obj/default/network_utilities.o
 .debug_loc     0x00000564       0x84 obj/default/srec_flash.o
 .debug_loc     0x000005e8      0x158 obj/default/web_server.o
 .debug_loc     0x00000740      0x1d2 c:/altera/12.0/nios2eds/bin/gnu/h-i686-mingw32/bin/../lib/gcc/nios2-elf/4.1.2\libgcc.a(lib2-divmod.o)
 .debug_loc     0x00000912       0x39 c:/altera/12.0/nios2eds/bin/gnu/h-i686-mingw32/bin/../lib/gcc/nios2-elf/4.1.2/../../../../nios2-elf/lib\libc.a(lib_a-atoi.o)
 .debug_loc     0x0000094b       0xe4 c:/altera/12.0/nios2eds/bin/gnu/h-i686-mingw32/bin/../lib/gcc/nios2-elf/4.1.2/../../../../nios2-elf/lib\libc.a(lib_a-fclose.o)
 .debug_loc     0x00000a2f      0x1f6 c:/altera/12.0/nios2eds/bin/gnu/h-i686-mingw32/bin/../lib/gcc/nios2-elf/4.1.2/../../../../nios2-elf/lib\libc.a(lib_a-fflush.o)
 .debug_loc     0x00000c25       0x9f c:/altera/12.0/nios2eds/bin/gnu/h-i686-mingw32/bin/../lib/gcc/nios2-elf/4.1.2/../../../../nios2-elf/lib\libc.a(lib_a-fgetpos.o)
 .debug_loc     0x00000cc4      0x19f c:/altera/12.0/nios2eds/bin/gnu/h-i686-mingw32/bin/../lib/gcc/nios2-elf/4.1.2/../../../../nios2-elf/lib\libc.a(lib_a-findfp.o)
 .debug_loc     0x00000e63      0x1c9 c:/altera/12.0/nios2eds/bin/gnu/h-i686-mingw32/bin/../lib/gcc/nios2-elf/4.1.2/../../../../nios2-elf/lib\libc.a(lib_a-fopen.o)
 .debug_loc     0x0000102c       0xf1 c:/altera/12.0/nios2eds/bin/gnu/h-i686-mingw32/bin/../lib/gcc/nios2-elf/4.1.2/../../../../nios2-elf/lib\libc.a(lib_a-fprintf.o)
 .debug_loc     0x0000111d      0x303 c:/altera/12.0/nios2eds/bin/gnu/h-i686-mingw32/bin/../lib/gcc/nios2-elf/4.1.2/../../../../nios2-elf/lib\libc.a(lib_a-fread.o)
 .debug_loc     0x00001420      0x4a7 c:/altera/12.0/nios2eds/bin/gnu/h-i686-mingw32/bin/../lib/gcc/nios2-elf/4.1.2/../../../../nios2-elf/lib\libc.a(lib_a-freer.o)
 .debug_loc     0x000018c7      0x348 c:/altera/12.0/nios2eds/bin/gnu/h-i686-mingw32/bin/../lib/gcc/nios2-elf/4.1.2/../../../../nios2-elf/lib\libc.a(lib_a-fseek.o)
 .debug_loc     0x00001c0f       0x79 c:/altera/12.0/nios2eds/bin/gnu/h-i686-mingw32/bin/../lib/gcc/nios2-elf/4.1.2/../../../../nios2-elf/lib\libc.a(lib_a-fstatr.o)
 .debug_loc     0x00001c88       0xe4 c:/altera/12.0/nios2eds/bin/gnu/h-i686-mingw32/bin/../lib/gcc/nios2-elf/4.1.2/../../../../nios2-elf/lib\libc.a(lib_a-ftell.o)
 .debug_loc     0x00001d6c      0x1d2 c:/altera/12.0/nios2eds/bin/gnu/h-i686-mingw32/bin/../lib/gcc/nios2-elf/4.1.2/../../../../nios2-elf/lib\libc.a(lib_a-fwalk.o)
 .debug_loc     0x00001f3e      0x18e c:/altera/12.0/nios2eds/bin/gnu/h-i686-mingw32/bin/../lib/gcc/nios2-elf/4.1.2/../../../../nios2-elf/lib\libc.a(lib_a-fwrite.o)
 .debug_loc     0x000020cc      0x10b c:/altera/12.0/nios2eds/bin/gnu/h-i686-mingw32/bin/../lib/gcc/nios2-elf/4.1.2/../../../../nios2-elf/lib\libc.a(lib_a-getc.o)
 .debug_loc     0x000021d7      0x11c c:/altera/12.0/nios2eds/bin/gnu/h-i686-mingw32/bin/../lib/gcc/nios2-elf/4.1.2/../../../../nios2-elf/lib\libc.a(lib_a-makebuf.o)
 .debug_loc     0x000022f3      0xaeb c:/altera/12.0/nios2eds/bin/gnu/h-i686-mingw32/bin/../lib/gcc/nios2-elf/4.1.2/../../../../nios2-elf/lib\libc.a(lib_a-mallocr.o)
 .debug_loc     0x00002dde       0xca c:/altera/12.0/nios2eds/bin/gnu/h-i686-mingw32/bin/../lib/gcc/nios2-elf/4.1.2/../../../../nios2-elf/lib\libc.a(lib_a-memcpy.o)
 .debug_loc     0x00002ea8      0x117 c:/altera/12.0/nios2eds/bin/gnu/h-i686-mingw32/bin/../lib/gcc/nios2-elf/4.1.2/../../../../nios2-elf/lib\libc.a(lib_a-memmove.o)
 .debug_loc     0x00002fbf       0xa1 c:/altera/12.0/nios2eds/bin/gnu/h-i686-mingw32/bin/../lib/gcc/nios2-elf/4.1.2/../../../../nios2-elf/lib\libc.a(lib_a-memset.o)
 .debug_loc     0x00003060       0x97 c:/altera/12.0/nios2eds/bin/gnu/h-i686-mingw32/bin/../lib/gcc/nios2-elf/4.1.2/../../../../nios2-elf/lib\libc.a(lib_a-openr.o)
 .debug_loc     0x000030f7       0xa2 c:/altera/12.0/nios2eds/bin/gnu/h-i686-mingw32/bin/../lib/gcc/nios2-elf/4.1.2/../../../../nios2-elf/lib\libc.a(lib_a-perror.o)
 .debug_loc     0x00003199       0xcb c:/altera/12.0/nios2eds/bin/gnu/h-i686-mingw32/bin/../lib/gcc/nios2-elf/4.1.2/../../../../nios2-elf/lib\libc.a(lib_a-printf.o)
 .debug_loc     0x00003264      0x20d c:/altera/12.0/nios2eds/bin/gnu/h-i686-mingw32/bin/../lib/gcc/nios2-elf/4.1.2/../../../../nios2-elf/lib\libc.a(lib_a-putc.o)
 .debug_loc     0x00003471       0x44 c:/altera/12.0/nios2eds/bin/gnu/h-i686-mingw32/bin/../lib/gcc/nios2-elf/4.1.2/../../../../nios2-elf/lib\libc.a(lib_a-putchar.o)
 .debug_loc     0x000034b5       0xa2 c:/altera/12.0/nios2eds/bin/gnu/h-i686-mingw32/bin/../lib/gcc/nios2-elf/4.1.2/../../../../nios2-elf/lib\libc.a(lib_a-puts.o)
 .debug_loc     0x00003557       0xd1 c:/altera/12.0/nios2eds/bin/gnu/h-i686-mingw32/bin/../lib/gcc/nios2-elf/4.1.2/../../../../nios2-elf/lib\libc.a(lib_a-refill.o)
 .debug_loc     0x00003628       0x6e c:/altera/12.0/nios2eds/bin/gnu/h-i686-mingw32/bin/../lib/gcc/nios2-elf/4.1.2/../../../../nios2-elf/lib\libc.a(lib_a-rget.o)
 .debug_loc     0x00003696       0x5b c:/altera/12.0/nios2eds/bin/gnu/h-i686-mingw32/bin/../lib/gcc/nios2-elf/4.1.2/../../../../nios2-elf/lib\libc.a(lib_a-sbrkr.o)
 .debug_loc     0x000036f1       0xc0 c:/altera/12.0/nios2eds/bin/gnu/h-i686-mingw32/bin/../lib/gcc/nios2-elf/4.1.2/../../../../nios2-elf/lib\libc.a(lib_a-sprintf.o)
 .debug_loc     0x000037b1       0xc0 c:/altera/12.0/nios2eds/bin/gnu/h-i686-mingw32/bin/../lib/gcc/nios2-elf/4.1.2/../../../../nios2-elf/lib\libc.a(lib_a-sscanf.o)
 .debug_loc     0x00003871      0x21f c:/altera/12.0/nios2eds/bin/gnu/h-i686-mingw32/bin/../lib/gcc/nios2-elf/4.1.2/../../../../nios2-elf/lib\libc.a(lib_a-stdio.o)
 .debug_loc     0x00003a90       0x88 c:/altera/12.0/nios2eds/bin/gnu/h-i686-mingw32/bin/../lib/gcc/nios2-elf/4.1.2/../../../../nios2-elf/lib\libc.a(lib_a-strcasecmp.o)
 .debug_loc     0x00003b18       0x8f c:/altera/12.0/nios2eds/bin/gnu/h-i686-mingw32/bin/../lib/gcc/nios2-elf/4.1.2/../../../../nios2-elf/lib\libc.a(lib_a-strcat.o)
 .debug_loc     0x00003ba7       0xf3 c:/altera/12.0/nios2eds/bin/gnu/h-i686-mingw32/bin/../lib/gcc/nios2-elf/4.1.2/../../../../nios2-elf/lib\libc.a(lib_a-strchr.o)
 .debug_loc     0x00003c9a       0x65 c:/altera/12.0/nios2eds/bin/gnu/h-i686-mingw32/bin/../lib/gcc/nios2-elf/4.1.2/../../../../nios2-elf/lib\libc.a(lib_a-strcmp.o)
 .debug_loc     0x00003cff       0x8b c:/altera/12.0/nios2eds/bin/gnu/h-i686-mingw32/bin/../lib/gcc/nios2-elf/4.1.2/../../../../nios2-elf/lib\libc.a(lib_a-strcpy.o)
 .debug_loc     0x00003d8a      0x418 c:/altera/12.0/nios2eds/bin/gnu/h-i686-mingw32/bin/../lib/gcc/nios2-elf/4.1.2/../../../../nios2-elf/lib\libc.a(lib_a-strerror.o)
 .debug_loc     0x000041a2       0x3c c:/altera/12.0/nios2eds/bin/gnu/h-i686-mingw32/bin/../lib/gcc/nios2-elf/4.1.2/../../../../nios2-elf/lib\libc.a(lib_a-strlen.o)
 .debug_loc     0x000041de       0x78 c:/altera/12.0/nios2eds/bin/gnu/h-i686-mingw32/bin/../lib/gcc/nios2-elf/4.1.2/../../../../nios2-elf/lib\libc.a(lib_a-strncmp.o)
 .debug_loc     0x00004256       0xeb c:/altera/12.0/nios2eds/bin/gnu/h-i686-mingw32/bin/../lib/gcc/nios2-elf/4.1.2/../../../../nios2-elf/lib\libc.a(lib_a-strncpy.o)
 .debug_loc     0x00004341      0xa24 c:/altera/12.0/nios2eds/bin/gnu/h-i686-mingw32/bin/../lib/gcc/nios2-elf/4.1.2/../../../../nios2-elf/lib\libc.a(lib_a-strstr.o)
 .debug_loc     0x00004d65       0x26 c:/altera/12.0/nios2eds/bin/gnu/h-i686-mingw32/bin/../lib/gcc/nios2-elf/4.1.2/../../../../nios2-elf/lib\libc.a(lib_a-strtok.o)
 .debug_loc     0x00004d8b       0xc7 c:/altera/12.0/nios2eds/bin/gnu/h-i686-mingw32/bin/../lib/gcc/nios2-elf/4.1.2/../../../../nios2-elf/lib\libc.a(lib_a-strtok_r.o)
 .debug_loc     0x00004e52      0x346 c:/altera/12.0/nios2eds/bin/gnu/h-i686-mingw32/bin/../lib/gcc/nios2-elf/4.1.2/../../../../nios2-elf/lib\libc.a(lib_a-strtol.o)
 .debug_loc     0x00005198     0x1e0d c:/altera/12.0/nios2eds/bin/gnu/h-i686-mingw32/bin/../lib/gcc/nios2-elf/4.1.2/../../../../nios2-elf/lib\libc.a(lib_a-vfprintf.o)
 .debug_loc     0x00006fa5     0x13ff c:/altera/12.0/nios2eds/bin/gnu/h-i686-mingw32/bin/../lib/gcc/nios2-elf/4.1.2/../../../../nios2-elf/lib\libc.a(lib_a-vfscanf.o)
 .debug_loc     0x000083a4      0x157 c:/altera/12.0/nios2eds/bin/gnu/h-i686-mingw32/bin/../lib/gcc/nios2-elf/4.1.2/../../../../nios2-elf/lib\libc.a(lib_a-wbuf.o)
 .debug_loc     0x000084fb       0x97 c:/altera/12.0/nios2eds/bin/gnu/h-i686-mingw32/bin/../lib/gcc/nios2-elf/4.1.2/../../../../nios2-elf/lib\libc.a(lib_a-writer.o)
 .debug_loc     0x00008592       0x7c c:/altera/12.0/nios2eds/bin/gnu/h-i686-mingw32/bin/../lib/gcc/nios2-elf/4.1.2/../../../../nios2-elf/lib\libc.a(lib_a-wsetup.o)
 .debug_loc     0x0000860e       0x5b c:/altera/12.0/nios2eds/bin/gnu/h-i686-mingw32/bin/../lib/gcc/nios2-elf/4.1.2/../../../../nios2-elf/lib\libc.a(lib_a-closer.o)
 .debug_loc     0x00008669     0x1dfa c:/altera/12.0/nios2eds/bin/gnu/h-i686-mingw32/bin/../lib/gcc/nios2-elf/4.1.2/../../../../nios2-elf/lib\libc.a(lib_a-dtoa.o)
 .debug_loc     0x0000a463       0xa4 c:/altera/12.0/nios2eds/bin/gnu/h-i686-mingw32/bin/../lib/gcc/nios2-elf/4.1.2/../../../../nios2-elf/lib\libc.a(lib_a-flags.o)
 .debug_loc     0x0000a507      0x14d c:/altera/12.0/nios2eds/bin/gnu/h-i686-mingw32/bin/../lib/gcc/nios2-elf/4.1.2/../../../../nios2-elf/lib\libc.a(lib_a-fputc.o)
 .debug_loc     0x0000a654       0xcb c:/altera/12.0/nios2eds/bin/gnu/h-i686-mingw32/bin/../lib/gcc/nios2-elf/4.1.2/../../../../nios2-elf/lib\libc.a(lib_a-fputs.o)
 .debug_loc     0x0000a71f      0x4e4 c:/altera/12.0/nios2eds/bin/gnu/h-i686-mingw32/bin/../lib/gcc/nios2-elf/4.1.2/../../../../nios2-elf/lib\libc.a(lib_a-fvwrite.o)
 .debug_loc     0x0000ac03       0x5b c:/altera/12.0/nios2eds/bin/gnu/h-i686-mingw32/bin/../lib/gcc/nios2-elf/4.1.2/../../../../nios2-elf/lib\libc.a(lib_a-isattyr.o)
 .debug_loc     0x0000ac5e       0xe1 c:/altera/12.0/nios2eds/bin/gnu/h-i686-mingw32/bin/../lib/gcc/nios2-elf/4.1.2/../../../../nios2-elf/lib\libc.a(lib_a-locale.o)
 .debug_loc     0x0000ad3f       0x97 c:/altera/12.0/nios2eds/bin/gnu/h-i686-mingw32/bin/../lib/gcc/nios2-elf/4.1.2/../../../../nios2-elf/lib\libc.a(lib_a-lseekr.o)
 .debug_loc     0x0000add6      0x182 c:/altera/12.0/nios2eds/bin/gnu/h-i686-mingw32/bin/../lib/gcc/nios2-elf/4.1.2/../../../../nios2-elf/lib\libc.a(lib_a-mbrtowc.o)
 .debug_loc     0x0000af58       0x1f c:/altera/12.0/nios2eds/bin/gnu/h-i686-mingw32/bin/../lib/gcc/nios2-elf/4.1.2/../../../../nios2-elf/lib\libc.a(lib_a-mbtowc_r.o)
 .debug_loc     0x0000af77      0x106 c:/altera/12.0/nios2eds/bin/gnu/h-i686-mingw32/bin/../lib/gcc/nios2-elf/4.1.2/../../../../nios2-elf/lib\libc.a(lib_a-memchr.o)
 .debug_loc     0x0000b07d      0x114 c:/altera/12.0/nios2eds/bin/gnu/h-i686-mingw32/bin/../lib/gcc/nios2-elf/4.1.2/../../../../nios2-elf/lib\libc.a(lib_a-memcmp.o)
 .debug_loc     0x0000b191     0x14d6 c:/altera/12.0/nios2eds/bin/gnu/h-i686-mingw32/bin/../lib/gcc/nios2-elf/4.1.2/../../../../nios2-elf/lib\libc.a(lib_a-mprec.o)
 .debug_loc     0x0000c667       0x97 c:/altera/12.0/nios2eds/bin/gnu/h-i686-mingw32/bin/../lib/gcc/nios2-elf/4.1.2/../../../../nios2-elf/lib\libc.a(lib_a-readr.o)
 .debug_loc     0x0000c6fe      0x8c0 c:/altera/12.0/nios2eds/bin/gnu/h-i686-mingw32/bin/../lib/gcc/nios2-elf/4.1.2/../../../../nios2-elf/lib\libc.a(lib_a-reallocr.o)
 .debug_loc     0x0000cfbe       0x36 c:/altera/12.0/nios2eds/bin/gnu/h-i686-mingw32/bin/../lib/gcc/nios2-elf/4.1.2/../../../../nios2-elf/lib\libc.a(lib_a-s_isinfd.o)
 .debug_loc     0x0000cff4       0x18 c:/altera/12.0/nios2eds/bin/gnu/h-i686-mingw32/bin/../lib/gcc/nios2-elf/4.1.2/../../../../nios2-elf/lib\libc.a(lib_a-s_isnand.o)
 .debug_loc     0x0000d00c       0xdb c:/altera/12.0/nios2eds/bin/gnu/h-i686-mingw32/bin/../lib/gcc/nios2-elf/4.1.2/../../../../nios2-elf/lib\libc.a(lib_a-sccl.o)
 .debug_loc     0x0000d0e7     0x243e c:/altera/12.0/nios2eds/bin/gnu/h-i686-mingw32/bin/../lib/gcc/nios2-elf/4.1.2/../../../../nios2-elf/lib\libc.a(lib_a-strtod.o)
 .debug_loc     0x0000f525      0x30f c:/altera/12.0/nios2eds/bin/gnu/h-i686-mingw32/bin/../lib/gcc/nios2-elf/4.1.2/../../../../nios2-elf/lib\libc.a(lib_a-strtoll_r.o)
 .debug_loc     0x0000f834      0x263 c:/altera/12.0/nios2eds/bin/gnu/h-i686-mingw32/bin/../lib/gcc/nios2-elf/4.1.2/../../../../nios2-elf/lib\libc.a(lib_a-strtoul.o)
 .debug_loc     0x0000fa97      0x282 c:/altera/12.0/nios2eds/bin/gnu/h-i686-mingw32/bin/../lib/gcc/nios2-elf/4.1.2/../../../../nios2-elf/lib\libc.a(lib_a-strtoull_r.o)
 .debug_loc     0x0000fd19      0x207 c:/altera/12.0/nios2eds/bin/gnu/h-i686-mingw32/bin/../lib/gcc/nios2-elf/4.1.2/../../../../nios2-elf/lib\libc.a(lib_a-ungetc.o)
 .debug_loc     0x0000ff20       0xe9 c:/altera/12.0/nios2eds/bin/gnu/h-i686-mingw32/bin/../lib/gcc/nios2-elf/4.1.2/../../../../nios2-elf/lib\libc.a(lib_a-callocr.o)
 .debug_loc     0x00010009      0xad2 c:/altera/12.0/nios2eds/bin/gnu/h-i686-mingw32/bin/../lib/gcc/nios2-elf/4.1.2/../../../../nios2-elf/lib\libc.a(lib_a-gdtoa-gethex.o)
 .debug_loc     0x00010adb      0x2a6 c:/altera/12.0/nios2eds/bin/gnu/h-i686-mingw32/bin/../lib/gcc/nios2-elf/4.1.2/../../../../nios2-elf/lib\libc.a(lib_a-gdtoa-hexnan.o)
 .debug_loc     0x00010d81       0xc4 c:/altera/12.0/nios2eds/bin/gnu/h-i686-mingw32/bin/../lib/gcc/nios2-elf/4.1.2\libgcc.a(_muldi3.o)
 .debug_loc     0x00010e45       0x87 c:/altera/12.0/nios2eds/bin/gnu/h-i686-mingw32/bin/../lib/gcc/nios2-elf/4.1.2\libgcc.a(_fixunsdfsi.o)
 .debug_loc     0x00010ecc      0xc12 c:/altera/12.0/nios2eds/bin/gnu/h-i686-mingw32/bin/../lib/gcc/nios2-elf/4.1.2\libgcc.a(_udivdi3.o)
 .debug_loc     0x00011ade      0xc31 c:/altera/12.0/nios2eds/bin/gnu/h-i686-mingw32/bin/../lib/gcc/nios2-elf/4.1.2\libgcc.a(_umoddi3.o)
 .debug_loc     0x0001270f       0x45 c:/altera/12.0/nios2eds/bin/gnu/h-i686-mingw32/bin/../lib/gcc/nios2-elf/4.1.2\libgcc.a(_ne_sf.o)
 .debug_loc     0x00012754       0x45 c:/altera/12.0/nios2eds/bin/gnu/h-i686-mingw32/bin/../lib/gcc/nios2-elf/4.1.2\libgcc.a(_gt_sf.o)
 .debug_loc     0x00012799       0x45 c:/altera/12.0/nios2eds/bin/gnu/h-i686-mingw32/bin/../lib/gcc/nios2-elf/4.1.2\libgcc.a(_lt_sf.o)
 .debug_loc     0x000127de      0x47a c:/altera/12.0/nios2eds/bin/gnu/h-i686-mingw32/bin/../lib/gcc/nios2-elf/4.1.2\libgcc.a(_addsub_df.o)
 .debug_loc     0x00012c58      0x3b4 c:/altera/12.0/nios2eds/bin/gnu/h-i686-mingw32/bin/../lib/gcc/nios2-elf/4.1.2\libgcc.a(_mul_df.o)
 .debug_loc     0x0001300c      0x1df c:/altera/12.0/nios2eds/bin/gnu/h-i686-mingw32/bin/../lib/gcc/nios2-elf/4.1.2\libgcc.a(_div_df.o)
 .debug_loc     0x000131eb       0x70 c:/altera/12.0/nios2eds/bin/gnu/h-i686-mingw32/bin/../lib/gcc/nios2-elf/4.1.2\libgcc.a(_eq_df.o)
 .debug_loc     0x0001325b       0x70 c:/altera/12.0/nios2eds/bin/gnu/h-i686-mingw32/bin/../lib/gcc/nios2-elf/4.1.2\libgcc.a(_ne_df.o)
 .debug_loc     0x000132cb       0x70 c:/altera/12.0/nios2eds/bin/gnu/h-i686-mingw32/bin/../lib/gcc/nios2-elf/4.1.2\libgcc.a(_gt_df.o)
 .debug_loc     0x0001333b       0x70 c:/altera/12.0/nios2eds/bin/gnu/h-i686-mingw32/bin/../lib/gcc/nios2-elf/4.1.2\libgcc.a(_ge_df.o)
 .debug_loc     0x000133ab       0x70 c:/altera/12.0/nios2eds/bin/gnu/h-i686-mingw32/bin/../lib/gcc/nios2-elf/4.1.2\libgcc.a(_lt_df.o)
 .debug_loc     0x0001341b       0x70 c:/altera/12.0/nios2eds/bin/gnu/h-i686-mingw32/bin/../lib/gcc/nios2-elf/4.1.2\libgcc.a(_le_df.o)
 .debug_loc     0x0001348b       0x9a c:/altera/12.0/nios2eds/bin/gnu/h-i686-mingw32/bin/../lib/gcc/nios2-elf/4.1.2\libgcc.a(_si_to_df.o)
 .debug_loc     0x00013525       0x8b c:/altera/12.0/nios2eds/bin/gnu/h-i686-mingw32/bin/../lib/gcc/nios2-elf/4.1.2\libgcc.a(_df_to_si.o)
 .debug_loc     0x000135b0       0x6a c:/altera/12.0/nios2eds/bin/gnu/h-i686-mingw32/bin/../lib/gcc/nios2-elf/4.1.2\libgcc.a(_df_to_sf.o)
 .debug_loc     0x0001361a       0x5b c:/altera/12.0/nios2eds/bin/gnu/h-i686-mingw32/bin/../lib/gcc/nios2-elf/4.1.2\libgcc.a(_usi_to_df.o)
 .debug_loc     0x00013675       0x1e c:/altera/12.0/nios2eds/bin/gnu/h-i686-mingw32/bin/../lib/gcc/nios2-elf/4.1.2\libgcc.a(_clzsi2.o)
 .debug_loc     0x00013693       0x31 c:/altera/12.0/nios2eds/bin/gnu/h-i686-mingw32/bin/../lib/gcc/nios2-elf/4.1.2\libgcc.a(_unpack_sf.o)
 .debug_loc     0x000136c4       0x3c c:/altera/12.0/nios2eds/bin/gnu/h-i686-mingw32/bin/../lib/gcc/nios2-elf/4.1.2\libgcc.a(_fpcmp_parts_sf.o)
 .debug_loc     0x00013700       0x6b c:/altera/12.0/nios2eds/bin/gnu/h-i686-mingw32/bin/../lib/gcc/nios2-elf/4.1.2\libgcc.a(_make_sf.o)
 .debug_loc     0x0001376b      0x184 c:/altera/12.0/nios2eds/bin/gnu/h-i686-mingw32/bin/../lib/gcc/nios2-elf/4.1.2\libgcc.a(_pack_df.o)
 .debug_loc     0x000138ef       0xe5 c:/altera/12.0/nios2eds/bin/gnu/h-i686-mingw32/bin/../lib/gcc/nios2-elf/4.1.2\libgcc.a(_unpack_df.o)
 .debug_loc     0x000139d4       0xf9 c:/altera/12.0/nios2eds/bin/gnu/h-i686-mingw32/bin/../lib/gcc/nios2-elf/4.1.2\libgcc.a(_pack_sf.o)
 .debug_loc     0x00013acd       0x2b ../web_server_bsp/\libucosii_bsp.a(alt_dcache_flush.o)
 .debug_loc     0x00013af8       0x56 ../web_server_bsp/\libucosii_bsp.a(alt_flash_dev.o)
 .debug_loc     0x00013b4e       0x56 ../web_server_bsp/\libucosii_bsp.a(alt_fstat.o)
 .debug_loc     0x00013ba4       0x57 ../web_server_bsp/\libucosii_bsp.a(alt_isatty.o)
 .debug_loc     0x00013bfb       0x56 ../web_server_bsp/\libucosii_bsp.a(alt_load.o)
 .debug_loc     0x00013c51       0x56 ../web_server_bsp/\libucosii_bsp.a(alt_lseek.o)
 .debug_loc     0x00013ca7       0x2b ../web_server_bsp/\libucosii_bsp.a(alt_main.o)
 .debug_loc     0x00013cd2       0x81 ../web_server_bsp/\libucosii_bsp.a(alt_open.o)
 .debug_loc     0x00013d53       0x2b ../web_server_bsp/\libucosii_bsp.a(alt_release_fd.o)
 .debug_loc     0x00013d7e       0x2b ../web_server_bsp/\libucosii_bsp.a(alt_sbrk.o)
 .debug_loc     0x00013da9       0x56 ../web_server_bsp/\libucosii_bsp.a(alt_tick.o)
 .debug_loc     0x00013dff       0x2b ../web_server_bsp/\libucosii_bsp.a(alt_usleep.o)
 .debug_loc     0x00013e2a       0x57 ../web_server_bsp/\libucosii_bsp.a(alt_env_lock.o)
 .debug_loc     0x00013e81       0x57 ../web_server_bsp/\libucosii_bsp.a(alt_malloc_lock.o)
 .debug_loc     0x00013ed8      0x5e2 ../web_server_bsp/\libucosii_bsp.a(os_core.o)
 .debug_loc     0x000144ba       0x2b ../web_server_bsp/\libucosii_bsp.a(os_dbg.o)
 .debug_loc     0x000144e5      0x232 ../web_server_bsp/\libucosii_bsp.a(os_flag.o)
 .debug_loc     0x00014717      0x158 ../web_server_bsp/\libucosii_bsp.a(os_mbox.o)
 .debug_loc     0x0001486f      0x12d ../web_server_bsp/\libucosii_bsp.a(os_mem.o)
 .debug_loc     0x0001499c      0x1da ../web_server_bsp/\libucosii_bsp.a(os_q.o)
 .debug_loc     0x00014b76      0x158 ../web_server_bsp/\libucosii_bsp.a(os_sem.o)
 .debug_loc     0x00014cce      0x207 ../web_server_bsp/\libucosii_bsp.a(os_task.o)
 .debug_loc     0x00014ed5       0xd7 ../web_server_bsp/\libucosii_bsp.a(os_time.o)
 .debug_loc     0x00014fac       0x81 ../web_server_bsp/\libucosii_bsp.a(alt_sys_init.o)
 .debug_loc     0x0001502d      0x12e ../web_server_bsp/\libucosii_bsp.a(altera_avalon_cfi_flash.o)
 .debug_loc     0x0001515b      0x306 ../web_server_bsp/\libucosii_bsp.a(altera_avalon_cfi_flash_table.o)
 .debug_loc     0x00015461       0xac ../web_server_bsp/\libucosii_bsp.a(altera_avalon_jtag_uart_fd.o)
 .debug_loc     0x0001550d       0xac ../web_server_bsp/\libucosii_bsp.a(altera_avalon_jtag_uart_init.o)
 .debug_loc     0x000155b9       0x2b ../web_server_bsp/\libucosii_bsp.a(altera_avalon_jtag_uart_ioctl.o)
 .debug_loc     0x000155e4       0x2c ../web_server_bsp/\libucosii_bsp.a(altera_avalon_jtag_uart_read.o)
 .debug_loc     0x00015610       0x2c ../web_server_bsp/\libucosii_bsp.a(altera_avalon_jtag_uart_write.o)
 .debug_loc     0x0001563c      0x184 ../web_server_bsp/\libucosii_bsp.a(altera_avalon_lcd_16207.o)
 .debug_loc     0x000157c0       0x2b ../web_server_bsp/\libucosii_bsp.a(altera_avalon_lcd_16207_fd.o)
 .debug_loc     0x000157eb      0x35c ../web_server_bsp/\libucosii_bsp.a(altera_avalon_sgdma.o)
 .debug_loc     0x00015b47       0x56 ../web_server_bsp/\libucosii_bsp.a(altera_avalon_timer_sc.o)
 .debug_loc     0x00015b9d      0x73d ../web_server_bsp/\libucosii_bsp.a(altera_avalon_tse.o)
 .debug_loc     0x000162da       0x81 ../web_server_bsp/\libucosii_bsp.a(altera_avalon_uart_fd.o)
 .debug_loc     0x0001635b       0xd8 ../web_server_bsp/\libucosii_bsp.a(altera_avalon_uart_init.o)
 .debug_loc     0x00016433       0x57 ../web_server_bsp/\libucosii_bsp.a(altera_avalon_uart_read.o)
 .debug_loc     0x0001648a       0x57 ../web_server_bsp/\libucosii_bsp.a(altera_avalon_uart_write.o)
 .debug_loc     0x000164e1      0x285 ../web_server_bsp/\libucosii_bsp.a(altera_ro_zipfs.o)
 .debug_loc     0x00016766      0x185 ../web_server_bsp/\libucosii_bsp.a(ins_tse_mac.o)
 .debug_loc     0x000168eb       0x2b ../web_server_bsp/\libucosii_bsp.a(alt_iniche_close.o)
 .debug_loc     0x00016916       0x2b ../web_server_bsp/\libucosii_bsp.a(alt_iniche_dev.o)
 .debug_loc     0x00016941       0x2b ../web_server_bsp/\libucosii_bsp.a(alt_iniche_read.o)
 .debug_loc     0x0001696c       0x2b ../web_server_bsp/\libucosii_bsp.a(alt_iniche_write.o)
 .debug_loc     0x00016997      0x102 ../web_server_bsp/\libucosii_bsp.a(ipnet.o)
 .debug_loc     0x00016a99       0xac ../web_server_bsp/\libucosii_bsp.a(ipstart.o)
 .debug_loc     0x00016b45      0x159 ../web_server_bsp/\libucosii_bsp.a(igmp_cmn.o)
 .debug_loc     0x00016c9e      0x1af ../web_server_bsp/\libucosii_bsp.a(bsdsock.o)
 .debug_loc     0x00016e4d       0x56 ../web_server_bsp/\libucosii_bsp.a(cksum.o)
 .debug_loc     0x00016ea3      0x204 ../web_server_bsp/\libucosii_bsp.a(in_utils.o)
 .debug_loc     0x000170a7       0x81 ../web_server_bsp/\libucosii_bsp.a(netmain.o)
 .debug_loc     0x00017128      0x12f ../web_server_bsp/\libucosii_bsp.a(tk_crnos.o)
 .debug_loc     0x00017257      0x35c ../web_server_bsp/\libucosii_bsp.a(dhcpclnt.o)
 .debug_loc     0x000175b3       0x2b ../web_server_bsp/\libucosii_bsp.a(dhcputil.o)
 .debug_loc     0x000175de      0x102 ../web_server_bsp/\libucosii_bsp.a(pktalloc.o)
 .debug_loc     0x000176e0       0x81 ../web_server_bsp/\libucosii_bsp.a(q.o)
 .debug_loc     0x00017761       0x56 ../web_server_bsp/\libucosii_bsp.a(udp_open.o)
 .debug_loc     0x000177b7      0x158 ../web_server_bsp/\libucosii_bsp.a(brdutils.o)
 .debug_loc     0x0001790f       0xd8 ../web_server_bsp/\libucosii_bsp.a(osportco.o)
 .debug_loc     0x000179e7      0x183 ../web_server_bsp/\libucosii_bsp.a(targnios.o)
 .debug_loc     0x00017b6a      0x306 ../web_server_bsp/\libucosii_bsp.a(nptcp.o)
 .debug_loc     0x00017e70       0x82 ../web_server_bsp/\libucosii_bsp.a(rawsock.o)
 .debug_loc     0x00017ef2      0x332 ../web_server_bsp/\libucosii_bsp.a(sockcall.o)
 .debug_loc     0x00018224      0x2b1 ../web_server_bsp/\libucosii_bsp.a(socket.o)
 .debug_loc     0x000184d5      0x3dd ../web_server_bsp/\libucosii_bsp.a(socket2.o)
 .debug_loc     0x000188b2      0x184 ../web_server_bsp/\libucosii_bsp.a(soselect.o)
 .debug_loc     0x00018a36      0x12e ../web_server_bsp/\libucosii_bsp.a(tcp_in.o)
 .debug_loc     0x00018b64       0x82 ../web_server_bsp/\libucosii_bsp.a(tcp_out.o)
 .debug_loc     0x00018be6      0x183 ../web_server_bsp/\libucosii_bsp.a(tcp_subr.o)
 .debug_loc     0x00018d69       0x81 ../web_server_bsp/\libucosii_bsp.a(tcp_timr.o)
 .debug_loc     0x00018dea       0xac ../web_server_bsp/\libucosii_bsp.a(tcp_usr.o)
 .debug_loc     0x00018e96       0x2b ../web_server_bsp/\libucosii_bsp.a(tcpport.o)
 .debug_loc     0x00018ec1      0x102 ../web_server_bsp/\libucosii_bsp.a(udpsock.o)
 .debug_loc     0x00018fc3       0x2b ../web_server_bsp/\libucosii_bsp.a(alt_alarm_start.o)
 .debug_loc     0x00018fee       0x2b ../web_server_bsp/\libucosii_bsp.a(alt_busy_sleep.o)
 .debug_loc     0x00019019       0x56 ../web_server_bsp/\libucosii_bsp.a(alt_close.o)
 .debug_loc     0x0001906f       0x2b ../web_server_bsp/\libucosii_bsp.a(alt_dcache_flush_all.o)
 .debug_loc     0x0001909a       0x2b ../web_server_bsp/\libucosii_bsp.a(alt_dev.o)
 .debug_loc     0x000190c5       0x56 ../web_server_bsp/\libucosii_bsp.a(alt_dev_llist_insert.o)
 .debug_loc     0x0001911b       0x2b ../web_server_bsp/\libucosii_bsp.a(alt_do_ctors.o)
 .debug_loc     0x00019146       0x2b ../web_server_bsp/\libucosii_bsp.a(alt_do_dtors.o)
 .debug_loc     0x00019171       0x2b ../web_server_bsp/\libucosii_bsp.a(alt_find_dev.o)
 .debug_loc     0x0001919c       0x2b ../web_server_bsp/\libucosii_bsp.a(alt_find_file.o)
 .debug_loc     0x000191c7       0x2b ../web_server_bsp/\libucosii_bsp.a(alt_fs_reg.o)
 .debug_loc     0x000191f2       0x2b ../web_server_bsp/\libucosii_bsp.a(alt_get_fd.o)
 .debug_loc     0x0001921d       0x2b ../web_server_bsp/\libucosii_bsp.a(alt_icache_flush_all.o)
 .debug_loc     0x00019248       0xac ../web_server_bsp/\libucosii_bsp.a(alt_iic.o)
 .debug_loc     0x000192f4       0x2b ../web_server_bsp/\libucosii_bsp.a(alt_iic_isr_register.o)
 .debug_loc     0x0001931f       0x56 ../web_server_bsp/\libucosii_bsp.a(alt_io_redirect.o)
 .debug_loc     0x00019375       0x2b ../web_server_bsp/\libucosii_bsp.a(alt_irq_handler.o)
 .debug_loc     0x000193a0       0x56 ../web_server_bsp/\libucosii_bsp.a(alt_read.o)
 .debug_loc     0x000193f6       0x2b ../web_server_bsp/\libucosii_bsp.a(alt_remap_cached.o)
 .debug_loc     0x00019421       0x2b ../web_server_bsp/\libucosii_bsp.a(alt_remap_uncached.o)
 .debug_loc     0x0001944c       0x2b ../web_server_bsp/\libucosii_bsp.a(alt_uncached_malloc.o)
 .debug_loc     0x00019477       0x56 ../web_server_bsp/\libucosii_bsp.a(alt_write.o)
 .debug_loc     0x000194cd       0x2b ../web_server_bsp/\libucosii_bsp.a(altera_nios2_qsys_irq.o)
 .debug_loc     0x000194f8      0x1ae ../web_server_bsp/\libucosii_bsp.a(os_cpu_c.o)
 .debug_loc     0x000196a6       0xac ../web_server_bsp/\libucosii_bsp.a(altera_avalon_cfi_flash_amd.o)
 .debug_loc     0x00019752       0xac ../web_server_bsp/\libucosii_bsp.a(altera_avalon_cfi_flash_intel.o)
 .debug_loc     0x000197fe      0x12d ../web_server_bsp/\libucosii_bsp.a(allports.o)
 .debug_loc     0x0001992b       0xac ../web_server_bsp/\libucosii_bsp.a(timeouts.o)
 .debug_loc     0x000199d7       0x56 ../web_server_bsp/\libucosii_bsp.a(tk_misc.o)
 .debug_loc     0x00019a2d       0x2b ../web_server_bsp/\libucosii_bsp.a(alt_iniche_fcntl.o)
 .debug_loc     0x00019a58      0x204 ../web_server_bsp/\libucosii_bsp.a(et_arp.o)
 .debug_loc     0x00019c5c       0xac ../web_server_bsp/\libucosii_bsp.a(iface.o)
 .debug_loc     0x00019d08      0x207 ../web_server_bsp/\libucosii_bsp.a(ip.o)
 .debug_loc     0x00019f0f      0x2b2 ../web_server_bsp/\libucosii_bsp.a(ip_reasm.o)
 .debug_loc     0x0001a1c1       0x81 ../web_server_bsp/\libucosii_bsp.a(ipdemux.o)
 .debug_loc     0x0001a242       0x81 ../web_server_bsp/\libucosii_bsp.a(ipmc.o)
 .debug_loc     0x0001a2c3       0x81 ../web_server_bsp/\libucosii_bsp.a(ipport.o)
 .debug_loc     0x0001a344      0x102 ../web_server_bsp/\libucosii_bsp.a(ipraw.o)
 .debug_loc     0x0001a446       0x81 ../web_server_bsp/\libucosii_bsp.a(iproute.o)
 .debug_loc     0x0001a4c7      0x12f ../web_server_bsp/\libucosii_bsp.a(udp.o)
 .debug_loc     0x0001a5f6       0x2b ../web_server_bsp/\libucosii_bsp.a(igmp.o)
 .debug_loc     0x0001a621       0xd7 ../web_server_bsp/\libucosii_bsp.a(igmp2.o)
 .debug_loc     0x0001a6f8       0xac ../web_server_bsp/\libucosii_bsp.a(ipopt.o)
 .debug_loc     0x0001a7a4       0x57 ../web_server_bsp/\libucosii_bsp.a(u_mctest.o)
 .debug_loc     0x0001a7fb       0x56 ../web_server_bsp/\libucosii_bsp.a(dhcsetup.o)
 .debug_loc     0x0001a851      0x183 ../web_server_bsp/\libucosii_bsp.a(memdev.o)
 .debug_loc     0x0001a9d4      0x183 ../web_server_bsp/\libucosii_bsp.a(parseip.o)
 .debug_loc     0x0001ab57       0x2b ../web_server_bsp/\libucosii_bsp.a(tcpcksum.o)
 .debug_loc     0x0001ab82      0x158 ../web_server_bsp/\libucosii_bsp.a(in_pcb.o)
 .debug_loc     0x0001acda      0x4b4 ../web_server_bsp/\libucosii_bsp.a(vfsfiles.o)
 .debug_loc     0x0001b18e       0x2b ../web_server_bsp/\libucosii_bsp.a(vfsport.o)
 .debug_loc     0x0001b1b9       0x56 ../web_server_bsp/\libucosii_bsp.a(alt_fcntl.o)
 .debug_loc     0x0001b20f       0x2b ../web_server_bsp/\libucosii_bsp.a(alt_icache_flush.o)
 .debug_loc     0x0001b23a       0xad ../web_server_bsp/\libucosii_bsp.a(icmp.o)
 .debug_loc     0x0001b2e7       0x1e c:/altera/12.0/nios2eds/bin/gnu/h-i686-mingw32/bin/../lib/gcc/nios2-elf/4.1.2/../../../../nios2-elf/lib\libc.a(lib_a-atexit.o)
 .debug_loc     0x0001b305       0x3c c:/altera/12.0/nios2eds/bin/gnu/h-i686-mingw32/bin/../lib/gcc/nios2-elf/4.1.2/../../../../nios2-elf/lib\libc.a(lib_a-calloc.o)
 .debug_loc     0x0001b341       0x3d c:/altera/12.0/nios2eds/bin/gnu/h-i686-mingw32/bin/../lib/gcc/nios2-elf/4.1.2/../../../../nios2-elf/lib\libc.a(lib_a-exit.o)
 .debug_loc     0x0001b37e       0x3c c:/altera/12.0/nios2eds/bin/gnu/h-i686-mingw32/bin/../lib/gcc/nios2-elf/4.1.2/../../../../nios2-elf/lib\libc.a(lib_a-malloc.o)
 .debug_loc     0x0001b3ba       0x8b c:/altera/12.0/nios2eds/bin/gnu/h-i686-mingw32/bin/../lib/gcc/nios2-elf/4.1.2/../../../../nios2-elf/lib\libc.a(lib_a-vprintf.o)
 .debug_loc     0x0001b445       0xd1 c:/altera/12.0/nios2eds/bin/gnu/h-i686-mingw32/bin/../lib/gcc/nios2-elf/4.1.2/../../../../nios2-elf/lib\libc.a(lib_a-vsprintf.o)
 .debug_loc     0x0001b516      0x120 c:/altera/12.0/nios2eds/bin/gnu/h-i686-mingw32/bin/../lib/gcc/nios2-elf/4.1.2/../../../../nios2-elf/lib\libc.a(lib_a-__atexit.o)
 .debug_loc     0x0001b636      0x1cb c:/altera/12.0/nios2eds/bin/gnu/h-i686-mingw32/bin/../lib/gcc/nios2-elf/4.1.2/../../../../nios2-elf/lib\libc.a(lib_a-__call_atexit.o)
 .debug_loc     0x0001b801       0x56 ../web_server_bsp/\libucosii_bsp.a(alt_exit.o)

.debug_macinfo
 *(.debug_macinfo)

.debug_weaknames
 *(.debug_weaknames)

.debug_funcnames
 *(.debug_funcnames)

.debug_typenames
 *(.debug_typenames)

.debug_varnames
 *(.debug_varnames)

.debug_alt_sim_info
                0x00000000       0x60
 *(.debug_alt_sim_info)
 .debug_alt_sim_info
                0x00000000       0x30 ../web_server_bsp//obj/HAL/src/crt0.o
 .debug_alt_sim_info
                0x00000030       0x30 ../web_server_bsp/\libucosii_bsp.a(alt_busy_sleep.o)
                0x08000000                __alt_data_end = 0x8000000
                0x08000000                PROVIDE (__alt_stack_pointer, __alt_data_end)
                0x0064a14c                PROVIDE (__alt_stack_limit, __alt_stack_base)
                0x0064a14c                PROVIDE (__alt_heap_start, end)
                0x08000000                PROVIDE (__alt_heap_limit, 0x8000000)
OUTPUT(web_server.elf elf32-littlenios2)

.debug_ranges   0x00000000      0xd48
 .debug_ranges  0x00000000       0x20 ../web_server_bsp//obj/HAL/src/crt0.o
 .debug_ranges  0x00000020       0x30 obj/default/srec_flash.o
 .debug_ranges  0x00000050       0x20 c:/altera/12.0/nios2eds/bin/gnu/h-i686-mingw32/bin/../lib/gcc/nios2-elf/4.1.2/../../../../nios2-elf/lib\libc.a(lib_a-fflush.o)
 .debug_ranges  0x00000070       0x18 c:/altera/12.0/nios2eds/bin/gnu/h-i686-mingw32/bin/../lib/gcc/nios2-elf/4.1.2/../../../../nios2-elf/lib\libc.a(lib_a-fread.o)
 .debug_ranges  0x00000088       0xa0 c:/altera/12.0/nios2eds/bin/gnu/h-i686-mingw32/bin/../lib/gcc/nios2-elf/4.1.2/../../../../nios2-elf/lib\libc.a(lib_a-fwalk.o)
 .debug_ranges  0x00000128       0x70 c:/altera/12.0/nios2eds/bin/gnu/h-i686-mingw32/bin/../lib/gcc/nios2-elf/4.1.2/../../../../nios2-elf/lib\libc.a(lib_a-mallocr.o)
 .debug_ranges  0x00000198      0x1b8 c:/altera/12.0/nios2eds/bin/gnu/h-i686-mingw32/bin/../lib/gcc/nios2-elf/4.1.2/../../../../nios2-elf/lib\libc.a(lib_a-strstr.o)
 .debug_ranges  0x00000350      0x168 c:/altera/12.0/nios2eds/bin/gnu/h-i686-mingw32/bin/../lib/gcc/nios2-elf/4.1.2/../../../../nios2-elf/lib\libc.a(lib_a-vfprintf.o)
 .debug_ranges  0x000004b8       0xd0 c:/altera/12.0/nios2eds/bin/gnu/h-i686-mingw32/bin/../lib/gcc/nios2-elf/4.1.2/../../../../nios2-elf/lib\libc.a(lib_a-vfscanf.o)
 .debug_ranges  0x00000588       0x28 c:/altera/12.0/nios2eds/bin/gnu/h-i686-mingw32/bin/../lib/gcc/nios2-elf/4.1.2/../../../../nios2-elf/lib\libc.a(lib_a-fvwrite.o)
 .debug_ranges  0x000005b0      0x110 c:/altera/12.0/nios2eds/bin/gnu/h-i686-mingw32/bin/../lib/gcc/nios2-elf/4.1.2/../../../../nios2-elf/lib\libc.a(lib_a-reallocr.o)
 .debug_ranges  0x000006c0       0x68 c:/altera/12.0/nios2eds/bin/gnu/h-i686-mingw32/bin/../lib/gcc/nios2-elf/4.1.2/../../../../nios2-elf/lib\libc.a(lib_a-strtod.o)
 .debug_ranges  0x00000728       0x38 c:/altera/12.0/nios2eds/bin/gnu/h-i686-mingw32/bin/../lib/gcc/nios2-elf/4.1.2/../../../../nios2-elf/lib\libc.a(lib_a-callocr.o)
 .debug_ranges  0x00000760       0x50 c:/altera/12.0/nios2eds/bin/gnu/h-i686-mingw32/bin/../lib/gcc/nios2-elf/4.1.2/../../../../nios2-elf/lib\libc.a(lib_a-gdtoa-gethex.o)
 .debug_ranges  0x000007b0       0x68 c:/altera/12.0/nios2eds/bin/gnu/h-i686-mingw32/bin/../lib/gcc/nios2-elf/4.1.2\libgcc.a(_muldi3.o)
 .debug_ranges  0x00000818      0x188 c:/altera/12.0/nios2eds/bin/gnu/h-i686-mingw32/bin/../lib/gcc/nios2-elf/4.1.2\libgcc.a(_udivdi3.o)
 .debug_ranges  0x000009a0      0x198 c:/altera/12.0/nios2eds/bin/gnu/h-i686-mingw32/bin/../lib/gcc/nios2-elf/4.1.2\libgcc.a(_umoddi3.o)
 .debug_ranges  0x00000b38       0x30 c:/altera/12.0/nios2eds/bin/gnu/h-i686-mingw32/bin/../lib/gcc/nios2-elf/4.1.2\libgcc.a(_addsub_df.o)
 .debug_ranges  0x00000b68       0x88 c:/altera/12.0/nios2eds/bin/gnu/h-i686-mingw32/bin/../lib/gcc/nios2-elf/4.1.2\libgcc.a(_mul_df.o)
 .debug_ranges  0x00000bf0       0x50 c:/altera/12.0/nios2eds/bin/gnu/h-i686-mingw32/bin/../lib/gcc/nios2-elf/4.1.2\libgcc.a(_div_df.o)
 .debug_ranges  0x00000c40       0x18 c:/altera/12.0/nios2eds/bin/gnu/h-i686-mingw32/bin/../lib/gcc/nios2-elf/4.1.2\libgcc.a(_usi_to_df.o)
 .debug_ranges  0x00000c58       0x28 c:/altera/12.0/nios2eds/bin/gnu/h-i686-mingw32/bin/../lib/gcc/nios2-elf/4.1.2\libgcc.a(_clzsi2.o)
 .debug_ranges  0x00000c80       0x28 c:/altera/12.0/nios2eds/bin/gnu/h-i686-mingw32/bin/../lib/gcc/nios2-elf/4.1.2\libgcc.a(_pack_df.o)
 .debug_ranges  0x00000ca8       0x18 ../web_server_bsp/\libucosii_bsp.a(altera_avalon_jtag_uart_init.o)
 .debug_ranges  0x00000cc0       0x18 ../web_server_bsp/\libucosii_bsp.a(altera_avalon_uart_init.o)
 .debug_ranges  0x00000cd8       0x28 ../web_server_bsp/\libucosii_bsp.a(alt_irq_entry.o)
 .debug_ranges  0x00000d00       0x30 ../web_server_bsp/\libucosii_bsp.a(alt_exception_entry.o)
 .debug_ranges  0x00000d30       0x18 c:/altera/12.0/nios2eds/bin/gnu/h-i686-mingw32/bin/../lib/gcc/nios2-elf/4.1.2/../../../../nios2-elf/lib\libc.a(lib_a-__call_atexit.o)
