
DE2_115_SD_Card_Audio_Player.elf:     file format elf32-littlenios2
DE2_115_SD_Card_Audio_Player.elf
architecture: nios2, flags 0x00000112:
EXEC_P, HAS_SYMS, D_PAGED
start address 0x030401b4

Program Header:
    LOAD off    0x00001000 vaddr 0x03040000 paddr 0x03040000 align 2**12
         filesz 0x00000020 memsz 0x00000020 flags r-x
    LOAD off    0x00001020 vaddr 0x03040020 paddr 0x03040020 align 2**12
         filesz 0x0001be48 memsz 0x0001be48 flags r-x
    LOAD off    0x0001ce68 vaddr 0x0305be68 paddr 0x0305dbac align 2**12
         filesz 0x00001d44 memsz 0x00001d44 flags rw-
    LOAD off    0x0001f8f0 vaddr 0x0305f8f0 paddr 0x0305f8f0 align 2**12
         filesz 0x00000000 memsz 0x000015a4 flags rw-

Sections:
Idx Name          Size      VMA       LMA       File off  Algn
  0 .entry        00000020  03040000  03040000  00001000  2**5
                  CONTENTS, ALLOC, LOAD, READONLY, CODE
  1 .exceptions   00000194  03040020  03040020  00001020  2**2
                  CONTENTS, ALLOC, LOAD, READONLY, CODE
  2 .text         0001a9c4  030401b4  030401b4  000011b4  2**2
                  CONTENTS, ALLOC, LOAD, READONLY, CODE
  3 .rodata       000012f0  0305ab78  0305ab78  0001bb78  2**2
                  CONTENTS, ALLOC, LOAD, READONLY, DATA
  4 .rwdata       00001d44  0305be68  0305dbac  0001ce68  2**2
                  CONTENTS, ALLOC, LOAD, DATA, SMALL_DATA
  5 .bss          000015a4  0305f8f0  0305f8f0  0001f8f0  2**2
                  ALLOC, SMALL_DATA
  6 .comment      00000023  00000000  00000000  0001ebac  2**0
                  CONTENTS, READONLY
  7 .debug_aranges 000012f8  00000000  00000000  0001ebd0  2**3
                  CONTENTS, READONLY, DEBUGGING
  8 .debug_pubnames 000027c5  00000000  00000000  0001fec8  2**0
                  CONTENTS, READONLY, DEBUGGING
  9 .debug_info   0003a9f6  00000000  00000000  0002268d  2**0
                  CONTENTS, READONLY, DEBUGGING
 10 .debug_abbrev 0000bf94  00000000  00000000  0005d083  2**0
                  CONTENTS, READONLY, DEBUGGING
 11 .debug_line   000213d9  00000000  00000000  00069017  2**0
                  CONTENTS, READONLY, DEBUGGING
 12 .debug_frame  0000340c  00000000  00000000  0008a3f0  2**2
                  CONTENTS, READONLY, DEBUGGING
 13 .debug_str    00002e19  00000000  00000000  0008d7fc  2**0
                  CONTENTS, READONLY, DEBUGGING
 14 .debug_loc    0000f3a7  00000000  00000000  00090615  2**0
                  CONTENTS, READONLY, DEBUGGING
 15 .debug_alt_sim_info 00000060  00000000  00000000  0009f9bc  2**2
                  CONTENTS, READONLY, DEBUGGING
 16 .debug_ranges 00000ab0  00000000  00000000  0009fa20  2**3
                  CONTENTS, READONLY, DEBUGGING
 17 .thread_model 00000003  00000000  00000000  000a594e  2**0
                  CONTENTS, READONLY
 18 .cpu          00000003  00000000  00000000  000a5951  2**0
                  CONTENTS, READONLY
 19 .qsys         00000001  00000000  00000000  000a5954  2**0
                  CONTENTS, READONLY
 20 .simulation_enabled 00000001  00000000  00000000  000a5955  2**0
                  CONTENTS, READONLY
 21 .sysid_hash   00000004  00000000  00000000  000a5956  2**0
                  CONTENTS, READONLY
 22 .sysid_base   00000004  00000000  00000000  000a595a  2**0
                  CONTENTS, READONLY
 23 .sysid_time   00000004  00000000  00000000  000a595e  2**0
                  CONTENTS, READONLY
 24 .stderr_dev   00000009  00000000  00000000  000a5962  2**0
                  CONTENTS, READONLY
 25 .stdin_dev    00000009  00000000  00000000  000a596b  2**0
                  CONTENTS, READONLY
 26 .stdout_dev   00000009  00000000  00000000  000a5974  2**0
                  CONTENTS, READONLY
 27 .sopc_system_name 0000000c  00000000  00000000  000a597d  2**0
                  CONTENTS, READONLY
 28 .quartus_project_dir 0000003b  00000000  00000000  000a5989  2**0
                  CONTENTS, READONLY
 29 .jdi          00004924  00000000  00000000  000a59c4  2**0
                  CONTENTS, READONLY
 30 .sopcinfo     000c9c34  00000000  00000000  000aa2e8  2**0
                  CONTENTS, READONLY
SYMBOL TABLE:
03040000 l    d  .entry	00000000 .entry
03040020 l    d  .exceptions	00000000 .exceptions
030401b4 l    d  .text	00000000 .text
0305ab78 l    d  .rodata	00000000 .rodata
0305be68 l    d  .rwdata	00000000 .rwdata
0305f8f0 l    d  .bss	00000000 .bss
00000000 l    d  .comment	00000000 .comment
00000000 l    d  .debug_aranges	00000000 .debug_aranges
00000000 l    d  .debug_pubnames	00000000 .debug_pubnames
00000000 l    d  .debug_info	00000000 .debug_info
00000000 l    d  .debug_abbrev	00000000 .debug_abbrev
00000000 l    d  .debug_line	00000000 .debug_line
00000000 l    d  .debug_frame	00000000 .debug_frame
00000000 l    d  .debug_str	00000000 .debug_str
00000000 l    d  .debug_loc	00000000 .debug_loc
00000000 l    d  .debug_alt_sim_info	00000000 .debug_alt_sim_info
00000000 l    d  .debug_ranges	00000000 .debug_ranges
030401fc l       .text	00000000 alt_after_alt_main
00000000 l    df *ABS*	00000000 alt_irq_handler.c
00000000 l    df *ABS*	00000000 main.c
0305f8f0 l     O .bss	00000004 nMute_Volume
0305f8f4 l     O .bss	00000004 bLastSwitch
0305f8f8 l     O .bss	00000004 bNextSwitch
0305f8fc l     O .bss	00000004 bMuteSwitch
0305db50 l     O .rwdata	00000004 bPlaySwitch
03060940 l     O .bss	0000023c gWavePlay
0305f93c l     O .bss	00001004 gWavePlayList
0305f900 l     O .bss	00000004 hFat
0305db54 l     O .rwdata	00000004 bFirsTime2SetupVol.4072
0305db58 l     O .rwdata	00000004 bFirsTime2SetupVol.4126
00000000 l    df *ABS*	00000000 FatFileSystem.c
00000000 l    df *ABS*	00000000 FatInternal.c
0305b10d l     O .rodata	00000011 C.32.3818
0305b11e l     O .rodata	0000000f C.35.3847
00000000 l    df *ABS*	00000000 AUDIO.c
03060b7c l     O .bss	00000028 reg_file
00000000 l    df *ABS*	00000000 I2C.c
00000000 l    df *ABS*	00000000 LCD.c
0305f904 l     O .bss	00000004 fp
00000000 l    df *ABS*	00000000 LED.c
00000000 l    df *ABS*	00000000 SEG7.c
0305be68 l     O .rwdata	00000010 szMap
00000000 l    df *ABS*	00000000 WaveLib.c
00000000 l    df *ABS*	00000000 debug.c
00000000 l    df *ABS*	00000000 crc16.c
0305b568 l     O .rodata	00000200 crc16tab
00000000 l    df *ABS*	00000000 crc7.c
0305b768 l     O .rodata	00000100 crc7_syndrome_table
00000000 l    df *ABS*	00000000 sd_hal.c
00000000 l    df *ABS*	00000000 sd_lib.c
03060ba4 l     O .bss	00000038 gSdInfo
00000000 l    df *ABS*	00000000 sd_protocol.c
00000000 l    df *ABS*	00000000 fp-bit.c
00000000 l    df *ABS*	00000000 fp-bit.c
00000000 l    df *ABS*	00000000 fp-bit.c
00000000 l    df *ABS*	00000000 fp-bit.c
00000000 l    df *ABS*	00000000 fp-bit.c
00000000 l    df *ABS*	00000000 dp-bit.c
00000000 l    df *ABS*	00000000 dp-bit.c
00000000 l    df *ABS*	00000000 dp-bit.c
00000000 l    df *ABS*	00000000 dp-bit.c
00000000 l    df *ABS*	00000000 lib2-divmod.c
030495ec l     F .text	0000007c udivmodsi4
00000000 l    df *ABS*	00000000 libgcc2.c
00000000 l    df *ABS*	00000000 libgcc2.c
00000000 l    df *ABS*	00000000 fp-bit.c
00000000 l    df *ABS*	00000000 fp-bit.c
00000000 l    df *ABS*	00000000 fp-bit.c
00000000 l    df *ABS*	00000000 dp-bit.c
00000000 l    df *ABS*	00000000 dp-bit.c
00000000 l    df *ABS*	00000000 libgcc2.c
00000000 l    df *ABS*	00000000 fclose.c
00000000 l    df *ABS*	00000000 fflush.c
00000000 l    df *ABS*	00000000 findfp.c
0304a244 l     F .text	00000058 std
0304a350 l     F .text	00000008 __fp_lock
0304a358 l     F .text	00000008 __fp_unlock
00000000 l    df *ABS*	00000000 fopen.c
00000000 l    df *ABS*	00000000 mallocr.c
00000000 l    df *ABS*	00000000 fseek.c
00000000 l    df *ABS*	00000000 fstatr.c
00000000 l    df *ABS*	00000000 fwalk.c
00000000 l    df *ABS*	00000000 fwrite.c
00000000 l    df *ABS*	00000000 impure.c
0305be78 l     O .rwdata	00000400 impure_data
00000000 l    df *ABS*	00000000 int_errno.c
00000000 l    df *ABS*	00000000 makebuf.c
00000000 l    df *ABS*	00000000 malloc.c
00000000 l    df *ABS*	00000000 mallocr.c
00000000 l    df *ABS*	00000000 memcpy.c
00000000 l    df *ABS*	00000000 memset.c
00000000 l    df *ABS*	00000000 openr.c
00000000 l    df *ABS*	00000000 printf.c
00000000 l    df *ABS*	00000000 putchar.c
00000000 l    df *ABS*	00000000 puts.c
00000000 l    df *ABS*	00000000 refill.c
0304bf44 l     F .text	0000001c lflush
00000000 l    df *ABS*	00000000 sbrkr.c
00000000 l    df *ABS*	00000000 sprintf.c
00000000 l    df *ABS*	00000000 stdio.c
00000000 l    df *ABS*	00000000 strcasecmp.c
00000000 l    df *ABS*	00000000 strcmp.c
00000000 l    df *ABS*	00000000 strcpy.c
00000000 l    df *ABS*	00000000 strlen.c
00000000 l    df *ABS*	00000000 vfprintf.c
0304c45c l     F .text	00000058 __sprint_r
0305ba02 l     O .rodata	00000010 blanks.3452
0305b9f2 l     O .rodata	00000010 zeroes.3453
00000000 l    df *ABS*	00000000 vsnprintf.c
00000000 l    df *ABS*	00000000 writer.c
00000000 l    df *ABS*	00000000 wsetup.c
00000000 l    df *ABS*	00000000 closer.c
00000000 l    df *ABS*	00000000 ctype_.c
0305bb13 l     O .rodata	00000180 _ctype_b
00000000 l    df *ABS*	00000000 dtoa.c
0304e69c l     F .text	00000218 quorem
00000000 l    df *ABS*	00000000 flags.c
00000000 l    df *ABS*	00000000 fvwrite.c
00000000 l    df *ABS*	00000000 isattyr.c
00000000 l    df *ABS*	00000000 locale.c
0305db74 l     O .rwdata	00000004 charset
0305bcb4 l     O .rodata	00000030 lconv
00000000 l    df *ABS*	00000000 lseekr.c
00000000 l    df *ABS*	00000000 memchr.c
00000000 l    df *ABS*	00000000 memmove.c
00000000 l    df *ABS*	00000000 mprec.c
0305bdfc l     O .rodata	0000000c p05.2458
00000000 l    df *ABS*	00000000 putc.c
00000000 l    df *ABS*	00000000 readr.c
00000000 l    df *ABS*	00000000 mallocr.c
00000000 l    df *ABS*	00000000 s_isinfd.c
00000000 l    df *ABS*	00000000 s_isnand.c
00000000 l    df *ABS*	00000000 wbuf.c
00000000 l    df *ABS*	00000000 mallocr.c
00000000 l    df *ABS*	00000000 libgcc2.c
00000000 l    df *ABS*	00000000 libgcc2.c
00000000 l    df *ABS*	00000000 dp-bit.c
03052d5c l     F .text	00000410 _fpadd_parts
00000000 l    df *ABS*	00000000 dp-bit.c
00000000 l    df *ABS*	00000000 dp-bit.c
00000000 l    df *ABS*	00000000 dp-bit.c
00000000 l    df *ABS*	00000000 dp-bit.c
00000000 l    df *ABS*	00000000 dp-bit.c
00000000 l    df *ABS*	00000000 dp-bit.c
00000000 l    df *ABS*	00000000 dp-bit.c
00000000 l    df *ABS*	00000000 dp-bit.c
00000000 l    df *ABS*	00000000 dp-bit.c
00000000 l    df *ABS*	00000000 dp-bit.c
00000000 l    df *ABS*	00000000 alt_close.c
03053df4 l     F .text	00000060 alt_get_errno
00000000 l    df *ABS*	00000000 alt_dev.c
03053e54 l     F .text	0000002c alt_dev_null_write
00000000 l    df *ABS*	00000000 alt_errno.c
00000000 l    df *ABS*	00000000 alt_fstat.c
03053f54 l     F .text	00000060 alt_get_errno
00000000 l    df *ABS*	00000000 alt_irq_register.c
00000000 l    df *ABS*	00000000 alt_irq_vars.c
00000000 l    df *ABS*	00000000 alt_isatty.c
03054234 l     F .text	00000060 alt_get_errno
00000000 l    df *ABS*	00000000 alt_load.c
03054314 l     F .text	0000006c alt_load_section
00000000 l    df *ABS*	00000000 alt_lseek.c
03054470 l     F .text	00000060 alt_get_errno
00000000 l    df *ABS*	00000000 alt_main.c
00000000 l    df *ABS*	00000000 alt_malloc_lock.c
00000000 l    df *ABS*	00000000 alt_open.c
0305457c l     F .text	000000dc alt_file_locked
030547e0 l     F .text	00000060 alt_get_errno
00000000 l    df *ABS*	00000000 alt_read.c
03054960 l     F .text	00000060 alt_get_errno
00000000 l    df *ABS*	00000000 alt_release_fd.c
00000000 l    df *ABS*	00000000 alt_sbrk.c
0305db94 l     O .rwdata	00000004 heap_end
00000000 l    df *ABS*	00000000 alt_tick.c
00000000 l    df *ABS*	00000000 alt_usleep.c
00000000 l    df *ABS*	00000000 alt_write.c
03054dd0 l     F .text	00000060 alt_get_errno
00000000 l    df *ABS*	00000000 alt_sys_init.c
0305c834 l     O .rwdata	000000d8 av_tri_s1_cfi_flash_0
0305c90c l     O .rwdata	00001060 jtag_uart
0305d96c l     O .rwdata	00000120 lcd
0305da8c l     O .rwdata	000000c4 rs232
03054f00 l     F .text	00000038 alt_dev_reg
00000000 l    df *ABS*	00000000 altera_avalon_cfi_flash.c
03054fd4 l     F .text	00000038 alt_flash_device_register
00000000 l    df *ABS*	00000000 altera_avalon_cfi_flash_table.c
03055dc4 l     F .text	0000007c alt_read_16bit_query_entry
00000000 l    df *ABS*	00000000 altera_avalon_jtag_uart_fd.c
00000000 l    df *ABS*	00000000 altera_avalon_jtag_uart_init.c
03056e50 l     F .text	00000228 altera_avalon_jtag_uart_irq
03057078 l     F .text	000000b0 altera_avalon_jtag_uart_timeout
00000000 l    df *ABS*	00000000 altera_avalon_jtag_uart_ioctl.c
00000000 l    df *ABS*	00000000 altera_avalon_jtag_uart_read.c
00000000 l    df *ABS*	00000000 altera_avalon_jtag_uart_write.c
00000000 l    df *ABS*	00000000 altera_avalon_lcd_16207.c
0305dba0 l     O .rwdata	00000004 colstart
030576f4 l     F .text	000000b8 lcd_write_command
030577ac l     F .text	000000d4 lcd_write_data
03057880 l     F .text	000000c4 lcd_clear_screen
03057944 l     F .text	000001ec lcd_repaint_screen
03057b30 l     F .text	000000c8 lcd_scroll_up
03057bf8 l     F .text	000002d0 lcd_handle_escape
030583d4 l     F .text	000000cc alt_lcd_16207_timeout
00000000 l    df *ABS*	00000000 altera_avalon_lcd_16207_fd.c
00000000 l    df *ABS*	00000000 altera_avalon_timer_sc.c
03058634 l     F .text	00000070 alt_avalon_timer_sc_irq
00000000 l    df *ABS*	00000000 altera_avalon_uart_fd.c
00000000 l    df *ABS*	00000000 altera_avalon_uart_init.c
030588f4 l     F .text	0000009c altera_avalon_uart_irq
03058990 l     F .text	000000e0 altera_avalon_uart_rxirq
03058a70 l     F .text	0000015c altera_avalon_uart_txirq
00000000 l    df *ABS*	00000000 altera_avalon_uart_read.c
03058e5c l     F .text	00000060 alt_get_errno
00000000 l    df *ABS*	00000000 altera_avalon_uart_write.c
03059084 l     F .text	00000060 alt_get_errno
00000000 l    df *ABS*	00000000 alt_alarm_start.c
00000000 l    df *ABS*	00000000 alt_busy_sleep.c
00000000 l    df *ABS*	00000000 alt_dcache_flush.c
00000000 l    df *ABS*	00000000 alt_dcache_flush_all.c
00000000 l    df *ABS*	00000000 alt_dev_llist_insert.c
030594f4 l     F .text	00000060 alt_get_errno
00000000 l    df *ABS*	00000000 alt_do_ctors.c
00000000 l    df *ABS*	00000000 alt_do_dtors.c
00000000 l    df *ABS*	00000000 alt_find_dev.c
00000000 l    df *ABS*	00000000 alt_find_file.c
00000000 l    df *ABS*	00000000 alt_flash_dev.c
00000000 l    df *ABS*	00000000 alt_get_fd.c
00000000 l    df *ABS*	00000000 alt_icache_flush_all.c
00000000 l    df *ABS*	00000000 alt_iic.c
00000000 l    df *ABS*	00000000 alt_iic_isr_register.c
00000000 l    df *ABS*	00000000 alt_io_redirect.c
03059c54 l     F .text	000000c4 alt_open_fd
00000000 l    df *ABS*	00000000 altera_nios2_qsys_irq.c
00000000 l    df *ABS*	00000000 altera_avalon_cfi_flash_amd.c
0305a154 l     F .text	000000bc alt_write_word_amd
0305a030 l     F .text	00000124 alt_wait_for_command_to_complete_amd
00000000 l    df *ABS*	00000000 altera_avalon_cfi_flash_intel.c
0305a408 l     F .text	0000018c alt_unlock_block_intel
0305a594 l     F .text	000000dc alt_write_word_intel
00000000 l    df *ABS*	00000000 alt_icache_flush.c
00000000 l    df *ABS*	00000000 atexit.c
00000000 l    df *ABS*	00000000 exit.c
00000000 l    df *ABS*	00000000 memcmp.c
00000000 l    df *ABS*	00000000 __atexit.c
00000000 l    df *ABS*	00000000 __call_atexit.c
0305a8f4 l     F .text	00000004 register_fini
00000000 l    df *ABS*	00000000 alt_exit.c
0305aaa8 l     F .text	00000040 alt_sim_halt
0304bca8 g     F .text	0000001c putchar
03050b20 g     F .text	00000094 _mprec_log10
03045734 g     F .text	00000128 I2C_Read
03050c0c g     F .text	00000088 __any_on
030503a4 g     F .text	00000070 _isatty_r
0305bdd4 g     O .rodata	00000028 __mprec_tinytens
030467bc g     F .text	00000064 Wave_GetWaveOffset
030544d0 g     F .text	0000006c alt_main
0304c35c g     F .text	0000008c strcpy
03040480 g     F .text	00000030 led_display_count
0304bccc g     F .text	000000a0 _puts_r
03055884 g     F .text	00000048 alt_read_query_entry_32bit
03041c9c g     F .text	0000007c Fat_FileBrowseBegin
03060c04 g     O .bss	00000100 alt_irq
030504d8 g     F .text	00000078 _lseek_r
0305500c g     F .text	000002c0 alt_flash_cfi_write
0305dbac g       *ABS*	00000000 __flash_rwdata_start
03040f84 g     F .text	0000001c waveplay_stop
0304fe68 g     F .text	000000a0 __sflags
03053624 g     F .text	00000088 __eqdf2
030476fc g     F .text	00000090 SDLIB_WriteBlock512
03060e94 g       *ABS*	00000000 __alt_heap_start
030448a0 g     F .text	000001c4 AUDIO_Init
0304bc30 g     F .text	00000044 printf
03048be4 g     F .text	000001a4 SD_CMD24
03044b1c g     F .text	00000078 AUDIO_AdcEnableHighPassFilter
0304c0ac g     F .text	00000068 __sseek
0304a2ac g     F .text	000000a4 __sinit
03051fd0 g     F .text	00000130 __swbuf_r
03050438 g     F .text	00000084 _setlocale_r
0304a3ac g     F .text	00000068 __sfmoreglue
0305455c g     F .text	00000020 __malloc_unlock
03041d18 g     F .text	000004f8 Fat_FileBrowseNext
03049060 g     F .text	00000174 __divsf3
030462ec g     F .text	00000134 waveGetChunkOffset
03046b1c g     F .text	0000002c SDHAL_IsSupport4Bits
03046a5c g     F .text	0000004c crc7_byte
03043814 g     F .text	000000a8 fatIsValidDir
03050634 g     F .text	000000e0 memmove
0304a39c g     F .text	00000010 _cleanup
030453ec g     F .text	000000fc aduio_RegWrite
0304560c g     F .text	0000002c AUDIO_FifoClear
03050c94 g     F .text	000000bc _Balloc
03045f00 g     F .text	0000002c LED_AllOff
03053734 g     F .text	00000088 __gtdf2
00000000  w      *UND*	00000000 __errno
030455b8 g     F .text	00000054 AUDIO_AdcFifoGetData
03055a10 g     F .text	00000048 alt_write_flash_command_32bit_device_16bit_mode
03045ae0 g     F .text	00000124 i2c_write
03040000 g     F .entry	0000001c __reset
03046ca0 g     F .text	000002a0 SDHAL_GetResponse
03040020 g       *ABS*	00000000 __flash_exceptions_start
03045e10 g     F .text	00000088 LCD_Clear
0304aeb4 g     F .text	00000074 _fstat_r
03055528 g     F .text	000002d8 alt_flash_program_block
0305f908 g     O .bss	00000004 errno
03049540 g     F .text	00000038 __make_dp
03040304 g     F .text	0000009c update_status
03043208 g     F .text	00000158 fatNextCluster
03049a78 g     F .text	0000002c __make_fp
0305f92c g     O .bss	00000004 alt_argv
03065b50 g       *ABS*	00000000 _gp
03054c80 g     F .text	00000030 usleep
0305c6b4 g     O .rwdata	00000180 alt_fd_list
0304bcc4 g     F .text	00000008 _putchar_r
03040554 g     F .text	0000008c is_supporrted_sample_rate
0305961c g     F .text	00000094 alt_find_dev
0304ba80 g     F .text	000000a0 memcpy
03045f2c g     F .text	00000050 LED_Display
0304a390 g     F .text	0000000c _cleanup_r
030538cc g     F .text	000000f8 __floatsidf
03046420 g     F .text	00000154 WAVE_IsWaveFile
03059d18 g     F .text	00000078 alt_io_redirect
03053844 g     F .text	00000088 __ltdf2
0305ab78 g       *ABS*	00000000 __DTOR_END__
030424f0 g     F .text	000000b0 Fat_FileExist
0304bd6c g     F .text	00000014 puts
030404b0 g     F .text	000000a4 wait_sdcard_insert
03047d14 g     F .text	000001a4 SD_CMD2
03050a70 g     F .text	000000b0 __ratio
03057290 g     F .text	00000224 altera_avalon_jtag_uart_read
0304b32c g     F .text	00000014 malloc
0304bc74 g     F .text	00000034 _printf_r
03049728 g     F .text	00000008 __udivsi3
03054174 g     F .text	000000c0 isatty
030452d4 g     F .text	0000008c AUDIO_EnableByPass
0305bce4 g     O .rodata	000000c8 __mprec_tens
030488c4 g     F .text	0000017c SD_ACMD42
03050414 g     F .text	00000008 __locale_charset
0304e438 g     F .text	00000040 vsnprintf
0305a670 g     F .text	00000090 alt_icache_flush
0304585c g     F .text	00000184 I2C_MultipleRead
0305f90c g     O .bss	00000004 __malloc_top_pad
0304509c g     F .text	0000011c AUDIO_SetLineInVol
0305db70 g     O .rwdata	00000004 __mb_cur_max
0305041c g     F .text	0000000c _localeconv_r
03048404 g     F .text	00000188 SD_CMD7
0304041c g     F .text	00000034 lcd_display
0305138c g     F .text	0000003c __i2b
0304ff08 g     F .text	0000049c __sfvwrite_r
03046000 g     F .text	0000005c SEG7_Clear
0304bf60 g     F .text	00000070 _sbrk_r
0305a210 g     F .text	00000084 alt_program_intel
0304858c g     F .text	000001a0 SD_CMD16
03048e08 g     F .text	00000078 ArrayToU32
030518f4 g     F .text	00000078 _read_r
03059384 g     F .text	00000078 alt_dcache_flush
0305c680 g     O .rwdata	0000000c __lc_ctype
0305db88 g     O .rwdata	00000004 alt_max_fd
03055800 g     F .text	00000040 alt_read_query_entry_8bit
030442ec g     F .text	000003d0 fatMount
03049db8 g     F .text	00000138 __unpack_d
03049ef0 g     F .text	00000110 _fclose_r
0305a294 g     F .text	00000174 alt_erase_block_intel
0304a210 g     F .text	00000034 fflush
03044c4c g     F .text	000000e0 AUDIO_DacEnableZeroCross
0305f910 g     O .bss	00000004 __malloc_max_sbrked_mem
03045dac g     F .text	00000064 LCD_TextOut
03053fb4 g     F .text	000001c0 alt_irq_register
030491d4 g     F .text	00000054 __extendsfdf2
030531ec g     F .text	00000074 __adddf3
030438bc g     F .text	00000050 fatIsUnusedDir
03040c4c g     F .text	00000338 waveplay_execute
03050950 g     F .text	00000120 __b2d
030527ac g     F .text	000005b0 __umoddi3
03054380 g     F .text	000000f0 lseek
0305db60 g     O .rwdata	00000004 _global_impure_ptr
0305196c g     F .text	000005f4 _realloc_r
03060e94 g       *ABS*	00000000 __bss_end
03059b5c g     F .text	000000f8 alt_iic_isr_register
03054b74 g     F .text	0000010c alt_tick
030521d0 g     F .text	000005dc __udivdi3
0305bdac g     O .rodata	00000028 __mprec_bigtens
030515e8 g     F .text	00000120 __s2b
03053a9c g     F .text	00000194 __floatunsidf
03044aa4 g     F .text	00000078 AUDIO_MicBoost
03050870 g     F .text	00000060 __mcmp
0305882c g     F .text	000000c8 altera_avalon_uart_init
0305db6c g     O .rwdata	00000004 __ctype_ptr
030446bc g     F .text	0000003c SD_ReadBlock512
0304a378 g     F .text	00000018 __fp_lock_all
03059b14 g     F .text	00000048 alt_ic_irq_enabled
03045638 g     F .text	000000fc I2C_Write
030425a0 g     F .text	00000238 Fat_FileOpen
030460c0 g     F .text	00000078 SEG7_Number
03054adc g     F .text	00000098 alt_alarm_stop
03045e98 g     F .text	0000003c LCD_Close
0305f924 g     O .bss	00000004 alt_irq_active
030434d8 g     F .text	000001e4 fatDelClusterList
030400ec g     F .exceptions	000000c8 alt_irq_handler
0305c68c g     O .rwdata	00000028 alt_dev_null
03046bac g     F .text	000000f4 SDHAL_SendCmd
030499b0 g     F .text	000000c8 __unpack_f
03055d18 g     F .text	000000ac alt_set_flash_algorithm_func
030459e0 g     F .text	00000088 i2c_start
030593fc g     F .text	00000044 alt_dcache_flush_all
0305073c g     F .text	00000070 __hi0bits
03046f40 g     F .text	00000158 SDHAL_ReadData
030539c4 g     F .text	000000d8 __fixdfsi
030558cc g     F .text	0000003c alt_write_flash_command_8bit_device_8bit_mode
0305dbac g       *ABS*	00000000 __ram_rwdata_end
0305db80 g     O .rwdata	00000008 alt_dev_list
03041b98 g     F .text	00000048 Fat_Mount
03054cb0 g     F .text	00000120 write
0305180c g     F .text	000000e8 _putc_r
0305be68 g       *ABS*	00000000 __ram_rodata_end
03053e80 g     F .text	000000d4 fstat
03046850 g     F .text	00000060 myprintf
03056b6c g     F .text	000000dc alt_check_primary_table
030403f4 g     F .text	00000028 lcd_open
030514c8 g     F .text	00000120 __pow5mult
0305f918 g     O .bss	00000004 __nlocale_changed
03049730 g     F .text	00000008 __umodsi3
0305535c g     F .text	00000068 alt_flash_cfi_read
03055aa0 g     F .text	00000034 alt_write_native_8bit
03045360 g     F .text	0000008c AUDIO_EnableSiteTone
03060e94 g       *ABS*	00000000 end
03049850 g     F .text	00000160 __pack_f
03055908 g     F .text	0000007c alt_write_flash_command_16bit_device_8bit_mode
03045ed4 g     F .text	0000002c LED_AllOn
03057ec8 g     F .text	0000050c altera_avalon_lcd_16207_write
03058ebc g     F .text	000001c8 altera_avalon_uart_write
0304ae90 g     F .text	00000024 fseek
03055e40 g     F .text	00000580 alt_read_cfi_table
03056d90 g     F .text	000000c0 altera_avalon_jtag_uart_init
0305ab74 g       *ABS*	00000000 __CTOR_LIST__
03080000 g       *ABS*	00000000 __alt_stack_pointer
030586a4 g     F .text	00000090 alt_avalon_timer_sc_init
0305878c g     F .text	00000058 altera_avalon_uart_write_fd
030497d0 g     F .text	00000080 __clzsi2
030587e4 g     F .text	00000048 altera_avalon_uart_close_fd
030574b4 g     F .text	00000240 altera_avalon_jtag_uart_write
03042e24 g     F .text	00000044 Fat_FileClose
03054f38 g     F .text	0000009c alt_flash_cfi_init
0304a29c g     F .text	00000004 __sfp_lock_acquire
03042210 g     F .text	00000068 Fat_FileCount
03050550 g     F .text	000000e4 memchr
0304c4b4 g     F .text	00001eac ___vfprintf_internal_r
0304c044 g     F .text	00000060 _sprintf_r
0304a740 g     F .text	00000314 _free_r
0305a8f8 g     F .text	000001b0 __call_exitprocs
0305f91c g     O .bss	00000004 __mlocale_changed
0305db68 g     O .rwdata	00000004 __malloc_sbrk_base
030401b4 g     F .text	0000004c _start
0305f934 g     O .bss	00000004 _alt_tick_rate
03051058 g     F .text	0000014c __lshift
0305f938 g     O .bss	00000004 _alt_nticks
030477dc g     F .text	00000080 SD_CMD0
03054840 g     F .text	00000120 read
03054e64 g     F .text	0000009c alt_sys_init
0304bbb8 g     F .text	00000078 _open_r
0305a7c0 g     F .text	00000134 __register_exitproc
03044d2c g     F .text	0000008c AUDIO_DacEnableSoftMute
03047274 g     F .text	0000005c SDHAL_DummyClock
030427d8 g     F .text	00000050 Fat_FileSize
03055840 g     F .text	00000044 alt_read_query_entry_16bit
030469b4 g     F .text	000000a8 crc16
030511a4 g     F .text	000001e8 __multiply
0304778c g     F .text	00000028 SD_Init
03057128 g     F .text	00000074 altera_avalon_jtag_uart_close
0305be68 g       *ABS*	00000000 __ram_rwdata_start
0305ab78 g       *ABS*	00000000 __ram_rodata_start
03060bdc g     O .bss	00000028 __malloc_current_mallinfo
03055b38 g     F .text	000001e0 alt_set_flash_width_func
03050d50 g     F .text	0000017c __d2b
0304c1f0 g     F .text	000000b0 strcasecmp
03040450 g     F .text	00000030 led_display
03056c48 g     F .text	00000058 altera_avalon_jtag_uart_read_fd
030598a0 g     F .text	000000b8 alt_get_fd
03059238 g     F .text	0000014c alt_busy_sleep
03053c30 g     F .text	000000c8 __fpcmp_parts_d
0304e62c g     F .text	00000070 _close_r
03059e18 g     F .text	00000218 alt_erase_block_amd
03042828 g     F .text	000004d8 Fat_FileRead
0305a74c g     F .text	00000074 memcmp
03056cf8 g     F .text	00000048 altera_avalon_jtag_uart_close_fd
03060e94 g       *ABS*	00000000 __alt_stack_base
03056d40 g     F .text	00000050 altera_avalon_jtag_uart_ioctl_fd
0304b0a8 g     F .text	0000009c _fwrite_r
030441d8 g     F .text	00000114 fatFindUnusedDirectory
03046b48 g     F .text	00000064 SDHAL_Init
0304e4f0 g     F .text	0000013c __swsetup_r
030563c0 g     F .text	000007ac alt_read_cfi_width
030492e8 g     F .text	00000258 __divdf3
0304a414 g     F .text	000000f0 __sfp
03050bb4 g     F .text	00000058 __copybits
03044b94 g     F .text	000000b8 AUDIO_DacDeemphasisControl
0305c278 g     O .rwdata	00000408 __malloc_av_
03046720 g     F .text	0000009c Wave_GetDataByteSize
0304a2a8 g     F .text	00000004 __sinit_lock_release
0304e384 g     F .text	000000b4 _vsnprintf_r
03045a68 g     F .text	00000078 i2c_stop
03053260 g     F .text	000003c4 __muldf3
0304c190 g     F .text	00000060 __sread
0305b868 g     O .rodata	00000010 __thenan_sf
03042e68 g     F .text	00000214 Fat_SpeedTest
0304605c g     F .text	00000064 SEG7_Full
03040200 g     F .text	00000068 welcome_display
030596b0 g     F .text	00000120 alt_find_file
03046208 g     F .text	000000e4 SEG7_Decimal
03059440 g     F .text	000000b4 alt_dev_llist_insert
0305453c g     F .text	00000020 __malloc_lock
03054a20 g     F .text	000000bc sbrk
03044f24 g     F .text	0000008c AUDIO_SetInputSource
0304a014 g     F .text	000001fc _fflush_r
0305211c g     F .text	000000b4 _calloc_r
0305dba4 g     O .rwdata	00000008 alt_flash_dev_list
03044a64 g     F .text	00000040 AUDIO_InterfaceActive
030559cc g     F .text	00000044 alt_write_flash_command_16bit_device_16bit_mode
03044138 g     F .text	000000a0 fatFindDirectory
0304a5f8 g     F .text	0000001c fopen
0305f8f0 g       *ABS*	00000000 __bss_start
03046610 g     F .text	00000088 Wave_GetChannelNum
0304bb20 g     F .text	00000098 memset
030417cc g     F .text	000003cc main
030440a8 g     F .text	00000090 fatReadSecter
0305f930 g     O .bss	00000004 alt_envp
0305f914 g     O .bss	00000004 __malloc_max_total_mem
030468b0 g     F .text	00000080 myprintf_hexarray
03056ca0 g     F .text	00000058 altera_avalon_jtag_uart_write_fd
03045c04 g     F .text	0000014c i2c_read
03052100 g     F .text	0000001c __swbuf
030584a0 g     F .text	0000013c altera_avalon_lcd_16207_init
0304c0a4 g     F .text	00000008 __sclose
0304390c g     F .text	00000710 fatDump
03080000 g       *ABS*	00000000 __alt_heap_limit
0304a000 g     F .text	00000014 fclose
03049578 g     F .text	00000074 __truncdfsf2
03060d04 g     O .bss	00000190 _atexit0
0304e8b4 g     F .text	000015b4 _dtoa_r
0304b340 g     F .text	00000740 _malloc_r
03048dc8 g     F .text	00000040 SD_WriteData
0305db8c g     O .rwdata	00000004 alt_errno
03055a58 g     F .text	00000048 alt_write_flash_command_32bit_device_32bit_mode
0304aff0 g     F .text	000000b8 _fwalk
030553c4 g     F .text	00000164 alt_write_value_to_flash
030436bc g     F .text	00000084 fatDumpDate
03055ad4 g     F .text	00000034 alt_write_native_16bit
03046aa8 g     F .text	00000074 crc7
03051708 g     F .text	00000104 putc
03042d00 g     F .text	00000124 Fat_FileSeek
03049668 g     F .text	00000060 __divsi3
03045d50 g     F .text	0000005c LCD_Open
0304872c g     F .text	00000198 SD_ACMD6
0305b878 g     O .rodata	00000014 __thenan_df
0304a614 g     F .text	0000012c _malloc_trim_r
0305ab78 g       *ABS*	00000000 __CTOR_END__
03048e80 g     F .text	000001e0 __mulsf3
03044e44 g     F .text	000000e0 AUDIO_LineInMute
0304c2a0 g     F .text	000000bc strcmp
030446f8 g     F .text	0000003c SD_WriteBlock512
03044db8 g     F .text	0000008c AUDIO_MicMute
0305ab78 g       *ABS*	00000000 __flash_rodata_start
0305ab78 g       *ABS*	00000000 __DTOR_LIST__
0304401c g     F .text	0000008c fatArray2Value
030477b4 g     F .text	00000028 SD_IsSupport4Bits
030536ac g     F .text	00000088 __nedf2
03043134 g     F .text	000000d4 fat32ClusterType
03054e30 g     F .text	00000034 alt_irq_init
030549c0 g     F .text	00000060 alt_release_fd
0304bfd0 g     F .text	00000074 sprintf
0305b88c g     O .rodata	00000100 __clz_tab
03046138 g     F .text	000000d0 SEG7_Hex
03046820 g     F .text	00000030 debug_output
0305f920 g     O .bss	00000004 _PathLocale
03047b70 g     F .text	000001a4 SD_ACMD41
0305a700 g     F .text	00000014 atexit
0304e478 g     F .text	00000078 _write_r
0304785c g     F .text	00000190 SD_CMD8
03042318 g     F .text	000001d8 fatComposeShortFilename
030504bc g     F .text	0000001c setlocale
0305db5c g     O .rwdata	00000004 _impure_ptr
0305f928 g     O .bss	00000004 alt_argc
030595b8 g     F .text	00000064 _do_dtors
03041c2c g     F .text	00000070 Fat_Type
03046930 g     F .text	00000084 myprintf_dwordarray
0304aa54 g     F .text	0000043c _fseek_r
03045580 g     F .text	00000038 AUDIO_AdcFifoNotEmpty
0304bd80 g     F .text	000001c4 __srefill_r
03040020 g       .exceptions	00000000 alt_irq_entry
030508d0 g     F .text	00000080 __ulp
03051f60 g     F .text	00000040 __isinfd
0304a360 g     F .text	00000018 __fp_unlock_all
03041508 g     F .text	000002c4 Fat_Test
0304307c g     F .text	000000b8 fat16ClusterType
030585dc g     F .text	00000058 altera_avalon_lcd_16207_write_fd
0304553c g     F .text	00000044 AUDIO_DacFifoSetData
0305db78 g     O .rwdata	00000008 alt_fs_list
030479ec g     F .text	00000184 SD_CMD55
03041198 g     F .text	00000054 IRDA_init
03055984 g     F .text	00000048 alt_write_flash_command_32bit_device_8bit_mode
03048230 g     F .text	000001d4 SD_CMD10
03040020 g       *ABS*	00000000 __ram_exceptions_start
03044fb0 g     F .text	000000ec AUDIO_SetSampleRate
03050428 g     F .text	00000010 localeconv
03040000 g       *ABS*	00000000 __alt_mem_onchip_memory2
03042278 g     F .text	000000a0 fatSameLongFilename
03040fa0 g     F .text	000001f8 handle_key
02800000 g       *ABS*	00000000 __alt_mem_av_tri_s1_cfi_flash_0
03059988 g     F .text	00000050 alt_ic_isr_register
0304b144 g     F .text	00000040 fwrite
0305dbac g       *ABS*	00000000 _edata
03043740 g     F .text	00000084 fatDumpTime
03058734 g     F .text	00000058 altera_avalon_uart_read_fd
03060e94 g       *ABS*	00000000 _end
030597d0 g     F .text	0000007c alt_flash_open_dev
030451b8 g     F .text	0000011c AUDIO_SetLineOutVol
0304805c g     F .text	000001d4 SD_CMD9
030401b4 g       *ABS*	00000000 __ram_exceptions_end
0305719c g     F .text	000000f4 altera_avalon_jtag_uart_ioctl
03059a74 g     F .text	000000a0 alt_ic_irq_disable
0304c114 g     F .text	0000007c __swrite
0305db64 g     O .rwdata	00000004 __malloc_trim_threshold
030405e0 g     F .text	000003f0 build_wave_play_list
03059d90 g     F .text	00000020 altera_nios2_qsys_irq_init
0305a714 g     F .text	00000038 exit
03045f7c g     F .text	00000084 LED_LightCount
030411ec g     F .text	0000031c handle_IrDA
03044734 g     F .text	0000016c fatMountSdcard
0304af28 g     F .text	000000c8 _fwalk_reent
03049228 g     F .text	000000c0 __floatunsisf
03050ecc g     F .text	0000018c __mdiff
030409d0 g     F .text	0000027c waveplay_start
0305984c g     F .text	00000054 alt_flash_close_dev
030496c8 g     F .text	00000060 __modsi3
03080000 g       *ABS*	00000000 __alt_data_end
03040020 g     F .exceptions	00000000 alt_exception
0304a2a0 g     F .text	00000004 __sfp_lock_release
030472d0 g     F .text	0000039c SDLIB_Init
0305ba12 g     O .rodata	00000101 _ctype_
03048a40 g     F .text	000001a4 SD_CMD17
03058bcc g     F .text	00000060 altera_avalon_uart_close
0304a504 g     F .text	000000f4 _fopen_r
0305aae8 g     F .text	00000020 _exit
03051fa0 g     F .text	00000030 __isnand
03040268 g     F .text	0000009c demo_introduce
030590e4 g     F .text	00000154 alt_alarm_start
03049738 g     F .text	00000098 __muldi3
0304b184 g     F .text	00000194 __smakebuf_r
03055b08 g     F .text	00000030 alt_write_native_32bit
0304c3e8 g     F .text	00000074 strlen
03054658 g     F .text	00000188 open
030454e8 g     F .text	00000054 AUDIO_DacFifoNotFull
030537bc g     F .text	00000088 __gedf2
030552cc g     F .text	00000090 alt_flash_cfi_get_info
03059958 g     F .text	00000030 alt_icache_flush_all
0305db90 g     O .rwdata	00000004 alt_priority_mask
030599d8 g     F .text	0000009c alt_ic_irq_enable
03047098 g     F .text	000001dc SDHAL_WriteData
03046574 g     F .text	0000009c Wave_GetSampleRate
0304e360 g     F .text	00000024 __vfprintf_internal
03043360 g     F .text	00000178 fatFindUnusedCluster
03058c2c g     F .text	00000230 altera_avalon_uart_read
03046698 g     F .text	00000088 Wave_GetSampleBitNum
0305316c g     F .text	00000080 __subdf3
030403a0 g     F .text	00000054 DisplayTime
030507ac g     F .text	000000c4 __lo0bits
0305db98 g     O .rwdata	00000008 alt_alarm_list
03059554 g     F .text	00000064 _do_ctors
03048d88 g     F .text	00000040 SD_ReadData
03053cf8 g     F .text	000000fc close
03059db0 g     F .text	00000068 alt_program_amd
03041be0 g     F .text	0000004c Fat_Unmount
03054294 g     F .text	00000080 alt_load
03049aa4 g     F .text	00000314 __pack_d
0304b318 g     F .text	00000014 free
0304a2a4 g     F .text	00000004 __sinit_lock_acquire
030513c8 g     F .text	00000100 __multadd
030437c4 g     F .text	00000050 fatIsLastDir
03050714 g     F .text	00000028 _Bfree
03047eb8 g     F .text	000001a4 SD_CMD3
0304766c g     F .text	00000090 SDLIB_ReadBlock512



Disassembly of section .entry:

03040000 <__reset>:
#if NIOS2_ICACHE_SIZE > 0 && defined(ALT_ALLOW_CODE_AT_RESET) && !defined(ALT_SIM_OPTIMIZE)
    /* Assume the instruction cache size is always a power of two. */
#if NIOS2_ICACHE_SIZE > 0x8000
    movhi r2, %hi(NIOS2_ICACHE_SIZE)
#else
    movui r2, NIOS2_ICACHE_SIZE
 3040000:	00840014 	movui	r2,4096
#endif

0:
    initi r2
 3040004:	1001483a 	initi	r2
    addi r2, r2, -NIOS2_ICACHE_LINE_SIZE
 3040008:	10bff804 	addi	r2,r2,-32
    bgt r2, zero, 0b
 304000c:	00bffd16 	blt	zero,r2,3040004 <__reset+0x4>
 * Jump to the _start entry point in the .text section if reset code
 * is allowed or if optimizing for RTL simulation.
 */
#if defined(ALT_ALLOW_CODE_AT_RESET) || defined(ALT_SIM_OPTIMIZE)
    /* Jump to the _start entry point in the .text section. */
    movhi r1, %hi(_start)
 3040010:	0040c134 	movhi	at,772
    ori r1, r1, %lo(_start)
 3040014:	08406d14 	ori	at,at,436
    jmp r1
 3040018:	0800683a 	jmp	at
 304001c:	00000000 	call	0 <__alt_mem_av_tri_s1_cfi_flash_0-0x2800000>

Disassembly of section .exceptions:

03040020 <alt_exception>:
         * Process an exception.  For all exceptions we must preserve all
         * caller saved registers on the stack (See the Nios2 ABI
         * documentation for details).
         */

        addi  sp, sp, -76
 3040020:	deffed04 	addi	sp,sp,-76

#endif

#endif

        stw   ra,  0(sp)
 3040024:	dfc00015 	stw	ra,0(sp)
        /*
         * Leave a gap in the stack frame at 4(sp) for the muldiv handler to
         * store zero into.
         */

        stw   r1,   8(sp)
 3040028:	d8400215 	stw	at,8(sp)
        stw   r2,  12(sp)
 304002c:	d8800315 	stw	r2,12(sp)
        stw   r3,  16(sp)
 3040030:	d8c00415 	stw	r3,16(sp)
        stw   r4,  20(sp)
 3040034:	d9000515 	stw	r4,20(sp)
        stw   r5,  24(sp)
 3040038:	d9400615 	stw	r5,24(sp)
        stw   r6,  28(sp)
 304003c:	d9800715 	stw	r6,28(sp)
        stw   r7,  32(sp)
 3040040:	d9c00815 	stw	r7,32(sp)

        rdctl r5, estatus
 3040044:	000b307a 	rdctl	r5,estatus

        stw   r8,  36(sp)
 3040048:	da000915 	stw	r8,36(sp)
        stw   r9,  40(sp)
 304004c:	da400a15 	stw	r9,40(sp)
        stw   r10, 44(sp)
 3040050:	da800b15 	stw	r10,44(sp)
        stw   r11, 48(sp)
 3040054:	dac00c15 	stw	r11,48(sp)
        stw   r12, 52(sp)
 3040058:	db000d15 	stw	r12,52(sp)
        stw   r13, 56(sp)
 304005c:	db400e15 	stw	r13,56(sp)
        stw   r14, 60(sp)
 3040060:	db800f15 	stw	r14,60(sp)
        stw   r15, 64(sp)
 3040064:	dbc01015 	stw	r15,64(sp)
        /*
         * ea-4 contains the address of the instruction being executed
         * when the exception occured. For interrupt exceptions, we will
         * will be re-issue the isntruction. Store it in 72(sp)
         */
        stw   r5,  68(sp)  /* estatus */
 3040068:	d9401115 	stw	r5,68(sp)
        addi  r15, ea, -4  /* instruction that caused exception */
 304006c:	ebffff04 	addi	r15,ea,-4
        stw   r15,  72(sp)
 3040070:	dbc01215 	stw	r15,72(sp)
#else
        /*
         * Test to see if the exception was a software exception or caused 
         * by an external interrupt, and vector accordingly.
         */
        rdctl r4, ipending
 3040074:	0009313a 	rdctl	r4,ipending
        andi  r2, r5, 1
 3040078:	2880004c 	andi	r2,r5,1
        beq   r2, zero, .Lnot_irq
 304007c:	10000326 	beq	r2,zero,304008c <alt_exception+0x6c>
        beq   r4, zero, .Lnot_irq
 3040080:	20000226 	beq	r4,zero,304008c <alt_exception+0x6c>
        /*
         * Now that all necessary registers have been preserved, call 
         * alt_irq_handler() to process the interrupts.
         */

        call alt_irq_handler
 3040084:	30400ec0 	call	30400ec <alt_irq_handler>

        .section .exceptions.irqreturn, "xa"

        br    .Lexception_exit
 3040088:	00000306 	br	3040098 <alt_exception+0x78>
         * upon completion, so we write ea (address of instruction *after*
         * the one where the exception occured) into 72(sp). The actual
         * instruction that caused the exception is written in r2, which these
         * handlers will utilize.
         */
        stw   ea,  72(sp)  /* Don't re-issue */
 304008c:	df401215 	stw	ea,72(sp)
        ldw   r2, -4(ea)   /* Instruction that caused exception */
 3040090:	e8bfff17 	ldw	r2,-4(ea)
#ifdef NIOS2_HAS_DEBUG_STUB
       /*
        *  Either tell the user now (if there is a debugger attached) or go into
        *  the debug monitor which will loop until a debugger is attached.
        */
        break
 3040094:	003da03a 	break	0
        /* 
         * Restore the saved registers, so that all general purpose registers 
         * have been restored to their state at the time the interrupt occured.
         */

        ldw   r5,  68(sp)
 3040098:	d9401117 	ldw	r5,68(sp)
        ldw   ea,  72(sp)  /* This becomes the PC once eret is executed */
 304009c:	df401217 	ldw	ea,72(sp)
        ldw   ra,   0(sp)
 30400a0:	dfc00017 	ldw	ra,0(sp)

        wrctl estatus, r5
 30400a4:	2801707a 	wrctl	estatus,r5

        ldw   r1,   8(sp)
 30400a8:	d8400217 	ldw	at,8(sp)
        ldw   r2,  12(sp)
 30400ac:	d8800317 	ldw	r2,12(sp)
        ldw   r3,  16(sp)
 30400b0:	d8c00417 	ldw	r3,16(sp)
        ldw   r4,  20(sp)
 30400b4:	d9000517 	ldw	r4,20(sp)
        ldw   r5,  24(sp)
 30400b8:	d9400617 	ldw	r5,24(sp)
        ldw   r6,  28(sp)
 30400bc:	d9800717 	ldw	r6,28(sp)
        ldw   r7,  32(sp)
 30400c0:	d9c00817 	ldw	r7,32(sp)
#ifdef ALT_STACK_CHECK
        ldw   et, %gprel(alt_exception_old_stack_limit)(gp)
#endif
#endif

        ldw   r8,  36(sp)
 30400c4:	da000917 	ldw	r8,36(sp)
        ldw   r9,  40(sp)
 30400c8:	da400a17 	ldw	r9,40(sp)
        ldw   r10, 44(sp)
 30400cc:	da800b17 	ldw	r10,44(sp)
        ldw   r11, 48(sp)
 30400d0:	dac00c17 	ldw	r11,48(sp)
        ldw   r12, 52(sp)
 30400d4:	db000d17 	ldw	r12,52(sp)
        ldw   r13, 56(sp)
 30400d8:	db400e17 	ldw	r13,56(sp)
        ldw   r14, 60(sp)
 30400dc:	db800f17 	ldw	r14,60(sp)
        ldw   r15, 64(sp)
 30400e0:	dbc01017 	ldw	r15,64(sp)
#endif

        ldw   sp,  76(sp)

#else
        addi  sp, sp, 76
 30400e4:	dec01304 	addi	sp,sp,76

        /*
         * Return to the interrupted instruction.
         */

        eret
 30400e8:	ef80083a 	eret

030400ec <alt_irq_handler>:
 * instruction is present if the macro ALT_CI_INTERRUPT_VECTOR defined.
 */

void alt_irq_handler (void) __attribute__ ((section (".exceptions")));
void alt_irq_handler (void)
{
 30400ec:	defff904 	addi	sp,sp,-28
 30400f0:	dfc00615 	stw	ra,24(sp)
 30400f4:	df000515 	stw	fp,20(sp)
 30400f8:	df000504 	addi	fp,sp,20
#ifndef NIOS2_EIC_PRESENT
static ALT_INLINE alt_u32 ALT_ALWAYS_INLINE alt_irq_pending (void)
{
  alt_u32 active;

  NIOS2_READ_IPENDING (active);
 30400fc:	0005313a 	rdctl	r2,ipending
 3040100:	e0bffc15 	stw	r2,-16(fp)

  return active;
 3040104:	e0bffc17 	ldw	r2,-16(fp)
   * Consider the case where the high priority interupt is asserted during
   * the interrupt entry sequence for a lower priority interrupt to see why
   * this is the case.
   */

  active = alt_irq_pending ();
 3040108:	e0bfff15 	stw	r2,-4(fp)

  do
  {
    i = 0;
 304010c:	e03ffd15 	stw	zero,-12(fp)
    mask = 1;
 3040110:	00800044 	movi	r2,1
 3040114:	e0bffe15 	stw	r2,-8(fp)
     * called to clear the interrupt condition.
     */

    do
    {
      if (active & mask)
 3040118:	e0ffff17 	ldw	r3,-4(fp)
 304011c:	e0bffe17 	ldw	r2,-8(fp)
 3040120:	1884703a 	and	r2,r3,r2
 3040124:	1005003a 	cmpeq	r2,r2,zero
 3040128:	1000161e 	bne	r2,zero,3040184 <alt_irq_handler+0x98>
      { 
#ifdef ALT_ENHANCED_INTERRUPT_API_PRESENT
        alt_irq[i].handler(alt_irq[i].context); 
 304012c:	e0bffd17 	ldw	r2,-12(fp)
 3040130:	00c0c1b4 	movhi	r3,774
 3040134:	18c30104 	addi	r3,r3,3076
 3040138:	100490fa 	slli	r2,r2,3
 304013c:	10c5883a 	add	r2,r2,r3
 3040140:	11400017 	ldw	r5,0(r2)
 3040144:	e0bffd17 	ldw	r2,-12(fp)
 3040148:	00c0c1b4 	movhi	r3,774
 304014c:	18c30104 	addi	r3,r3,3076
 3040150:	100490fa 	slli	r2,r2,3
 3040154:	10c5883a 	add	r2,r2,r3
 3040158:	10800104 	addi	r2,r2,4
 304015c:	11000017 	ldw	r4,0(r2)
 3040160:	283ee83a 	callr	r5
#ifndef NIOS2_EIC_PRESENT
static ALT_INLINE alt_u32 ALT_ALWAYS_INLINE alt_irq_pending (void)
{
  alt_u32 active;

  NIOS2_READ_IPENDING (active);
 3040164:	0005313a 	rdctl	r2,ipending
 3040168:	e0bffb15 	stw	r2,-20(fp)

  return active;
 304016c:	e0bffb17 	ldw	r2,-20(fp)
      mask <<= 1;
      i++;

    } while (1);

    active = alt_irq_pending ();
 3040170:	e0bfff15 	stw	r2,-4(fp)
    
  } while (active);
 3040174:	e0bfff17 	ldw	r2,-4(fp)
 3040178:	1004c03a 	cmpne	r2,r2,zero
 304017c:	103fe31e 	bne	r2,zero,304010c <alt_irq_handler+0x20>
 3040180:	00000706 	br	30401a0 <alt_irq_handler+0xb4>
#else
        alt_irq[i].handler(alt_irq[i].context, i); 
#endif
        break;
      }
      mask <<= 1;
 3040184:	e0bffe17 	ldw	r2,-8(fp)
 3040188:	1085883a 	add	r2,r2,r2
 304018c:	e0bffe15 	stw	r2,-8(fp)
      i++;
 3040190:	e0bffd17 	ldw	r2,-12(fp)
 3040194:	10800044 	addi	r2,r2,1
 3040198:	e0bffd15 	stw	r2,-12(fp)

    } while (1);
 304019c:	003fde06 	br	3040118 <alt_irq_handler+0x2c>
  /*
   * Notify the operating system that interrupt processing is complete.
   */ 

  ALT_OS_INT_EXIT();
}
 30401a0:	e037883a 	mov	sp,fp
 30401a4:	dfc00117 	ldw	ra,4(sp)
 30401a8:	df000017 	ldw	fp,0(sp)
 30401ac:	dec00204 	addi	sp,sp,8
 30401b0:	f800283a 	ret

Disassembly of section .text:

030401b4 <_start>:

    /* Assume the data cache size is always a power of two. */
#if NIOS2_DCACHE_SIZE > 0x8000
    movhi r2, %hi(NIOS2_DCACHE_SIZE)
#else
    movui r2, NIOS2_DCACHE_SIZE
 30401b4:	00820014 	movui	r2,2048
#endif

0:
    initd 0(r2)
 30401b8:	10000033 	initd	0(r2)
    addi r2, r2, -NIOS2_DCACHE_LINE_SIZE
 30401bc:	10bff804 	addi	r2,r2,-32
    bgt r2, zero, 0b
 30401c0:	00bffd16 	blt	zero,r2,30401b8 <_start+0x4>
#if (NIOS2_NUM_OF_SHADOW_REG_SETS == 0)    
    /*
     * Now that the caches are initialized, set up the stack pointer.
     * The value provided by the linker is assumed to be correctly aligned.
     */
    movhi sp, %hi(__alt_stack_pointer)
 30401c4:	06c0c234 	movhi	sp,776
    ori sp, sp, %lo(__alt_stack_pointer)
 30401c8:	dec00014 	ori	sp,sp,0

    /* Set up the global pointer. */
    movhi gp, %hi(_gp)
 30401cc:	0680c1b4 	movhi	gp,774
    ori gp, gp, %lo(_gp)
 30401d0:	d696d414 	ori	gp,gp,23376
 */
#ifndef ALT_SIM_OPTIMIZE
    /* Log that the BSS is about to be cleared. */
    ALT_LOG_PUTS(alt_log_msg_bss)

    movhi r2, %hi(__bss_start)
 30401d4:	0080c174 	movhi	r2,773
    ori r2, r2, %lo(__bss_start)
 30401d8:	10be3c14 	ori	r2,r2,63728

    movhi r3, %hi(__bss_end)
 30401dc:	00c0c1b4 	movhi	r3,774
    ori r3, r3, %lo(__bss_end)
 30401e0:	18c3a514 	ori	r3,r3,3732

    beq r2, r3, 1f
 30401e4:	10c00326 	beq	r2,r3,30401f4 <_start+0x40>

0:
    stw zero, (r2)
 30401e8:	10000015 	stw	zero,0(r2)
    addi r2, r2, 4
 30401ec:	10800104 	addi	r2,r2,4
    bltu r2, r3, 0b
 30401f0:	10fffd36 	bltu	r2,r3,30401e8 <_start+0x34>
     * section aren't defined until alt_load() has been called).
     */
    mov   et, zero
#endif

    call alt_load
 30401f4:	30542940 	call	3054294 <alt_load>

    /* Log that alt_main is about to be called. */
    ALT_LOG_PUTS(alt_log_msg_alt_main)

    /* Call the C entry point. It should never return. */
    call alt_main
 30401f8:	30544d00 	call	30544d0 <alt_main>

030401fc <alt_after_alt_main>:

    /* Wait in infinite loop in case alt_main does return. */
alt_after_alt_main:
    br alt_after_alt_main
 30401fc:	003fff06 	br	30401fc <alt_after_alt_main>

03040200 <welcome_display>:
/////////// Display config & function ///////////////////////////
/////////////////////////////////////////////////////////////////



void welcome_display(void){
 3040200:	defffd04 	addi	sp,sp,-12
 3040204:	dfc00215 	stw	ra,8(sp)
 3040208:	df000115 	stw	fp,4(sp)
 304020c:	df000104 	addi	fp,sp,4
    int i;
    lcd_display(("\rWelcome Demo\nCDCARD-AUDIO\n"));
 3040210:	0100c1b4 	movhi	r4,774
 3040214:	212ade04 	addi	r4,r4,-21640
 3040218:	304041c0 	call	304041c <lcd_display>
    for(i=0;i<5;i++){
 304021c:	e03fff15 	stw	zero,-4(fp)
 3040220:	00000906 	br	3040248 <welcome_display+0x48>
        LED_AllOn();
 3040224:	3045ed40 	call	3045ed4 <LED_AllOn>
        usleep(50*1000);
 3040228:	0130d414 	movui	r4,50000
 304022c:	3054c800 	call	3054c80 <usleep>
        LED_AllOff();
 3040230:	3045f000 	call	3045f00 <LED_AllOff>
        usleep(50*1000);
 3040234:	0130d414 	movui	r4,50000
 3040238:	3054c800 	call	3054c80 <usleep>


void welcome_display(void){
    int i;
    lcd_display(("\rWelcome Demo\nCDCARD-AUDIO\n"));
    for(i=0;i<5;i++){
 304023c:	e0bfff17 	ldw	r2,-4(fp)
 3040240:	10800044 	addi	r2,r2,1
 3040244:	e0bfff15 	stw	r2,-4(fp)
 3040248:	e0bfff17 	ldw	r2,-4(fp)
 304024c:	10800150 	cmplti	r2,r2,5
 3040250:	103ff41e 	bne	r2,zero,3040224 <welcome_display+0x24>
        LED_AllOn();
        usleep(50*1000);
        LED_AllOff();
        usleep(50*1000);
    }        
}
 3040254:	e037883a 	mov	sp,fp
 3040258:	dfc00117 	ldw	ra,4(sp)
 304025c:	df000017 	ldw	fp,0(sp)
 3040260:	dec00204 	addi	sp,sp,8
 3040264:	f800283a 	ret

03040268 <demo_introduce>:

void demo_introduce(void){
 3040268:	defffe04 	addi	sp,sp,-8
 304026c:	dfc00115 	stw	ra,4(sp)
 3040270:	df000015 	stw	fp,0(sp)
 3040274:	d839883a 	mov	fp,sp
    DEMO_PRINTF("===== Welcome to SD-CARD Demo Program =====\r\n");
 3040278:	0100c1b4 	movhi	r4,774
 304027c:	212ae504 	addi	r4,r4,-21612
 3040280:	304bd6c0 	call	304bd6c <puts>
    DEMO_PRINTF("Supported File System: FAT16,FAT32, English Short File Name,English Long File Name\r\n");
 3040284:	0100c1b4 	movhi	r4,774
 3040288:	212af104 	addi	r4,r4,-21564
 304028c:	304bd6c0 	call	304bd6c <puts>
    DEMO_PRINTF("Played Wave Files: Wave files on root directory.\r\n");
 3040290:	0100c1b4 	movhi	r4,774
 3040294:	212b0604 	addi	r4,r4,-21480
 3040298:	304bd6c0 	call	304bd6c <puts>
    DEMO_PRINTF("Supported Media File: Uncompressed WAV File, Sample-Rate 96K/48K/44.1K/32K/8K, Stereo, 16-bits Sample.\r\n");
 304029c:	0100c1b4 	movhi	r4,774
 30402a0:	212b1304 	addi	r4,r4,-21428
 30402a4:	304bd6c0 	call	304bd6c <puts>
    DEMO_PRINTF("KEY4: Next Song\r\n");
 30402a8:	0100c1b4 	movhi	r4,774
 30402ac:	212b2d04 	addi	r4,r4,-21324
 30402b0:	304bd6c0 	call	304bd6c <puts>
#ifdef SUPPORT_PLAY_MODE    
    DEMO_PRINTF("SW0 ON: Enable Repeat Mode\n");
 30402b4:	0100c1b4 	movhi	r4,774
 30402b8:	212b3204 	addi	r4,r4,-21304
 30402bc:	304bd6c0 	call	304bd6c <puts>
#endif    
    DEMO_PRINTF("KEY3: Volume Up\r\n");
 30402c0:	0100c1b4 	movhi	r4,774
 30402c4:	212b3904 	addi	r4,r4,-21276
 30402c8:	304bd6c0 	call	304bd6c <puts>
    DEMO_PRINTF("KEY2: Volume Down\r\n");
 30402cc:	0100c1b4 	movhi	r4,774
 30402d0:	212b3e04 	addi	r4,r4,-21256
 30402d4:	304bd6c0 	call	304bd6c <puts>
    DEMO_PRINTF("Current Voluem:%d(%d-%d)\r\n\r\n", HW_DEFAULT_VOL, HW_MIN_VOL, HW_MAX_VOL);    
 30402d8:	0100c1b4 	movhi	r4,774
 30402dc:	212b4304 	addi	r4,r4,-21236
 30402e0:	01401e04 	movi	r5,120
 30402e4:	01800bc4 	movi	r6,47
 30402e8:	01c01fc4 	movi	r7,127
 30402ec:	304bc300 	call	304bc30 <printf>
}
 30402f0:	e037883a 	mov	sp,fp
 30402f4:	dfc00117 	ldw	ra,4(sp)
 30402f8:	df000017 	ldw	fp,0(sp)
 30402fc:	dec00204 	addi	sp,sp,8
 3040300:	f800283a 	ret

03040304 <update_status>:

void update_status(void){
 3040304:	deffe904 	addi	sp,sp,-92
 3040308:	dfc01615 	stw	ra,88(sp)
 304030c:	df001515 	stw	fp,84(sp)
 3040310:	df001504 	addi	fp,sp,84
#ifdef LCD_DISPLAY    
    char szText[64];       
    sprintf(szText, "\r%s\nVol:%d(%d-%d)%C\n", gWavePlay.szFilename, gWavePlay.nVolume, 
 3040314:	0080c1b4 	movhi	r2,774
 3040318:	10825004 	addi	r2,r2,2368
 304031c:	10808d03 	ldbu	r2,564(r2)
 3040320:	10803fcc 	andi	r2,r2,255
 3040324:	e0bfff15 	stw	r2,-4(fp)
 3040328:	0080c1b4 	movhi	r2,774
 304032c:	10825004 	addi	r2,r2,2368
 3040330:	10808e17 	ldw	r2,568(r2)
 3040334:	1005003a 	cmpeq	r2,r2,zero
 3040338:	1000031e 	bne	r2,zero,3040348 <update_status+0x44>
 304033c:	00801484 	movi	r2,82
 3040340:	e0bffe15 	stw	r2,-8(fp)
 3040344:	00000206 	br	3040350 <update_status+0x4c>
 3040348:	008014c4 	movi	r2,83
 304034c:	e0bffe15 	stw	r2,-8(fp)
 3040350:	00800bc4 	movi	r2,47
 3040354:	d8800015 	stw	r2,0(sp)
 3040358:	00801fc4 	movi	r2,127
 304035c:	d8800115 	stw	r2,4(sp)
 3040360:	e0bffe17 	ldw	r2,-8(fp)
 3040364:	d8800215 	stw	r2,8(sp)
 3040368:	e13fee04 	addi	r4,fp,-72
 304036c:	0140c1b4 	movhi	r5,774
 3040370:	296b4b04 	addi	r5,r5,-21204
 3040374:	0180c1b4 	movhi	r6,774
 3040378:	3182d504 	addi	r6,r6,2900
 304037c:	e1ffff17 	ldw	r7,-4(fp)
 3040380:	304bfd00 	call	304bfd0 <sprintf>
        HW_MIN_VOL, HW_MAX_VOL, gWavePlay.bRepeatMode?'R':'S');
    lcd_display((szText));
 3040384:	e13fee04 	addi	r4,fp,-72
 3040388:	304041c0 	call	304041c <lcd_display>
#endif    
}
 304038c:	e037883a 	mov	sp,fp
 3040390:	dfc00117 	ldw	ra,4(sp)
 3040394:	df000017 	ldw	fp,0(sp)
 3040398:	dec00204 	addi	sp,sp,8
 304039c:	f800283a 	ret

030403a0 <DisplayTime>:

void DisplayTime(alt_u32 TimeElapsed){
 30403a0:	defffc04 	addi	sp,sp,-16
 30403a4:	dfc00315 	stw	ra,12(sp)
 30403a8:	df000215 	stw	fp,8(sp)
 30403ac:	df000204 	addi	fp,sp,8
 30403b0:	e13fff15 	stw	r4,-4(fp)
#ifdef SEG7_DISPLAY
    alt_u32 msx10;
    msx10 = TimeElapsed*100/alt_ticks_per_second();
 30403b4:	e0bfff17 	ldw	r2,-4(fp)
 30403b8:	11001924 	muli	r4,r2,100
 * Obtain the system clock rate in ticks/s. 
 */

static ALT_INLINE alt_u32 ALT_ALWAYS_INLINE alt_ticks_per_second (void)
{
  return _alt_tick_rate;
 30403bc:	0080c1b4 	movhi	r2,774
 30403c0:	10be4d04 	addi	r2,r2,-1740
 30403c4:	10800017 	ldw	r2,0(r2)
 30403c8:	100b883a 	mov	r5,r2
 30403cc:	30497280 	call	3049728 <__udivsi3>
 30403d0:	e0bffe15 	stw	r2,-8(fp)
    SEG7_Decimal(msx10, 0x01 << 2);
 30403d4:	e13ffe17 	ldw	r4,-8(fp)
 30403d8:	01400104 	movi	r5,4
 30403dc:	30462080 	call	3046208 <SEG7_Decimal>
#endif
    
    
    
    
}
 30403e0:	e037883a 	mov	sp,fp
 30403e4:	dfc00117 	ldw	ra,4(sp)
 30403e8:	df000017 	ldw	fp,0(sp)
 30403ec:	dec00204 	addi	sp,sp,8
 30403f0:	f800283a 	ret

030403f4 <lcd_open>:

void lcd_open(void){
 30403f4:	defffe04 	addi	sp,sp,-8
 30403f8:	dfc00115 	stw	ra,4(sp)
 30403fc:	df000015 	stw	fp,0(sp)
 3040400:	d839883a 	mov	fp,sp
#ifdef LCD_DISPLAY
    LCD_Open();
 3040404:	3045d500 	call	3045d50 <LCD_Open>
#endif  
}
 3040408:	e037883a 	mov	sp,fp
 304040c:	dfc00117 	ldw	ra,4(sp)
 3040410:	df000017 	ldw	fp,0(sp)
 3040414:	dec00204 	addi	sp,sp,8
 3040418:	f800283a 	ret

0304041c <lcd_display>:

void lcd_display(char *pText){
 304041c:	defffd04 	addi	sp,sp,-12
 3040420:	dfc00215 	stw	ra,8(sp)
 3040424:	df000115 	stw	fp,4(sp)
 3040428:	df000104 	addi	fp,sp,4
 304042c:	e13fff15 	stw	r4,-4(fp)
#ifdef LCD_DISPLAY     
    LCD_Clear();  
 3040430:	3045e100 	call	3045e10 <LCD_Clear>
    LCD_TextOut(pText);
 3040434:	e13fff17 	ldw	r4,-4(fp)
 3040438:	3045dac0 	call	3045dac <LCD_TextOut>
#endif    
}
 304043c:	e037883a 	mov	sp,fp
 3040440:	dfc00117 	ldw	ra,4(sp)
 3040444:	df000017 	ldw	fp,0(sp)
 3040448:	dec00204 	addi	sp,sp,8
 304044c:	f800283a 	ret

03040450 <led_display>:

void led_display(alt_u32 mask){
 3040450:	defffd04 	addi	sp,sp,-12
 3040454:	dfc00215 	stw	ra,8(sp)
 3040458:	df000115 	stw	fp,4(sp)
 304045c:	df000104 	addi	fp,sp,4
 3040460:	e13fff15 	stw	r4,-4(fp)
#ifdef LCD_DISPLAY       
    LED_Display(mask);
 3040464:	e13fff17 	ldw	r4,-4(fp)
 3040468:	3045f2c0 	call	3045f2c <LED_Display>
#endif    
}
 304046c:	e037883a 	mov	sp,fp
 3040470:	dfc00117 	ldw	ra,4(sp)
 3040474:	df000017 	ldw	fp,0(sp)
 3040478:	dec00204 	addi	sp,sp,8
 304047c:	f800283a 	ret

03040480 <led_display_count>:

void led_display_count(alt_u8 count){
 3040480:	defffd04 	addi	sp,sp,-12
 3040484:	dfc00215 	stw	ra,8(sp)
 3040488:	df000115 	stw	fp,4(sp)
 304048c:	df000104 	addi	fp,sp,4
 3040490:	e13fff05 	stb	r4,-4(fp)
#ifdef DISPLAY_WAVE_POWER   
    LED_LightCount(count);
 3040494:	e13fff03 	ldbu	r4,-4(fp)
 3040498:	3045f7c0 	call	3045f7c <LED_LightCount>
#endif    
}
 304049c:	e037883a 	mov	sp,fp
 30404a0:	dfc00117 	ldw	ra,4(sp)
 30404a4:	df000017 	ldw	fp,0(sp)
 30404a8:	dec00204 	addi	sp,sp,8
 30404ac:	f800283a 	ret

030404b0 <wait_sdcard_insert>:

/////////////////////////////////////////////////////////////////
/////////// Routing for detect SD-CARD //////////////////////////
/////////////////////////////////////////////////////////////////

void wait_sdcard_insert(void){
 30404b0:	defffc04 	addi	sp,sp,-16
 30404b4:	dfc00315 	stw	ra,12(sp)
 30404b8:	df000215 	stw	fp,8(sp)
 30404bc:	df000204 	addi	fp,sp,8
    bool bFirstTime2Detect = TRUE;
 30404c0:	00800044 	movi	r2,1
 30404c4:	e0bfff15 	stw	r2,-4(fp)
    alt_u8 led_mask = 0x02;
 30404c8:	00800084 	movi	r2,2
 30404cc:	e0bffe05 	stb	r2,-8(fp)
    LED_AllOff();
 30404d0:	3045f000 	call	3045f00 <LED_AllOff>
    //led = IORD_ALTERA_AVALON_PIO_DATA(LED_RED_SPAN); // low-active
    while(!SDLIB_Init()){
 30404d4:	00001206 	br	3040520 <wait_sdcard_insert+0x70>
        if (bFirstTime2Detect){
 30404d8:	e0bfff17 	ldw	r2,-4(fp)
 30404dc:	1005003a 	cmpeq	r2,r2,zero
 30404e0:	1000071e 	bne	r2,zero,3040500 <wait_sdcard_insert+0x50>
            DEMO_PRINTF("Please insert SD card.\r\n");
 30404e4:	0100c1b4 	movhi	r4,774
 30404e8:	212b5104 	addi	r4,r4,-21180
 30404ec:	304bd6c0 	call	304bd6c <puts>
            lcd_display(("\rPlease insert\nSD card.\n"));
 30404f0:	0100c1b4 	movhi	r4,774
 30404f4:	212b5704 	addi	r4,r4,-21156
 30404f8:	304041c0 	call	304041c <lcd_display>
            bFirstTime2Detect = FALSE;
 30404fc:	e03fff15 	stw	zero,-4(fp)
        }    
        led_display((led_mask));
 3040500:	e13ffe03 	ldbu	r4,-8(fp)
 3040504:	30404500 	call	3040450 <led_display>
        usleep(100*1000);
 3040508:	010000b4 	movhi	r4,2
 304050c:	2121a804 	addi	r4,r4,-31072
 3040510:	3054c800 	call	3054c80 <usleep>
        led_mask ^= 0x02;
 3040514:	e0bffe03 	ldbu	r2,-8(fp)
 3040518:	1080009c 	xori	r2,r2,2
 304051c:	e0bffe05 	stb	r2,-8(fp)
void wait_sdcard_insert(void){
    bool bFirstTime2Detect = TRUE;
    alt_u8 led_mask = 0x02;
    LED_AllOff();
    //led = IORD_ALTERA_AVALON_PIO_DATA(LED_RED_SPAN); // low-active
    while(!SDLIB_Init()){
 3040520:	30472d00 	call	30472d0 <SDLIB_Init>
 3040524:	1005003a 	cmpeq	r2,r2,zero
 3040528:	103feb1e 	bne	r2,zero,30404d8 <wait_sdcard_insert+0x28>
        }    
        led_display((led_mask));
        usleep(100*1000);
        led_mask ^= 0x02;
    } // while
    led_display((0x02));
 304052c:	01000084 	movi	r4,2
 3040530:	30404500 	call	3040450 <led_display>
    DEMO_PRINTF("Find SD card\r\n");    
 3040534:	0100c1b4 	movhi	r4,774
 3040538:	212b5e04 	addi	r4,r4,-21128
 304053c:	304bd6c0 	call	304bd6c <puts>
    
}
 3040540:	e037883a 	mov	sp,fp
 3040544:	dfc00117 	ldw	ra,4(sp)
 3040548:	df000017 	ldw	fp,0(sp)
 304054c:	dec00204 	addi	sp,sp,8
 3040550:	f800283a 	ret

03040554 <is_supporrted_sample_rate>:

/////////////////////////////////////////////////////////////////
/////////// Routing for building wave-file play list ////////////
/////////////////////////////////////////////////////////////////

bool is_supporrted_sample_rate(int sample_rate){
 3040554:	defffc04 	addi	sp,sp,-16
 3040558:	df000315 	stw	fp,12(sp)
 304055c:	df000304 	addi	fp,sp,12
 3040560:	e13ffe15 	stw	r4,-8(fp)
    bool bSupport = FALSE;
 3040564:	e03ffd15 	stw	zero,-12(fp)
    switch(sample_rate){
 3040568:	e0bffe17 	ldw	r2,-8(fp)
 304056c:	e0bfff15 	stw	r2,-4(fp)
 3040570:	00ab1114 	movui	r2,44100
 3040574:	e0ffff17 	ldw	r3,-4(fp)
 3040578:	18801226 	beq	r3,r2,30405c4 <is_supporrted_sample_rate+0x70>
 304057c:	00ab1114 	movui	r2,44100
 3040580:	e0ffff17 	ldw	r3,-4(fp)
 3040584:	10c00716 	blt	r2,r3,30405a4 <is_supporrted_sample_rate+0x50>
 3040588:	e0ffff17 	ldw	r3,-4(fp)
 304058c:	1887d020 	cmpeqi	r2,r3,8000
 3040590:	10000c1e 	bne	r2,zero,30405c4 <is_supporrted_sample_rate+0x70>
 3040594:	e0ffff17 	ldw	r3,-4(fp)
 3040598:	189f4020 	cmpeqi	r2,r3,32000
 304059c:	1000091e 	bne	r2,zero,30405c4 <is_supporrted_sample_rate+0x70>
 30405a0:	00000a06 	br	30405cc <is_supporrted_sample_rate+0x78>
 30405a4:	00aee014 	movui	r2,48000
 30405a8:	e0ffff17 	ldw	r3,-4(fp)
 30405ac:	18800526 	beq	r3,r2,30405c4 <is_supporrted_sample_rate+0x70>
 30405b0:	00800074 	movhi	r2,1
 30405b4:	109dc004 	addi	r2,r2,30464
 30405b8:	e0ffff17 	ldw	r3,-4(fp)
 30405bc:	18800126 	beq	r3,r2,30405c4 <is_supporrted_sample_rate+0x70>
 30405c0:	00000206 	br	30405cc <is_supporrted_sample_rate+0x78>
        case 96000:
        case 48000:
        case 44100:
        case 32000:
        case 8000:
            bSupport = TRUE;
 30405c4:	00800044 	movi	r2,1
 30405c8:	e0bffd15 	stw	r2,-12(fp)
            break;
    }
    return bSupport;
 30405cc:	e0bffd17 	ldw	r2,-12(fp)
}
 30405d0:	e037883a 	mov	sp,fp
 30405d4:	df000017 	ldw	fp,0(sp)
 30405d8:	dec00104 	addi	sp,sp,4
 30405dc:	f800283a 	ret

030405e0 <build_wave_play_list>:


int build_wave_play_list(FAT_HANDLE hFat){
 30405e0:	deff4804 	addi	sp,sp,-736
 30405e4:	dfc0b715 	stw	ra,732(sp)
 30405e8:	df00b615 	stw	fp,728(sp)
 30405ec:	df00b604 	addi	fp,sp,728
 30405f0:	e13ffe15 	stw	r4,-8(fp)
    int count = 0;
 30405f4:	e03f5115 	stw	zero,-700(fp)
    FILE_CONTEXT FileContext;
    FAT_FILE_HANDLE hFile;
    alt_u8 szHeader[128];
    char szWaveFilename[MAX_FILENAME_LENGTH];
    int sample_rate;
    bool bFlag = FALSE;
 30405f8:	e03f4e15 	stw	zero,-712(fp)
    int nPos = 0;
 30405fc:	e03f4d15 	stw	zero,-716(fp)
    int length=0;
 3040600:	e03f4c15 	stw	zero,-720(fp)
    //
    gWavePlayList.nFileNum = 0;
 3040604:	0080c1b4 	movhi	r2,774
 3040608:	10be4f04 	addi	r2,r2,-1732
 304060c:	10000015 	stw	zero,0(r2)
    if (!Fat_FileBrowseBegin(hFat,&hFileBrowse)){
 3040610:	e17f5204 	addi	r5,fp,-696
 3040614:	e13ffe17 	ldw	r4,-8(fp)
 3040618:	3041c9c0 	call	3041c9c <Fat_FileBrowseBegin>
 304061c:	1004c03a 	cmpne	r2,r2,zero
 3040620:	1000da1e 	bne	r2,zero,304098c <build_wave_play_list+0x3ac>
        DEMO_PRINTF("browse file fail.\n");
 3040624:	0100c1b4 	movhi	r4,774
 3040628:	212b6204 	addi	r4,r4,-21112
 304062c:	304bd6c0 	call	304bd6c <puts>
        return 0;
 3040630:	e03fff15 	stw	zero,-4(fp)
 3040634:	0000e006 	br	30409b8 <build_wave_play_list+0x3d8>
    } 
    
    //
    while (Fat_FileBrowseNext(&hFileBrowse,&FileContext)){
        if (FileContext.bLongFilename){
 3040638:	e0bf9417 	ldw	r2,-432(fp)
 304063c:	1005003a 	cmpeq	r2,r2,zero
 3040640:	1000411e 	bne	r2,zero,3040748 <build_wave_play_list+0x168>
                nPos = 0;
 3040644:	e03f4d15 	stw	zero,-716(fp)
                alt_u16 *pData16;
                alt_u8 *pData8;
                pData16 = (alt_u16 *)FileContext.szName;
 3040648:	e0bf5404 	addi	r2,fp,-688
 304064c:	e0bf4b15 	stw	r2,-724(fp)
                pData8 = FileContext.szName;
 3040650:	e0bf5404 	addi	r2,fp,-688
 3040654:	e0bf4a15 	stw	r2,-728(fp)
                while(*pData16){
 3040658:	00003106 	br	3040720 <build_wave_play_list+0x140>
                    if (*pData8 && *pData8 != ' ')
 304065c:	e0bf4a17 	ldw	r2,-728(fp)
 3040660:	10800003 	ldbu	r2,0(r2)
 3040664:	10803fcc 	andi	r2,r2,255
 3040668:	1005003a 	cmpeq	r2,r2,zero
 304066c:	10000f1e 	bne	r2,zero,30406ac <build_wave_play_list+0xcc>
 3040670:	e0bf4a17 	ldw	r2,-728(fp)
 3040674:	10800003 	ldbu	r2,0(r2)
 3040678:	10803fcc 	andi	r2,r2,255
 304067c:	10800820 	cmpeqi	r2,r2,32
 3040680:	10000a1e 	bne	r2,zero,30406ac <build_wave_play_list+0xcc>
                        szWaveFilename[nPos++] = *pData8;
 3040684:	e13f4d17 	ldw	r4,-716(fp)
 3040688:	e0bf4a17 	ldw	r2,-728(fp)
 304068c:	10800003 	ldbu	r2,0(r2)
 3040690:	1007883a 	mov	r3,r2
 3040694:	e0bfbe04 	addi	r2,fp,-264
 3040698:	1105883a 	add	r2,r2,r4
 304069c:	10c00005 	stb	r3,0(r2)
 30406a0:	e0bf4d17 	ldw	r2,-716(fp)
 30406a4:	10800044 	addi	r2,r2,1
 30406a8:	e0bf4d15 	stw	r2,-716(fp)
                    pData8++;
 30406ac:	e0bf4a17 	ldw	r2,-728(fp)
 30406b0:	10800044 	addi	r2,r2,1
 30406b4:	e0bf4a15 	stw	r2,-728(fp)
                    if (*pData8 && *pData8 != ' ')
 30406b8:	e0bf4a17 	ldw	r2,-728(fp)
 30406bc:	10800003 	ldbu	r2,0(r2)
 30406c0:	10803fcc 	andi	r2,r2,255
 30406c4:	1005003a 	cmpeq	r2,r2,zero
 30406c8:	10000f1e 	bne	r2,zero,3040708 <build_wave_play_list+0x128>
 30406cc:	e0bf4a17 	ldw	r2,-728(fp)
 30406d0:	10800003 	ldbu	r2,0(r2)
 30406d4:	10803fcc 	andi	r2,r2,255
 30406d8:	10800820 	cmpeqi	r2,r2,32
 30406dc:	10000a1e 	bne	r2,zero,3040708 <build_wave_play_list+0x128>
                        szWaveFilename[nPos++] = *pData8;
 30406e0:	e13f4d17 	ldw	r4,-716(fp)
 30406e4:	e0bf4a17 	ldw	r2,-728(fp)
 30406e8:	10800003 	ldbu	r2,0(r2)
 30406ec:	1007883a 	mov	r3,r2
 30406f0:	e0bfbe04 	addi	r2,fp,-264
 30406f4:	1105883a 	add	r2,r2,r4
 30406f8:	10c00005 	stb	r3,0(r2)
 30406fc:	e0bf4d17 	ldw	r2,-716(fp)
 3040700:	10800044 	addi	r2,r2,1
 3040704:	e0bf4d15 	stw	r2,-716(fp)
                    pData8++;                    
 3040708:	e0bf4a17 	ldw	r2,-728(fp)
 304070c:	10800044 	addi	r2,r2,1
 3040710:	e0bf4a15 	stw	r2,-728(fp)
                    //    
                    pData16++;
 3040714:	e0bf4b17 	ldw	r2,-724(fp)
 3040718:	10800084 	addi	r2,r2,2
 304071c:	e0bf4b15 	stw	r2,-724(fp)
                nPos = 0;
                alt_u16 *pData16;
                alt_u8 *pData8;
                pData16 = (alt_u16 *)FileContext.szName;
                pData8 = FileContext.szName;
                while(*pData16){
 3040720:	e0bf4b17 	ldw	r2,-724(fp)
 3040724:	1080000b 	ldhu	r2,0(r2)
 3040728:	10bfffcc 	andi	r2,r2,65535
 304072c:	1004c03a 	cmpne	r2,r2,zero
 3040730:	103fca1e 	bne	r2,zero,304065c <build_wave_play_list+0x7c>
                        szWaveFilename[nPos++] = *pData8;
                    pData8++;                    
                    //    
                    pData16++;
                }
                szWaveFilename[nPos] = 0;
 3040734:	e0bf4d17 	ldw	r2,-716(fp)
 3040738:	e0ffbe04 	addi	r3,fp,-264
 304073c:	1885883a 	add	r2,r3,r2
 3040740:	10000005 	stb	zero,0(r2)
 3040744:	00000306 	br	3040754 <build_wave_play_list+0x174>
                //printf("\n--Music Name:%s --\n",szWaveFilename);
            }else{
                strcpy(szWaveFilename,FileContext.szName);
 3040748:	e13fbe04 	addi	r4,fp,-264
 304074c:	e17f5404 	addi	r5,fp,-688
 3040750:	304c35c0 	call	304c35c <strcpy>
                //printf("\n--Music Name:%s --\n",FileContext.szName);
            }       
            
            length= strlen(szWaveFilename);   
 3040754:	e13fbe04 	addi	r4,fp,-264
 3040758:	304c3e80 	call	304c3e8 <strlen>
 304075c:	e0bf4c15 	stw	r2,-720(fp)
            if(length >= 4){
 3040760:	e0bf4c17 	ldw	r2,-720(fp)
 3040764:	10800110 	cmplti	r2,r2,4
 3040768:	1000481e 	bne	r2,zero,304088c <build_wave_play_list+0x2ac>
               if((szWaveFilename[length-1] =='V' || szWaveFilename[length-1] =='v')
 304076c:	e0bf4c17 	ldw	r2,-720(fp)
 3040770:	10ffffc4 	addi	r3,r2,-1
 3040774:	e0bfbe04 	addi	r2,fp,-264
 3040778:	10c5883a 	add	r2,r2,r3
 304077c:	10800003 	ldbu	r2,0(r2)
 3040780:	10803fcc 	andi	r2,r2,255
 3040784:	1080201c 	xori	r2,r2,128
 3040788:	10bfe004 	addi	r2,r2,-128
 304078c:	108015a0 	cmpeqi	r2,r2,86
 3040790:	10000a1e 	bne	r2,zero,30407bc <build_wave_play_list+0x1dc>
 3040794:	e0bf4c17 	ldw	r2,-720(fp)
 3040798:	10ffffc4 	addi	r3,r2,-1
 304079c:	e0bfbe04 	addi	r2,fp,-264
 30407a0:	10c5883a 	add	r2,r2,r3
 30407a4:	10800003 	ldbu	r2,0(r2)
 30407a8:	10803fcc 	andi	r2,r2,255
 30407ac:	1080201c 	xori	r2,r2,128
 30407b0:	10bfe004 	addi	r2,r2,-128
 30407b4:	10801d98 	cmpnei	r2,r2,118
 30407b8:	1000341e 	bne	r2,zero,304088c <build_wave_play_list+0x2ac>
 30407bc:	e0bf4c17 	ldw	r2,-720(fp)
 30407c0:	10ffff84 	addi	r3,r2,-2
 30407c4:	e0bfbe04 	addi	r2,fp,-264
 30407c8:	10c5883a 	add	r2,r2,r3
 30407cc:	10800003 	ldbu	r2,0(r2)
 30407d0:	10803fcc 	andi	r2,r2,255
 30407d4:	1080201c 	xori	r2,r2,128
 30407d8:	10bfe004 	addi	r2,r2,-128
 30407dc:	10801060 	cmpeqi	r2,r2,65
 30407e0:	10000a1e 	bne	r2,zero,304080c <build_wave_play_list+0x22c>
 30407e4:	e0bf4c17 	ldw	r2,-720(fp)
 30407e8:	10ffff84 	addi	r3,r2,-2
 30407ec:	e0bfbe04 	addi	r2,fp,-264
 30407f0:	10c5883a 	add	r2,r2,r3
 30407f4:	10800003 	ldbu	r2,0(r2)
 30407f8:	10803fcc 	andi	r2,r2,255
 30407fc:	1080201c 	xori	r2,r2,128
 3040800:	10bfe004 	addi	r2,r2,-128
 3040804:	10801858 	cmpnei	r2,r2,97
 3040808:	1000201e 	bne	r2,zero,304088c <build_wave_play_list+0x2ac>
 304080c:	e0bf4c17 	ldw	r2,-720(fp)
 3040810:	10ffff44 	addi	r3,r2,-3
 3040814:	e0bfbe04 	addi	r2,fp,-264
 3040818:	10c5883a 	add	r2,r2,r3
 304081c:	10800003 	ldbu	r2,0(r2)
 3040820:	10803fcc 	andi	r2,r2,255
 3040824:	1080201c 	xori	r2,r2,128
 3040828:	10bfe004 	addi	r2,r2,-128
 304082c:	108015e0 	cmpeqi	r2,r2,87
 3040830:	10000a1e 	bne	r2,zero,304085c <build_wave_play_list+0x27c>
 3040834:	e0bf4c17 	ldw	r2,-720(fp)
 3040838:	10ffff44 	addi	r3,r2,-3
 304083c:	e0bfbe04 	addi	r2,fp,-264
 3040840:	10c5883a 	add	r2,r2,r3
 3040844:	10800003 	ldbu	r2,0(r2)
 3040848:	10803fcc 	andi	r2,r2,255
 304084c:	1080201c 	xori	r2,r2,128
 3040850:	10bfe004 	addi	r2,r2,-128
 3040854:	10801dd8 	cmpnei	r2,r2,119
 3040858:	10000c1e 	bne	r2,zero,304088c <build_wave_play_list+0x2ac>
 304085c:	e0bf4c17 	ldw	r2,-720(fp)
 3040860:	10ffff04 	addi	r3,r2,-4
 3040864:	e0bfbe04 	addi	r2,fp,-264
 3040868:	10c5883a 	add	r2,r2,r3
 304086c:	10800003 	ldbu	r2,0(r2)
 3040870:	10803fcc 	andi	r2,r2,255
 3040874:	1080201c 	xori	r2,r2,128
 3040878:	10bfe004 	addi	r2,r2,-128
 304087c:	10800b98 	cmpnei	r2,r2,46
 3040880:	1000021e 	bne	r2,zero,304088c <build_wave_play_list+0x2ac>
                &&(szWaveFilename[length-2] == 'A' || szWaveFilename[length-2] =='a')
                &&(szWaveFilename[length-3] == 'W' || szWaveFilename[length-3] == 'w')
                &&(szWaveFilename[length-4] == '.')){
                   bFlag = TRUE;
 3040884:	00800044 	movi	r2,1
 3040888:	e0bf4e15 	stw	r2,-712(fp)
                } 
            }
       
        if (bFlag){
 304088c:	e0bf4e17 	ldw	r2,-712(fp)
 3040890:	1005003a 	cmpeq	r2,r2,zero
 3040894:	10003d1e 	bne	r2,zero,304098c <build_wave_play_list+0x3ac>
            // parsing wave format
            hFile = Fat_FileOpen(hFat,szWaveFilename);
 3040898:	e17fbe04 	addi	r5,fp,-264
 304089c:	e13ffe17 	ldw	r4,-8(fp)
 30408a0:	30425a00 	call	30425a0 <Fat_FileOpen>
 30408a4:	e0bf5015 	stw	r2,-704(fp)
            if (!hFile){
 30408a8:	e0bf5017 	ldw	r2,-704(fp)
 30408ac:	1004c03a 	cmpne	r2,r2,zero
 30408b0:	1000041e 	bne	r2,zero,30408c4 <build_wave_play_list+0x2e4>
                  DEMO_PRINTF("wave file open fail.\n");
 30408b4:	0100c1b4 	movhi	r4,774
 30408b8:	212b6704 	addi	r4,r4,-21092
 30408bc:	304bd6c0 	call	304bd6c <puts>
                  continue;
 30408c0:	00003206 	br	304098c <build_wave_play_list+0x3ac>
            }
            DEMO_PRINTF("Read OK.\n");
 30408c4:	0100c1b4 	movhi	r4,774
 30408c8:	212b6d04 	addi	r4,r4,-21068
 30408cc:	304bd6c0 	call	304bd6c <puts>
            
            //memset(szHeader,0,sizeof(szHeader));
                    
            if (!Fat_FileRead(hFile, szHeader, sizeof(szHeader))){
 30408d0:	e17f9e04 	addi	r5,fp,-392
 30408d4:	e13f5017 	ldw	r4,-704(fp)
 30408d8:	01802004 	movi	r6,128
 30408dc:	30428280 	call	3042828 <Fat_FileRead>
 30408e0:	1004c03a 	cmpne	r2,r2,zero
 30408e4:	1000041e 	bne	r2,zero,30408f8 <build_wave_play_list+0x318>
                  DEMO_PRINTF("wave file read fail.\n");
 30408e8:	0100c1b4 	movhi	r4,774
 30408ec:	212b7004 	addi	r4,r4,-21056
 30408f0:	304bd6c0 	call	304bd6c <puts>
                  continue;
 30408f4:	00002506 	br	304098c <build_wave_play_list+0x3ac>
            }
            Fat_FileClose(hFile);
 30408f8:	e13f5017 	ldw	r4,-704(fp)
 30408fc:	3042e240 	call	3042e24 <Fat_FileClose>
                
                        // check wave format
            sample_rate =  Wave_GetSampleRate(szHeader, sizeof(szHeader));           
 3040900:	e13f9e04 	addi	r4,fp,-392
 3040904:	01402004 	movi	r5,128
 3040908:	30465740 	call	3046574 <Wave_GetSampleRate>
 304090c:	e0bf4f15 	stw	r2,-708(fp)
            if (WAVE_IsWaveFile(szHeader, sizeof(szHeader)) &&
 3040910:	e13f9e04 	addi	r4,fp,-392
 3040914:	01402004 	movi	r5,128
 3040918:	30464200 	call	3046420 <WAVE_IsWaveFile>
 304091c:	1005003a 	cmpeq	r2,r2,zero
 3040920:	10001a1e 	bne	r2,zero,304098c <build_wave_play_list+0x3ac>
 3040924:	e13f4f17 	ldw	r4,-708(fp)
 3040928:	30405540 	call	3040554 <is_supporrted_sample_rate>
 304092c:	1005003a 	cmpeq	r2,r2,zero
 3040930:	1000161e 	bne	r2,zero,304098c <build_wave_play_list+0x3ac>
 3040934:	e13f9e04 	addi	r4,fp,-392
 3040938:	01402004 	movi	r5,128
 304093c:	30466100 	call	3046610 <Wave_GetChannelNum>
 3040940:	10800098 	cmpnei	r2,r2,2
 3040944:	1000111e 	bne	r2,zero,304098c <build_wave_play_list+0x3ac>
 3040948:	e13f9e04 	addi	r4,fp,-392
 304094c:	01402004 	movi	r5,128
 3040950:	30466980 	call	3046698 <Wave_GetSampleBitNum>
 3040954:	10800418 	cmpnei	r2,r2,16
 3040958:	10000c1e 	bne	r2,zero,304098c <build_wave_play_list+0x3ac>
                is_supporrted_sample_rate(sample_rate) &&
                Wave_GetChannelNum(szHeader, sizeof(szHeader))==2 &&
                Wave_GetSampleBitNum(szHeader, sizeof(szHeader))==16){
                    strcpy(gWavePlayList.szFilename[count],szWaveFilename);
 304095c:	e0bf5117 	ldw	r2,-700(fp)
 3040960:	1004917a 	slli	r2,r2,5
 3040964:	1007883a 	mov	r3,r2
 3040968:	0080c1b4 	movhi	r2,774
 304096c:	10be5004 	addi	r2,r2,-1728
 3040970:	1885883a 	add	r2,r3,r2
 3040974:	1009883a 	mov	r4,r2
 3040978:	e17fbe04 	addi	r5,fp,-264
 304097c:	304c35c0 	call	304c35c <strcpy>
                    count++;
 3040980:	e0bf5117 	ldw	r2,-700(fp)
 3040984:	10800044 	addi	r2,r2,1
 3040988:	e0bf5115 	stw	r2,-700(fp)
        DEMO_PRINTF("browse file fail.\n");
        return 0;
    } 
    
    //
    while (Fat_FileBrowseNext(&hFileBrowse,&FileContext)){
 304098c:	e13f5204 	addi	r4,fp,-696
 3040990:	e17f5404 	addi	r5,fp,-688
 3040994:	3041d180 	call	3041d18 <Fat_FileBrowseNext>
 3040998:	1004c03a 	cmpne	r2,r2,zero
 304099c:	103f261e 	bne	r2,zero,3040638 <build_wave_play_list+0x58>
                    strcpy(gWavePlayList.szFilename[count],szWaveFilename);
                    count++;
            }
        }
    } // while  
    gWavePlayList.nFileNum = count;
 30409a0:	00c0c1b4 	movhi	r3,774
 30409a4:	18fe4f04 	addi	r3,r3,-1732
 30409a8:	e0bf5117 	ldw	r2,-700(fp)
 30409ac:	18800015 	stw	r2,0(r3)
    
    //Fat_FileBrowseEnd(&hFileBrowse);   
    
    return count;
 30409b0:	e0bf5117 	ldw	r2,-700(fp)
 30409b4:	e0bfff15 	stw	r2,-4(fp)
 30409b8:	e0bfff17 	ldw	r2,-4(fp)
}
 30409bc:	e037883a 	mov	sp,fp
 30409c0:	dfc00117 	ldw	ra,4(sp)
 30409c4:	df000017 	ldw	fp,0(sp)
 30409c8:	dec00204 	addi	sp,sp,8
 30409cc:	f800283a 	ret

030409d0 <waveplay_start>:



void waveplay_stop(void);

bool waveplay_start(char *pFilename){
 30409d0:	defff904 	addi	sp,sp,-28
 30409d4:	dfc00615 	stw	ra,24(sp)
 30409d8:	df000515 	stw	fp,20(sp)
 30409dc:	dc000415 	stw	r16,16(sp)
 30409e0:	df000404 	addi	fp,sp,16
 30409e4:	e13fff15 	stw	r4,-4(fp)
    bool bSuccess;
    int nSize;
    //waveplay_stop();
    
  //  strcpyn(gWavePlay.szFilename, pFilename, FILENAME_LEN-1);
    strcpy(gWavePlay.szFilename, pFilename);
 30409e8:	0100c1b4 	movhi	r4,774
 30409ec:	2102d504 	addi	r4,r4,2900
 30409f0:	e17fff17 	ldw	r5,-4(fp)
 30409f4:	304c35c0 	call	304c35c <strcpy>
    gWavePlay.hFile = Fat_FileOpen(hFat, pFilename);
 30409f8:	d1276c17 	ldw	r4,-25168(gp)
 30409fc:	e17fff17 	ldw	r5,-4(fp)
 3040a00:	30425a00 	call	30425a0 <Fat_FileOpen>
 3040a04:	1007883a 	mov	r3,r2
 3040a08:	0080c1b4 	movhi	r2,774
 3040a0c:	10825004 	addi	r2,r2,2368
 3040a10:	10c00015 	stw	r3,0(r2)
    if (!gWavePlay.hFile)
 3040a14:	0080c1b4 	movhi	r2,774
 3040a18:	10825004 	addi	r2,r2,2368
 3040a1c:	10800017 	ldw	r2,0(r2)
 3040a20:	1004c03a 	cmpne	r2,r2,zero
 3040a24:	1000031e 	bne	r2,zero,3040a34 <waveplay_start+0x64>
        DEMO_PRINTF("wave file open fail.\n");
 3040a28:	0100c1b4 	movhi	r4,774
 3040a2c:	212b6704 	addi	r4,r4,-21092
 3040a30:	304bd6c0 	call	304bd6c <puts>
    
    //gWavePlay.szBuf = Fat_FileSize(gWavePlay.hFile);
    nSize = Fat_FileSize(gWavePlay.hFile);
 3040a34:	0080c1b4 	movhi	r2,774
 3040a38:	10825004 	addi	r2,r2,2368
 3040a3c:	11000017 	ldw	r4,0(r2)
 3040a40:	30427d80 	call	30427d8 <Fat_FileSize>
 3040a44:	e0bffd15 	stw	r2,-12(fp)

    if (gWavePlay.hFile){                    
 3040a48:	0080c1b4 	movhi	r2,774
 3040a4c:	10825004 	addi	r2,r2,2368
 3040a50:	10800017 	ldw	r2,0(r2)
 3040a54:	1005003a 	cmpeq	r2,r2,zero
 3040a58:	10000e1e 	bne	r2,zero,3040a94 <waveplay_start+0xc4>
        bSuccess = Fat_FileRead(gWavePlay.hFile, gWavePlay.szBuf, WAVE_BUF_SIZE);
 3040a5c:	0080c1b4 	movhi	r2,774
 3040a60:	10825004 	addi	r2,r2,2368
 3040a64:	11000017 	ldw	r4,0(r2)
 3040a68:	0140c1b4 	movhi	r5,774
 3040a6c:	29425104 	addi	r5,r5,2372
 3040a70:	01808004 	movi	r6,512
 3040a74:	30428280 	call	3042828 <Fat_FileRead>
 3040a78:	e0bffe15 	stw	r2,-8(fp)
        if (!bSuccess)
 3040a7c:	e0bffe17 	ldw	r2,-8(fp)
 3040a80:	1004c03a 	cmpne	r2,r2,zero
 3040a84:	1000031e 	bne	r2,zero,3040a94 <waveplay_start+0xc4>
            DEMO_PRINTF("wave file read fail.\n");
 3040a88:	0100c1b4 	movhi	r4,774
 3040a8c:	212b7004 	addi	r4,r4,-21056
 3040a90:	304bd6c0 	call	304bd6c <puts>
    }            
                
                        // check wave format
    if (bSuccess){      
 3040a94:	e0bffe17 	ldw	r2,-8(fp)
 3040a98:	1005003a 	cmpeq	r2,r2,zero
 3040a9c:	1000601e 	bne	r2,zero,3040c20 <waveplay_start+0x250>
            int sample_rate =  Wave_GetSampleRate(gWavePlay.szBuf, WAVE_BUF_SIZE);                 
 3040aa0:	0100c1b4 	movhi	r4,774
 3040aa4:	21025104 	addi	r4,r4,2372
 3040aa8:	01408004 	movi	r5,512
 3040aac:	30465740 	call	3046574 <Wave_GetSampleRate>
 3040ab0:	e0bffc15 	stw	r2,-16(fp)
            if (WAVE_IsWaveFile(gWavePlay.szBuf, WAVE_BUF_SIZE) &&
 3040ab4:	0100c1b4 	movhi	r4,774
 3040ab8:	21025104 	addi	r4,r4,2372
 3040abc:	01408004 	movi	r5,512
 3040ac0:	30464200 	call	3046420 <WAVE_IsWaveFile>
 3040ac4:	1005003a 	cmpeq	r2,r2,zero
 3040ac8:	1000541e 	bne	r2,zero,3040c1c <waveplay_start+0x24c>
 3040acc:	e13ffc17 	ldw	r4,-16(fp)
 3040ad0:	30405540 	call	3040554 <is_supporrted_sample_rate>
 3040ad4:	1005003a 	cmpeq	r2,r2,zero
 3040ad8:	1000501e 	bne	r2,zero,3040c1c <waveplay_start+0x24c>
 3040adc:	0100c1b4 	movhi	r4,774
 3040ae0:	21025104 	addi	r4,r4,2372
 3040ae4:	01408004 	movi	r5,512
 3040ae8:	30466100 	call	3046610 <Wave_GetChannelNum>
 3040aec:	10800098 	cmpnei	r2,r2,2
 3040af0:	10004a1e 	bne	r2,zero,3040c1c <waveplay_start+0x24c>
 3040af4:	0100c1b4 	movhi	r4,774
 3040af8:	21025104 	addi	r4,r4,2372
 3040afc:	01408004 	movi	r5,512
 3040b00:	30466980 	call	3046698 <Wave_GetSampleBitNum>
 3040b04:	10800418 	cmpnei	r2,r2,16
 3040b08:	1000441e 	bne	r2,zero,3040c1c <waveplay_start+0x24c>
                is_supporrted_sample_rate(sample_rate) &&
                Wave_GetChannelNum(gWavePlay.szBuf, WAVE_BUF_SIZE)==2 &&
                Wave_GetSampleBitNum(gWavePlay.szBuf, WAVE_BUF_SIZE)==16){
                    
                gWavePlay.uWavePlayPos = Wave_GetWaveOffset(gWavePlay.szBuf, WAVE_BUF_SIZE);
 3040b0c:	0100c1b4 	movhi	r4,774
 3040b10:	21025104 	addi	r4,r4,2372
 3040b14:	01408004 	movi	r5,512
 3040b18:	30467bc0 	call	30467bc <Wave_GetWaveOffset>
 3040b1c:	1007883a 	mov	r3,r2
 3040b20:	0080c1b4 	movhi	r2,774
 3040b24:	10825004 	addi	r2,r2,2368
 3040b28:	10c08315 	stw	r3,524(r2)
                gWavePlay.uWaveMaxPlayPos = gWavePlay.uWavePlayPos + Wave_GetDataByteSize(gWavePlay.szBuf, WAVE_BUF_SIZE);
 3040b2c:	0080c1b4 	movhi	r2,774
 3040b30:	10825004 	addi	r2,r2,2368
 3040b34:	14008317 	ldw	r16,524(r2)
 3040b38:	0100c1b4 	movhi	r4,774
 3040b3c:	21025104 	addi	r4,r4,2372
 3040b40:	01408004 	movi	r5,512
 3040b44:	30467200 	call	3046720 <Wave_GetDataByteSize>
 3040b48:	8087883a 	add	r3,r16,r2
 3040b4c:	0080c1b4 	movhi	r2,774
 3040b50:	10825004 	addi	r2,r2,2368
 3040b54:	10c08415 	stw	r3,528(r2)
                gWavePlay.uWaveReadPos = WAVE_BUF_SIZE;
 3040b58:	00c0c1b4 	movhi	r3,774
 3040b5c:	18c25004 	addi	r3,r3,2368
 3040b60:	00808004 	movi	r2,512
 3040b64:	18808215 	stw	r2,520(r3)

                // setup sample rate
                AUDIO_InterfaceActive(FALSE);
 3040b68:	0009883a 	mov	r4,zero
 3040b6c:	3044a640 	call	3044a64 <AUDIO_InterfaceActive>
                if (sample_rate == 96000)
 3040b70:	e0fffc17 	ldw	r3,-16(fp)
 3040b74:	00800074 	movhi	r2,1
 3040b78:	109dc004 	addi	r2,r2,30464
 3040b7c:	1880031e 	bne	r3,r2,3040b8c <waveplay_start+0x1bc>
                    AUDIO_SetSampleRate(RATE_ADC96K_DAC96K);
 3040b80:	01000144 	movi	r4,5
 3040b84:	3044fb00 	call	3044fb0 <AUDIO_SetSampleRate>
 3040b88:	00001c06 	br	3040bfc <waveplay_start+0x22c>
                else if (sample_rate == 48000)
 3040b8c:	e0fffc17 	ldw	r3,-16(fp)
 3040b90:	00aee014 	movui	r2,48000
 3040b94:	1880031e 	bne	r3,r2,3040ba4 <waveplay_start+0x1d4>
                    AUDIO_SetSampleRate(RATE_ADC48K_DAC48K);
 3040b98:	0009883a 	mov	r4,zero
 3040b9c:	3044fb00 	call	3044fb0 <AUDIO_SetSampleRate>
 3040ba0:	00001606 	br	3040bfc <waveplay_start+0x22c>
                else if (sample_rate == 44100)                    
 3040ba4:	e0fffc17 	ldw	r3,-16(fp)
 3040ba8:	00ab1114 	movui	r2,44100
 3040bac:	1880031e 	bne	r3,r2,3040bbc <waveplay_start+0x1ec>
                    AUDIO_SetSampleRate(RATE_ADC44K1_DAC44K1);
 3040bb0:	01000184 	movi	r4,6
 3040bb4:	3044fb00 	call	3044fb0 <AUDIO_SetSampleRate>
 3040bb8:	00001006 	br	3040bfc <waveplay_start+0x22c>
                else if (sample_rate == 32000)                    
 3040bbc:	e0bffc17 	ldw	r2,-16(fp)
 3040bc0:	109f4018 	cmpnei	r2,r2,32000
 3040bc4:	1000031e 	bne	r2,zero,3040bd4 <waveplay_start+0x204>
                    AUDIO_SetSampleRate(RATE_ADC32K_DAC32K);
 3040bc8:	01000104 	movi	r4,4
 3040bcc:	3044fb00 	call	3044fb0 <AUDIO_SetSampleRate>
 3040bd0:	00000a06 	br	3040bfc <waveplay_start+0x22c>
                else if (sample_rate == 8000)                    
 3040bd4:	e0bffc17 	ldw	r2,-16(fp)
 3040bd8:	1087d018 	cmpnei	r2,r2,8000
 3040bdc:	1000031e 	bne	r2,zero,3040bec <waveplay_start+0x21c>
                    AUDIO_SetSampleRate(RATE_ADC8K_DAC8K);
 3040be0:	010000c4 	movi	r4,3
 3040be4:	3044fb00 	call	3044fb0 <AUDIO_SetSampleRate>
 3040be8:	00000406 	br	3040bfc <waveplay_start+0x22c>
                else    
                    DEMO_PRINTF("unsupported sample rate=%d\n", sample_rate);
 3040bec:	0100c1b4 	movhi	r4,774
 3040bf0:	212b7604 	addi	r4,r4,-21032
 3040bf4:	e17ffc17 	ldw	r5,-16(fp)
 3040bf8:	304bc300 	call	304bc30 <printf>
                AUDIO_FifoClear();
 3040bfc:	304560c0 	call	304560c <AUDIO_FifoClear>
                AUDIO_InterfaceActive(TRUE);
 3040c00:	01000044 	movi	r4,1
 3040c04:	3044a640 	call	3044a64 <AUDIO_InterfaceActive>
                
                  
                DEMO_PRINTF("sample rate=%d\n", sample_rate);    
 3040c08:	0100c1b4 	movhi	r4,774
 3040c0c:	212b7d04 	addi	r4,r4,-21004
 3040c10:	e17ffc17 	ldw	r5,-16(fp)
 3040c14:	304bc300 	call	304bc30 <printf>
    }            
                
                        // check wave format
    if (bSuccess){      
            int sample_rate =  Wave_GetSampleRate(gWavePlay.szBuf, WAVE_BUF_SIZE);                 
            if (WAVE_IsWaveFile(gWavePlay.szBuf, WAVE_BUF_SIZE) &&
 3040c18:	00000106 	br	3040c20 <waveplay_start+0x250>
                AUDIO_InterfaceActive(TRUE);
                
                  
                DEMO_PRINTF("sample rate=%d\n", sample_rate);    
            }else{
                bSuccess = FALSE;
 3040c1c:	e03ffe15 	stw	zero,-8(fp)
            }    
    }            

    if (!bSuccess)
 3040c20:	e0bffe17 	ldw	r2,-8(fp)
 3040c24:	1004c03a 	cmpne	r2,r2,zero
 3040c28:	1000011e 	bne	r2,zero,3040c30 <waveplay_start+0x260>
        waveplay_stop();    
 3040c2c:	3040f840 	call	3040f84 <waveplay_stop>
    
    return bSuccess;
 3040c30:	e0bffe17 	ldw	r2,-8(fp)
}
 3040c34:	e037883a 	mov	sp,fp
 3040c38:	dfc00217 	ldw	ra,8(sp)
 3040c3c:	df000117 	ldw	fp,4(sp)
 3040c40:	dc000017 	ldw	r16,0(sp)
 3040c44:	dec00304 	addi	sp,sp,12
 3040c48:	f800283a 	ret

03040c4c <waveplay_execute>:

bool waveplay_execute(bool *bEOF){
 3040c4c:	defff004 	addi	sp,sp,-64
 3040c50:	dfc00f15 	stw	ra,60(sp)
 3040c54:	df000e15 	stw	fp,56(sp)
 3040c58:	df000e04 	addi	fp,sp,56
 3040c5c:	e13ffb15 	stw	r4,-20(fp)
    bool bSuccess = TRUE;
 3040c60:	00800044 	movi	r2,1
 3040c64:	e0bffa15 	stw	r2,-24(fp)
    bool bDataReady = FALSE;
 3040c68:	e03ff915 	stw	zero,-28(fp)
   
    
    // end of play data !
    if (gWavePlay.uWavePlayPos >= gWavePlay.uWaveMaxPlayPos){
 3040c6c:	0080c1b4 	movhi	r2,774
 3040c70:	10825004 	addi	r2,r2,2368
 3040c74:	10c08317 	ldw	r3,524(r2)
 3040c78:	0080c1b4 	movhi	r2,774
 3040c7c:	10825004 	addi	r2,r2,2368
 3040c80:	10808417 	ldw	r2,528(r2)
 3040c84:	18800636 	bltu	r3,r2,3040ca0 <waveplay_execute+0x54>
        *bEOF = TRUE;
 3040c88:	e0fffb17 	ldw	r3,-20(fp)
 3040c8c:	00800044 	movi	r2,1
 3040c90:	18800015 	stw	r2,0(r3)
        return TRUE;
 3040c94:	00800044 	movi	r2,1
 3040c98:	e0bffe15 	stw	r2,-8(fp)
 3040c9c:	0000b306 	br	3040f6c <waveplay_execute+0x320>
    }
    
    //
    *bEOF = FALSE;
 3040ca0:	e0bffb17 	ldw	r2,-20(fp)
 3040ca4:	10000015 	stw	zero,0(r2)
    while (!bDataReady && bSuccess){
 3040ca8:	00003b06 	br	3040d98 <waveplay_execute+0x14c>
        if (gWavePlay.uWavePlayPos < gWavePlay.uWaveReadPos){
 3040cac:	0080c1b4 	movhi	r2,774
 3040cb0:	10825004 	addi	r2,r2,2368
 3040cb4:	10c08317 	ldw	r3,524(r2)
 3040cb8:	0080c1b4 	movhi	r2,774
 3040cbc:	10825004 	addi	r2,r2,2368
 3040cc0:	10808217 	ldw	r2,520(r2)
 3040cc4:	1880032e 	bgeu	r3,r2,3040cd4 <waveplay_execute+0x88>
            bDataReady = TRUE;
 3040cc8:	00800044 	movi	r2,1
 3040ccc:	e0bff915 	stw	r2,-28(fp)
 3040cd0:	00003106 	br	3040d98 <waveplay_execute+0x14c>
            //DEBUG_PRINTF("it is not neccessary to read data from sd-card\r\n");
        }else{
            int read_size = WAVE_BUF_SIZE;
 3040cd4:	00808004 	movi	r2,512
 3040cd8:	e0bff815 	stw	r2,-32(fp)
            if (read_size > (gWavePlay.uWaveMaxPlayPos - gWavePlay.uWavePlayPos))
 3040cdc:	e13ff817 	ldw	r4,-32(fp)
 3040ce0:	0080c1b4 	movhi	r2,774
 3040ce4:	10825004 	addi	r2,r2,2368
 3040ce8:	10c08417 	ldw	r3,528(r2)
 3040cec:	0080c1b4 	movhi	r2,774
 3040cf0:	10825004 	addi	r2,r2,2368
 3040cf4:	10808317 	ldw	r2,524(r2)
 3040cf8:	1885c83a 	sub	r2,r3,r2
 3040cfc:	1100082e 	bgeu	r2,r4,3040d20 <waveplay_execute+0xd4>
                read_size = gWavePlay.uWaveMaxPlayPos - gWavePlay.uWavePlayPos;
 3040d00:	0080c1b4 	movhi	r2,774
 3040d04:	10825004 	addi	r2,r2,2368
 3040d08:	10c08417 	ldw	r3,528(r2)
 3040d0c:	0080c1b4 	movhi	r2,774
 3040d10:	10825004 	addi	r2,r2,2368
 3040d14:	10808317 	ldw	r2,524(r2)
 3040d18:	1885c83a 	sub	r2,r3,r2
 3040d1c:	e0bff815 	stw	r2,-32(fp)
            bSuccess = Fat_FileRead(gWavePlay.hFile, gWavePlay.szBuf, read_size);
 3040d20:	0080c1b4 	movhi	r2,774
 3040d24:	10825004 	addi	r2,r2,2368
 3040d28:	11000017 	ldw	r4,0(r2)
 3040d2c:	0140c1b4 	movhi	r5,774
 3040d30:	29425104 	addi	r5,r5,2372
 3040d34:	e1bff817 	ldw	r6,-32(fp)
 3040d38:	30428280 	call	3042828 <Fat_FileRead>
 3040d3c:	e0bffa15 	stw	r2,-24(fp)
            if (bSuccess)
 3040d40:	e0bffa17 	ldw	r2,-24(fp)
 3040d44:	1005003a 	cmpeq	r2,r2,zero
 3040d48:	1000091e 	bne	r2,zero,3040d70 <waveplay_execute+0x124>
                gWavePlay.uWaveReadPos += read_size;
 3040d4c:	0080c1b4 	movhi	r2,774
 3040d50:	10825004 	addi	r2,r2,2368
 3040d54:	10c08217 	ldw	r3,520(r2)
 3040d58:	e0bff817 	ldw	r2,-32(fp)
 3040d5c:	1887883a 	add	r3,r3,r2
 3040d60:	0080c1b4 	movhi	r2,774
 3040d64:	10825004 	addi	r2,r2,2368
 3040d68:	10c08215 	stw	r3,520(r2)
 3040d6c:	00000a06 	br	3040d98 <waveplay_execute+0x14c>
            else    
                DEMO_PRINTF("[APP]sdcard read fail, read_pos:%ld, read_size:%d, max_play_pos:%ld !\r\n", gWavePlay.uWaveReadPos, read_size, gWavePlay.uWaveMaxPlayPos);
 3040d70:	0080c1b4 	movhi	r2,774
 3040d74:	10825004 	addi	r2,r2,2368
 3040d78:	11408217 	ldw	r5,520(r2)
 3040d7c:	0080c1b4 	movhi	r2,774
 3040d80:	10825004 	addi	r2,r2,2368
 3040d84:	11c08417 	ldw	r7,528(r2)
 3040d88:	0100c1b4 	movhi	r4,774
 3040d8c:	212b8104 	addi	r4,r4,-20988
 3040d90:	e1bff817 	ldw	r6,-32(fp)
 3040d94:	304bc300 	call	304bc30 <printf>
        return TRUE;
    }
    
    //
    *bEOF = FALSE;
    while (!bDataReady && bSuccess){
 3040d98:	e0bff917 	ldw	r2,-28(fp)
 3040d9c:	1004c03a 	cmpne	r2,r2,zero
 3040da0:	1000031e 	bne	r2,zero,3040db0 <waveplay_execute+0x164>
 3040da4:	e0bffa17 	ldw	r2,-24(fp)
 3040da8:	1004c03a 	cmpne	r2,r2,zero
 3040dac:	103fbf1e 	bne	r2,zero,3040cac <waveplay_execute+0x60>
                DEMO_PRINTF("[APP]sdcard read fail, read_pos:%ld, read_size:%d, max_play_pos:%ld !\r\n", gWavePlay.uWaveReadPos, read_size, gWavePlay.uWaveMaxPlayPos);
        }    
    } // while
    
    //
    if (bDataReady && bSuccess){
 3040db0:	e0bff917 	ldw	r2,-28(fp)
 3040db4:	1005003a 	cmpeq	r2,r2,zero
 3040db8:	10006a1e 	bne	r2,zero,3040f64 <waveplay_execute+0x318>
 3040dbc:	e0bffa17 	ldw	r2,-24(fp)
 3040dc0:	1005003a 	cmpeq	r2,r2,zero
 3040dc4:	1000671e 	bne	r2,zero,3040f64 <waveplay_execute+0x318>
#ifdef DISPLAY_WAVE_POWER
        alt_u32 power_sum = 0, power;
 3040dc8:	e03ff715 	stw	zero,-36(fp)
#endif        
        int play_size; 
        short *pSample = (short *)(gWavePlay.szBuf + gWavePlay.uWavePlayPos%WAVE_BUF_SIZE);
 3040dcc:	0080c1b4 	movhi	r2,774
 3040dd0:	10825004 	addi	r2,r2,2368
 3040dd4:	10808317 	ldw	r2,524(r2)
 3040dd8:	10807fcc 	andi	r2,r2,511
 3040ddc:	1007883a 	mov	r3,r2
 3040de0:	0080c1b4 	movhi	r2,774
 3040de4:	10825104 	addi	r2,r2,2372
 3040de8:	1885883a 	add	r2,r3,r2
 3040dec:	e0bff415 	stw	r2,-48(fp)
        int i = 0;
 3040df0:	e03ff315 	stw	zero,-52(fp)
        play_size = gWavePlay.uWaveReadPos - gWavePlay.uWavePlayPos;
 3040df4:	0080c1b4 	movhi	r2,774
 3040df8:	10825004 	addi	r2,r2,2368
 3040dfc:	10c08217 	ldw	r3,520(r2)
 3040e00:	0080c1b4 	movhi	r2,774
 3040e04:	10825004 	addi	r2,r2,2368
 3040e08:	10808317 	ldw	r2,524(r2)
 3040e0c:	1885c83a 	sub	r2,r3,r2
 3040e10:	e0bff515 	stw	r2,-44(fp)
        play_size = play_size/4*4;
 3040e14:	e0bff517 	ldw	r2,-44(fp)
 3040e18:	e0bfff15 	stw	r2,-4(fp)
 3040e1c:	e0ffff17 	ldw	r3,-4(fp)
 3040e20:	1804403a 	cmpge	r2,r3,zero
 3040e24:	1000031e 	bne	r2,zero,3040e34 <waveplay_execute+0x1e8>
 3040e28:	e13fff17 	ldw	r4,-4(fp)
 3040e2c:	210000c4 	addi	r4,r4,3
 3040e30:	e13fff15 	stw	r4,-4(fp)
 3040e34:	e0ffff17 	ldw	r3,-4(fp)
 3040e38:	1805d0ba 	srai	r2,r3,2
 3040e3c:	1085883a 	add	r2,r2,r2
 3040e40:	1085883a 	add	r2,r2,r2
 3040e44:	e0bff515 	stw	r2,-44(fp)
        while(i < play_size){
 3040e48:	00003b06 	br	3040f38 <waveplay_execute+0x2ec>
            if(AUDIO_DacFifoNotFull()){ // if audio ready (not full)
 3040e4c:	30454e80 	call	30454e8 <AUDIO_DacFifoNotFull>
 3040e50:	1005003a 	cmpeq	r2,r2,zero
 3040e54:	1000381e 	bne	r2,zero,3040f38 <waveplay_execute+0x2ec>
                short ch_right, ch_left;
                ch_left = *pSample++;
 3040e58:	e0bff417 	ldw	r2,-48(fp)
 3040e5c:	1080000b 	ldhu	r2,0(r2)
 3040e60:	e0bff20d 	sth	r2,-56(fp)
 3040e64:	e0bff417 	ldw	r2,-48(fp)
 3040e68:	10800084 	addi	r2,r2,2
 3040e6c:	e0bff415 	stw	r2,-48(fp)
                ch_right = *pSample++;
 3040e70:	e0bff417 	ldw	r2,-48(fp)
 3040e74:	1080000b 	ldhu	r2,0(r2)
 3040e78:	e0bff28d 	sth	r2,-54(fp)
 3040e7c:	e0bff417 	ldw	r2,-48(fp)
 3040e80:	10800084 	addi	r2,r2,2
 3040e84:	e0bff415 	stw	r2,-48(fp)
                
#ifdef DISPLAY_WAVE_POWER  // indicate power by avg 64 sample
                power = abs(ch_left) + abs(ch_right);
 3040e88:	e0bff20f 	ldh	r2,-56(fp)
 3040e8c:	e0bffd15 	stw	r2,-12(fp)
 3040e90:	e13ffd17 	ldw	r4,-12(fp)
 3040e94:	2004403a 	cmpge	r2,r4,zero
 3040e98:	1000031e 	bne	r2,zero,3040ea8 <waveplay_execute+0x25c>
 3040e9c:	e0bffd17 	ldw	r2,-12(fp)
 3040ea0:	0085c83a 	sub	r2,zero,r2
 3040ea4:	e0bffd15 	stw	r2,-12(fp)
 3040ea8:	e0bff28f 	ldh	r2,-54(fp)
 3040eac:	e0bffc15 	stw	r2,-16(fp)
 3040eb0:	e0fffc17 	ldw	r3,-16(fp)
 3040eb4:	1804403a 	cmpge	r2,r3,zero
 3040eb8:	1000031e 	bne	r2,zero,3040ec8 <waveplay_execute+0x27c>
 3040ebc:	e13ffc17 	ldw	r4,-16(fp)
 3040ec0:	0109c83a 	sub	r4,zero,r4
 3040ec4:	e13ffc15 	stw	r4,-16(fp)
 3040ec8:	e0fffd17 	ldw	r3,-12(fp)
 3040ecc:	e13ffc17 	ldw	r4,-16(fp)
 3040ed0:	1905883a 	add	r2,r3,r4
 3040ed4:	e0bff615 	stw	r2,-40(fp)
                power_sum += power;     
 3040ed8:	e0fff717 	ldw	r3,-36(fp)
 3040edc:	e0bff617 	ldw	r2,-40(fp)
 3040ee0:	1885883a 	add	r2,r3,r2
 3040ee4:	e0bff715 	stw	r2,-36(fp)
                if ((i & 0x01F) == 0 && i != 0){
 3040ee8:	e0bff317 	ldw	r2,-52(fp)
 3040eec:	108007cc 	andi	r2,r2,31
 3040ef0:	1004c03a 	cmpne	r2,r2,zero
 3040ef4:	10000a1e 	bne	r2,zero,3040f20 <waveplay_execute+0x2d4>
 3040ef8:	e0bff317 	ldw	r2,-52(fp)
 3040efc:	1005003a 	cmpeq	r2,r2,zero
 3040f00:	1000071e 	bne	r2,zero,3040f20 <waveplay_execute+0x2d4>
                    power = power_sum >> (6+7);  // 6: divide 64,  7: power scale
 3040f04:	e0bff717 	ldw	r2,-36(fp)
 3040f08:	1004d37a 	srli	r2,r2,13
 3040f0c:	e0bff615 	stw	r2,-40(fp)
                    led_display_count(power); 
 3040f10:	e0bff617 	ldw	r2,-40(fp)
 3040f14:	11003fcc 	andi	r4,r2,255
 3040f18:	30404800 	call	3040480 <led_display_count>
                    power_sum = 0;
 3040f1c:	e03ff715 	stw	zero,-36(fp)
                }                        
#endif                

                AUDIO_DacFifoSetData(ch_left, ch_right); // play wave
 3040f20:	e13ff20f 	ldh	r4,-56(fp)
 3040f24:	e17ff28f 	ldh	r5,-54(fp)
 3040f28:	304553c0 	call	304553c <AUDIO_DacFifoSetData>
                i+=4;
 3040f2c:	e0bff317 	ldw	r2,-52(fp)
 3040f30:	10800104 	addi	r2,r2,4
 3040f34:	e0bff315 	stw	r2,-52(fp)
        int play_size; 
        short *pSample = (short *)(gWavePlay.szBuf + gWavePlay.uWavePlayPos%WAVE_BUF_SIZE);
        int i = 0;
        play_size = gWavePlay.uWaveReadPos - gWavePlay.uWavePlayPos;
        play_size = play_size/4*4;
        while(i < play_size){
 3040f38:	e0fff317 	ldw	r3,-52(fp)
 3040f3c:	e0bff517 	ldw	r2,-44(fp)
 3040f40:	18bfc216 	blt	r3,r2,3040e4c <waveplay_execute+0x200>

                AUDIO_DacFifoSetData(ch_left, ch_right); // play wave
                i+=4;
            }
        } // while
        gWavePlay.uWavePlayPos += play_size;
 3040f44:	0080c1b4 	movhi	r2,774
 3040f48:	10825004 	addi	r2,r2,2368
 3040f4c:	10c08317 	ldw	r3,524(r2)
 3040f50:	e0bff517 	ldw	r2,-44(fp)
 3040f54:	1887883a 	add	r3,r3,r2
 3040f58:	0080c1b4 	movhi	r2,774
 3040f5c:	10825004 	addi	r2,r2,2368
 3040f60:	10c08315 	stw	r3,524(r2)
                    
    } //
    
    return bSuccess;
 3040f64:	e0bffa17 	ldw	r2,-24(fp)
 3040f68:	e0bffe15 	stw	r2,-8(fp)
 3040f6c:	e0bffe17 	ldw	r2,-8(fp)
}
 3040f70:	e037883a 	mov	sp,fp
 3040f74:	dfc00117 	ldw	ra,4(sp)
 3040f78:	df000017 	ldw	fp,0(sp)
 3040f7c:	dec00204 	addi	sp,sp,8
 3040f80:	f800283a 	ret

03040f84 <waveplay_stop>:

void waveplay_stop(void){
 3040f84:	deffff04 	addi	sp,sp,-4
 3040f88:	df000015 	stw	fp,0(sp)
 3040f8c:	d839883a 	mov	fp,sp
    /*if (gWavePlay.hFile.IsOpened){
        Fat_FileClose(&gWavePlay.hFile);
    }*/
}
 3040f90:	e037883a 	mov	sp,fp
 3040f94:	df000017 	ldw	fp,0(sp)
 3040f98:	dec00104 	addi	sp,sp,4
 3040f9c:	f800283a 	ret

03040fa0 <handle_key>:

/////////////////////////////////////////////////////////////////
/////////// Routing for button handle ///////////////////////////
/////////////////////////////////////////////////////////////////
// return true if next-song 
void handle_key(bool *pNexSongPressed){
 3040fa0:	defff704 	addi	sp,sp,-36
 3040fa4:	dfc00815 	stw	ra,32(sp)
 3040fa8:	df000715 	stw	fp,28(sp)
 3040fac:	df000704 	addi	fp,sp,28
 3040fb0:	e13fff15 	stw	r4,-4(fp)
    int nHwVol;


#ifdef SUPPORT_PLAY_MODE
    bool bRepeat;
    bRepeat = (IORD_ALTERA_AVALON_PIO_DATA(SW_BASE) & 0x01)?TRUE:FALSE;
 3040fb4:	00804034 	movhi	r2,256
 3040fb8:	10801c04 	addi	r2,r2,112
 3040fbc:	10800037 	ldwio	r2,0(r2)
 3040fc0:	1080004c 	andi	r2,r2,1
 3040fc4:	e0bff915 	stw	r2,-28(fp)
    if (bRepeat ^ gWavePlay.bRepeatMode){
 3040fc8:	0080c1b4 	movhi	r2,774
 3040fcc:	10825004 	addi	r2,r2,2368
 3040fd0:	10c08e17 	ldw	r3,568(r2)
 3040fd4:	e0bff917 	ldw	r2,-28(fp)
 3040fd8:	18800526 	beq	r3,r2,3040ff0 <handle_key+0x50>
        gWavePlay.bRepeatMode = bRepeat;
 3040fdc:	00c0c1b4 	movhi	r3,774
 3040fe0:	18c25004 	addi	r3,r3,2368
 3040fe4:	e0bff917 	ldw	r2,-28(fp)
 3040fe8:	18808e15 	stw	r2,568(r3)
        update_status();
 3040fec:	30403040 	call	3040304 <update_status>
    }                    
#endif        
        

    *pNexSongPressed = FALSE;
 3040ff0:	e0bfff17 	ldw	r2,-4(fp)
 3040ff4:	10000015 	stw	zero,0(r2)
        return;
    }
    next_active_time = alt_nticks();
#endif   
    
    button = IORD_ALTERA_AVALON_PIO_DATA(KEY_BASE);
 3040ff8:	00804034 	movhi	r2,256
 3040ffc:	10801804 	addi	r2,r2,96
 3041000:	10800037 	ldwio	r2,0(r2)
 3041004:	e0bffe05 	stb	r2,-8(fp)
    button = IORD_ALTERA_AVALON_PIO_EDGE_CAP(KEY_BASE);
 3041008:	00804034 	movhi	r2,256
 304100c:	10801b04 	addi	r2,r2,108
 3041010:	10800037 	ldwio	r2,0(r2)
 3041014:	e0bffe05 	stb	r2,-8(fp)
    IOWR_ALTERA_AVALON_PIO_EDGE_CAP(KEY_BASE, 0); // clear flag 
 3041018:	00804034 	movhi	r2,256
 304101c:	10801b04 	addi	r2,r2,108
 3041020:	10000035 	stwio	zero,0(r2)
    bNextSong = (button & 0x08)?TRUE:FALSE;
 3041024:	e0bffe03 	ldbu	r2,-8(fp)
 3041028:	1080020c 	andi	r2,r2,8
 304102c:	1004c03a 	cmpne	r2,r2,zero
 3041030:	e0bffd15 	stw	r2,-12(fp)
    bVolUp = (button & 0x04)?TRUE:FALSE;
 3041034:	e0bffe03 	ldbu	r2,-8(fp)
 3041038:	1080010c 	andi	r2,r2,4
 304103c:	1004c03a 	cmpne	r2,r2,zero
 3041040:	e0bffc15 	stw	r2,-16(fp)
    bVolDown = (button & 0x02)?TRUE:FALSE;
 3041044:	e0bffe03 	ldbu	r2,-8(fp)
 3041048:	1080008c 	andi	r2,r2,2
 304104c:	1004c03a 	cmpne	r2,r2,zero
 3041050:	e0bffb15 	stw	r2,-20(fp)
    
    
    
    // adjust volument    
    if ((bVolUp || bVolDown || bFirsTime2SetupVol) && !bMuteSwitch){
 3041054:	e0bffc17 	ldw	r2,-16(fp)
 3041058:	1004c03a 	cmpne	r2,r2,zero
 304105c:	1000061e 	bne	r2,zero,3041078 <handle_key+0xd8>
 3041060:	e0bffb17 	ldw	r2,-20(fp)
 3041064:	1004c03a 	cmpne	r2,r2,zero
 3041068:	1000031e 	bne	r2,zero,3041078 <handle_key+0xd8>
 304106c:	d0a00117 	ldw	r2,-32764(gp)
 3041070:	1005003a 	cmpeq	r2,r2,zero
 3041074:	10003a1e 	bne	r2,zero,3041160 <handle_key+0x1c0>
 3041078:	d0a76b17 	ldw	r2,-25172(gp)
 304107c:	1004c03a 	cmpne	r2,r2,zero
 3041080:	1000371e 	bne	r2,zero,3041160 <handle_key+0x1c0>
        nHwVol = gWavePlay.nVolume;    
 3041084:	0080c1b4 	movhi	r2,774
 3041088:	10825004 	addi	r2,r2,2368
 304108c:	10808d03 	ldbu	r2,564(r2)
 3041090:	10803fcc 	andi	r2,r2,255
 3041094:	e0bffa15 	stw	r2,-24(fp)
        if (bFirsTime2SetupVol){
 3041098:	d0a00117 	ldw	r2,-32764(gp)
 304109c:	1005003a 	cmpeq	r2,r2,zero
 30410a0:	1000081e 	bne	r2,zero,30410c4 <handle_key+0x124>
            bFirsTime2SetupVol = FALSE;
 30410a4:	d0200115 	stw	zero,-32764(gp)
            DEMO_PRINTF("current volume %d(%d-%d)\r\n", nHwVol, HW_MIN_VOL, HW_MAX_VOL);
 30410a8:	0100c1b4 	movhi	r4,774
 30410ac:	212b9304 	addi	r4,r4,-20916
 30410b0:	e17ffa17 	ldw	r5,-24(fp)
 30410b4:	01800bc4 	movi	r6,47
 30410b8:	01c01fc4 	movi	r7,127
 30410bc:	304bc300 	call	304bc30 <printf>
 30410c0:	00001c06 	br	3041134 <handle_key+0x194>
        }else if (bVolUp){
 30410c4:	e0bffc17 	ldw	r2,-16(fp)
 30410c8:	1005003a 	cmpeq	r2,r2,zero
 30410cc:	10000d1e 	bne	r2,zero,3041104 <handle_key+0x164>
            if (nHwVol < HW_MAX_VOL) 
 30410d0:	e0bffa17 	ldw	r2,-24(fp)
 30410d4:	10801fc8 	cmpgei	r2,r2,127
 30410d8:	1000031e 	bne	r2,zero,30410e8 <handle_key+0x148>
                nHwVol++;
 30410dc:	e0bffa17 	ldw	r2,-24(fp)
 30410e0:	10800044 	addi	r2,r2,1
 30410e4:	e0bffa15 	stw	r2,-24(fp)
            DEMO_PRINTF("volume up %d(%d-%d)\r\n", nHwVol, HW_MIN_VOL, HW_MAX_VOL);
 30410e8:	0100c1b4 	movhi	r4,774
 30410ec:	212b9a04 	addi	r4,r4,-20888
 30410f0:	e17ffa17 	ldw	r5,-24(fp)
 30410f4:	01800bc4 	movi	r6,47
 30410f8:	01c01fc4 	movi	r7,127
 30410fc:	304bc300 	call	304bc30 <printf>
 3041100:	00000c06 	br	3041134 <handle_key+0x194>
        }else{
            if (nHwVol > HW_MIN_VOL)
 3041104:	e0bffa17 	ldw	r2,-24(fp)
 3041108:	10800c10 	cmplti	r2,r2,48
 304110c:	1000031e 	bne	r2,zero,304111c <handle_key+0x17c>
                nHwVol--;
 3041110:	e0bffa17 	ldw	r2,-24(fp)
 3041114:	10bfffc4 	addi	r2,r2,-1
 3041118:	e0bffa15 	stw	r2,-24(fp)
            DEMO_PRINTF("volume down %d(%d-%d)\r\n", nHwVol, HW_MIN_VOL, HW_MAX_VOL);
 304111c:	0100c1b4 	movhi	r4,774
 3041120:	212ba004 	addi	r4,r4,-20864
 3041124:	e17ffa17 	ldw	r5,-24(fp)
 3041128:	01800bc4 	movi	r6,47
 304112c:	01c01fc4 	movi	r7,127
 3041130:	304bc300 	call	304bc30 <printf>
        }                    
        AUDIO_SetLineOutVol(nHwVol, nHwVol); 
 3041134:	e0bffa17 	ldw	r2,-24(fp)
 3041138:	113fffcc 	andi	r4,r2,65535
 304113c:	e0bffa17 	ldw	r2,-24(fp)
 3041140:	117fffcc 	andi	r5,r2,65535
 3041144:	30451b80 	call	30451b8 <AUDIO_SetLineOutVol>
        gWavePlay.nVolume = nHwVol;
 3041148:	e0bffa17 	ldw	r2,-24(fp)
 304114c:	1007883a 	mov	r3,r2
 3041150:	0080c1b4 	movhi	r2,774
 3041154:	10825004 	addi	r2,r2,2368
 3041158:	10c08d05 	stb	r3,564(r2)
        update_status();
 304115c:	30403040 	call	3040304 <update_status>
    }
 
    
    if (bNextSong){
 3041160:	e0bffd17 	ldw	r2,-12(fp)
 3041164:	1005003a 	cmpeq	r2,r2,zero
 3041168:	1000061e 	bne	r2,zero,3041184 <handle_key+0x1e4>
        *pNexSongPressed = TRUE;
 304116c:	e0ffff17 	ldw	r3,-4(fp)
 3041170:	00800044 	movi	r2,1
 3041174:	18800015 	stw	r2,0(r3)
        DEMO_PRINTF("Play Next Song\r\n");
 3041178:	0100c1b4 	movhi	r4,774
 304117c:	212ba604 	addi	r4,r4,-20840
 3041180:	304bd6c0 	call	304bd6c <puts>
    if (bNextSong || bVolUp || bVolDown){
        next_active_time +=  alt_ticks_per_second()/5;  // debounce
    }        
#endif    
    
}
 3041184:	e037883a 	mov	sp,fp
 3041188:	dfc00117 	ldw	ra,4(sp)
 304118c:	df000017 	ldw	fp,0(sp)
 3041190:	dec00204 	addi	sp,sp,8
 3041194:	f800283a 	ret

03041198 <IRDA_init>:
/////////// Routing for IrDA handle /////////////////////////////
/////////////////////////////////////////////////////////////////

//IRDA  initial
void IRDA_init()
{
 3041198:	defffd04 	addi	sp,sp,-12
 304119c:	dfc00215 	stw	ra,8(sp)
 30411a0:	df000115 	stw	fp,4(sp)
 30411a4:	df000104 	addi	fp,sp,4
    alt_irq_register(TERASIC_IRDA_0_IRQ,0,handle_IrDA);            //irda irq register
 30411a8:	010001c4 	movi	r4,7
 30411ac:	000b883a 	mov	r5,zero
 30411b0:	0180c134 	movhi	r6,772
 30411b4:	31847b04 	addi	r6,r6,4588
 30411b8:	3053fb40 	call	3053fb4 <alt_irq_register>
 30411bc:	008001c4 	movi	r2,7
 30411c0:	e0bfff15 	stw	r2,-4(fp)
  status &= ~NIOS2_STATUS_PIE_MSK;
  status |= (context & NIOS2_STATUS_PIE_MSK);
  
  NIOS2_WRITE_STATUS (status);
#else
  NIOS2_WRITE_STATUS (context);
 30411c4:	e0bfff17 	ldw	r2,-4(fp)
 30411c8:	1001703a 	wrctl	status,r2
    alt_irq_enable_all(TERASIC_IRDA_0_IRQ);
    IOWR(TERASIC_IRDA_0_BASE,0,0);
 30411cc:	0080c234 	movhi	r2,776
 30411d0:	10841e04 	addi	r2,r2,4216
 30411d4:	10000035 	stwio	zero,0(r2)
}
 30411d8:	e037883a 	mov	sp,fp
 30411dc:	dfc00117 	ldw	ra,4(sp)
 30411e0:	df000017 	ldw	fp,0(sp)
 30411e4:	dec00204 	addi	sp,sp,8
 30411e8:	f800283a 	ret

030411ec <handle_IrDA>:

// return true if next-song
void handle_IrDA(bool * p,alt_u32 id){
 30411ec:	defff304 	addi	sp,sp,-52
 30411f0:	dfc00c15 	stw	ra,48(sp)
 30411f4:	df000b15 	stw	fp,44(sp)
 30411f8:	df000b04 	addi	fp,sp,44
 30411fc:	e13ffe15 	stw	r4,-8(fp)
 3041200:	e17fff15 	stw	r5,-4(fp)
    int nHwVol;


#ifdef SUPPORT_PLAY_MODE
    bool bRepeat;
    bRepeat = (IORD_ALTERA_AVALON_PIO_DATA(SW_BASE) & 0x01)?TRUE:FALSE;
 3041204:	00804034 	movhi	r2,256
 3041208:	10801c04 	addi	r2,r2,112
 304120c:	10800037 	ldwio	r2,0(r2)
 3041210:	1080004c 	andi	r2,r2,1
 3041214:	e0bff515 	stw	r2,-44(fp)
    if (bRepeat ^ gWavePlay.bRepeatMode){
 3041218:	0080c1b4 	movhi	r2,774
 304121c:	10825004 	addi	r2,r2,2368
 3041220:	10c08e17 	ldw	r3,568(r2)
 3041224:	e0bff517 	ldw	r2,-44(fp)
 3041228:	18800526 	beq	r3,r2,3041240 <handle_IrDA+0x54>
        gWavePlay.bRepeatMode = bRepeat;
 304122c:	00c0c1b4 	movhi	r3,774
 3041230:	18c25004 	addi	r3,r3,2368
 3041234:	e0bff517 	ldw	r2,-44(fp)
 3041238:	18808e15 	stw	r2,568(r3)
        update_status();
 304123c:	30403040 	call	3040304 <update_status>
        return;
    }
    next_active_time = alt_nticks();
#endif   
   
    button = IORD(TERASIC_IRDA_0_BASE,0);
 3041240:	0080c234 	movhi	r2,776
 3041244:	10841e04 	addi	r2,r2,4216
 3041248:	10800037 	ldwio	r2,0(r2)
 304124c:	e0bffd15 	stw	r2,-12(fp)
    button <<= 8;
 3041250:	e0bffd17 	ldw	r2,-12(fp)
 3041254:	1004923a 	slli	r2,r2,8
 3041258:	e0bffd15 	stw	r2,-12(fp)
    button >>= 24;
 304125c:	e0bffd17 	ldw	r2,-12(fp)
 3041260:	1004d63a 	srli	r2,r2,24
 3041264:	e0bffd15 	stw	r2,-12(fp)
    IOWR_ALTERA_AVALON_PIO_EDGE_CAP(TERASIC_IRDA_0_BASE, 0); // clear flag 
 3041268:	0080c234 	movhi	r2,776
 304126c:	10842104 	addi	r2,r2,4228
 3041270:	10000035 	stwio	zero,0(r2)
    
    IOWR(TERASIC_IRDA_0_BASE,0,0);
 3041274:	0080c234 	movhi	r2,776
 3041278:	10841e04 	addi	r2,r2,4216
 304127c:	10000035 	stwio	zero,0(r2)
    bLastSong = (button == 0x1a) ? TRUE : FALSE;
 3041280:	e0bffd17 	ldw	r2,-12(fp)
 3041284:	108006a0 	cmpeqi	r2,r2,26
 3041288:	e0bffc15 	stw	r2,-16(fp)
    bNextSong = (button == 0x1e) ? TRUE : FALSE;
 304128c:	e0bffd17 	ldw	r2,-12(fp)
 3041290:	108007a0 	cmpeqi	r2,r2,30
 3041294:	e0bffb15 	stw	r2,-20(fp)
    bVolUp    = (button == 0x1b) ? TRUE : FALSE;
 3041298:	e0bffd17 	ldw	r2,-12(fp)
 304129c:	108006e0 	cmpeqi	r2,r2,27
 30412a0:	e0bffa15 	stw	r2,-24(fp)
    bVolDown  = (button == 0x1f) ? TRUE : FALSE;
 30412a4:	e0bffd17 	ldw	r2,-12(fp)
 30412a8:	108007e0 	cmpeqi	r2,r2,31
 30412ac:	e0bff915 	stw	r2,-28(fp)
    bMute     = (button == 0x0c) ? TRUE : FALSE;
 30412b0:	e0bffd17 	ldw	r2,-12(fp)
 30412b4:	10800320 	cmpeqi	r2,r2,12
 30412b8:	e0bff815 	stw	r2,-32(fp)
    bPlay     = (button == 0x16) ? TRUE : FALSE;
 30412bc:	e0bffd17 	ldw	r2,-12(fp)
 30412c0:	108005a0 	cmpeqi	r2,r2,22
 30412c4:	e0bff715 	stw	r2,-36(fp)
   
    
    // adjust volument    
    if ((bVolUp || bVolDown || bFirsTime2SetupVol) && !bMuteSwitch){
 30412c8:	e0bffa17 	ldw	r2,-24(fp)
 30412cc:	1004c03a 	cmpne	r2,r2,zero
 30412d0:	1000061e 	bne	r2,zero,30412ec <handle_IrDA+0x100>
 30412d4:	e0bff917 	ldw	r2,-28(fp)
 30412d8:	1004c03a 	cmpne	r2,r2,zero
 30412dc:	1000031e 	bne	r2,zero,30412ec <handle_IrDA+0x100>
 30412e0:	d0a00217 	ldw	r2,-32760(gp)
 30412e4:	1005003a 	cmpeq	r2,r2,zero
 30412e8:	10003a1e 	bne	r2,zero,30413d4 <handle_IrDA+0x1e8>
 30412ec:	d0a76b17 	ldw	r2,-25172(gp)
 30412f0:	1004c03a 	cmpne	r2,r2,zero
 30412f4:	1000371e 	bne	r2,zero,30413d4 <handle_IrDA+0x1e8>
        nHwVol = gWavePlay.nVolume;    
 30412f8:	0080c1b4 	movhi	r2,774
 30412fc:	10825004 	addi	r2,r2,2368
 3041300:	10808d03 	ldbu	r2,564(r2)
 3041304:	10803fcc 	andi	r2,r2,255
 3041308:	e0bff615 	stw	r2,-40(fp)
        if (bFirsTime2SetupVol){
 304130c:	d0a00217 	ldw	r2,-32760(gp)
 3041310:	1005003a 	cmpeq	r2,r2,zero
 3041314:	1000081e 	bne	r2,zero,3041338 <handle_IrDA+0x14c>
            bFirsTime2SetupVol = FALSE;
 3041318:	d0200215 	stw	zero,-32760(gp)
            DEMO_PRINTF("current volume %d(%d-%d)\r\n", nHwVol, HW_MIN_VOL, HW_MAX_VOL);
 304131c:	0100c1b4 	movhi	r4,774
 3041320:	212b9304 	addi	r4,r4,-20916
 3041324:	e17ff617 	ldw	r5,-40(fp)
 3041328:	01800bc4 	movi	r6,47
 304132c:	01c01fc4 	movi	r7,127
 3041330:	304bc300 	call	304bc30 <printf>
 3041334:	00001c06 	br	30413a8 <handle_IrDA+0x1bc>
        }else if (bVolUp){
 3041338:	e0bffa17 	ldw	r2,-24(fp)
 304133c:	1005003a 	cmpeq	r2,r2,zero
 3041340:	10000d1e 	bne	r2,zero,3041378 <handle_IrDA+0x18c>
            if (nHwVol < HW_MAX_VOL) 
 3041344:	e0bff617 	ldw	r2,-40(fp)
 3041348:	10801fc8 	cmpgei	r2,r2,127
 304134c:	1000031e 	bne	r2,zero,304135c <handle_IrDA+0x170>
                nHwVol++;
 3041350:	e0bff617 	ldw	r2,-40(fp)
 3041354:	10800044 	addi	r2,r2,1
 3041358:	e0bff615 	stw	r2,-40(fp)
            DEMO_PRINTF("volume up %d(%d-%d)\r\n", nHwVol, HW_MIN_VOL, HW_MAX_VOL);
 304135c:	0100c1b4 	movhi	r4,774
 3041360:	212b9a04 	addi	r4,r4,-20888
 3041364:	e17ff617 	ldw	r5,-40(fp)
 3041368:	01800bc4 	movi	r6,47
 304136c:	01c01fc4 	movi	r7,127
 3041370:	304bc300 	call	304bc30 <printf>
 3041374:	00000c06 	br	30413a8 <handle_IrDA+0x1bc>
        }else{
            if (nHwVol > HW_MIN_VOL)
 3041378:	e0bff617 	ldw	r2,-40(fp)
 304137c:	10800c10 	cmplti	r2,r2,48
 3041380:	1000031e 	bne	r2,zero,3041390 <handle_IrDA+0x1a4>
                nHwVol--;
 3041384:	e0bff617 	ldw	r2,-40(fp)
 3041388:	10bfffc4 	addi	r2,r2,-1
 304138c:	e0bff615 	stw	r2,-40(fp)
            DEMO_PRINTF("volume down %d(%d-%d)\r\n", nHwVol, HW_MIN_VOL, HW_MAX_VOL);
 3041390:	0100c1b4 	movhi	r4,774
 3041394:	212ba004 	addi	r4,r4,-20864
 3041398:	e17ff617 	ldw	r5,-40(fp)
 304139c:	01800bc4 	movi	r6,47
 30413a0:	01c01fc4 	movi	r7,127
 30413a4:	304bc300 	call	304bc30 <printf>
        }                    
        AUDIO_SetLineOutVol(nHwVol, nHwVol); 
 30413a8:	e0bff617 	ldw	r2,-40(fp)
 30413ac:	113fffcc 	andi	r4,r2,65535
 30413b0:	e0bff617 	ldw	r2,-40(fp)
 30413b4:	117fffcc 	andi	r5,r2,65535
 30413b8:	30451b80 	call	30451b8 <AUDIO_SetLineOutVol>
        gWavePlay.nVolume = nHwVol;
 30413bc:	e0bff617 	ldw	r2,-40(fp)
 30413c0:	1007883a 	mov	r3,r2
 30413c4:	0080c1b4 	movhi	r2,774
 30413c8:	10825004 	addi	r2,r2,2368
 30413cc:	10c08d05 	stb	r3,564(r2)
        update_status();
 30413d0:	30403040 	call	3040304 <update_status>
    }
 
    if (bLastSong){
 30413d4:	e0bffc17 	ldw	r2,-16(fp)
 30413d8:	1005003a 	cmpeq	r2,r2,zero
 30413dc:	1000051e 	bne	r2,zero,30413f4 <handle_IrDA+0x208>
        bLastSwitch = TRUE ;
 30413e0:	00800044 	movi	r2,1
 30413e4:	d0a76915 	stw	r2,-25180(gp)
        DEMO_PRINTF("Play Last Song\r\n");
 30413e8:	0100c1b4 	movhi	r4,774
 30413ec:	212baa04 	addi	r4,r4,-20824
 30413f0:	304bd6c0 	call	304bd6c <puts>
    } 
    if (bNextSong){
 30413f4:	e0bffb17 	ldw	r2,-20(fp)
 30413f8:	1005003a 	cmpeq	r2,r2,zero
 30413fc:	1000051e 	bne	r2,zero,3041414 <handle_IrDA+0x228>
        bNextSwitch = TRUE ;
 3041400:	00800044 	movi	r2,1
 3041404:	d0a76a15 	stw	r2,-25176(gp)
        DEMO_PRINTF("Play Next Song\r\n");
 3041408:	0100c1b4 	movhi	r4,774
 304140c:	212ba604 	addi	r4,r4,-20840
 3041410:	304bd6c0 	call	304bd6c <puts>
    }       
    
    if(bMute){
 3041414:	e0bff817 	ldw	r2,-32(fp)
 3041418:	1005003a 	cmpeq	r2,r2,zero
 304141c:	1000231e 	bne	r2,zero,30414ac <handle_IrDA+0x2c0>
        nHwVol = gWavePlay.nVolume;
 3041420:	0080c1b4 	movhi	r2,774
 3041424:	10825004 	addi	r2,r2,2368
 3041428:	10808d03 	ldbu	r2,564(r2)
 304142c:	10803fcc 	andi	r2,r2,255
 3041430:	e0bff615 	stw	r2,-40(fp)
        if(nHwVol != 47){
 3041434:	e0bff617 	ldw	r2,-40(fp)
 3041438:	10800be0 	cmpeqi	r2,r2,47
 304143c:	10000a1e 	bne	r2,zero,3041468 <handle_IrDA+0x27c>
            nMute_Volume = nHwVol;
 3041440:	e0bff617 	ldw	r2,-40(fp)
 3041444:	d0a76815 	stw	r2,-25184(gp)
            nHwVol = 47;
 3041448:	00800bc4 	movi	r2,47
 304144c:	e0bff615 	stw	r2,-40(fp)
            DEMO_PRINTF("Open Mute...\r\n");
 3041450:	0100c1b4 	movhi	r4,774
 3041454:	212bae04 	addi	r4,r4,-20808
 3041458:	304bd6c0 	call	304bd6c <puts>
            
            bMuteSwitch = TRUE;
 304145c:	00800044 	movi	r2,1
 3041460:	d0a76b15 	stw	r2,-25172(gp)
 3041464:	00000606 	br	3041480 <handle_IrDA+0x294>
        }else{
            nHwVol = nMute_Volume;
 3041468:	d0a76817 	ldw	r2,-25184(gp)
 304146c:	e0bff615 	stw	r2,-40(fp)
            DEMO_PRINTF("Shut Mute...\r\n");
 3041470:	0100c1b4 	movhi	r4,774
 3041474:	212bb204 	addi	r4,r4,-20792
 3041478:	304bd6c0 	call	304bd6c <puts>
            
            bMuteSwitch = FALSE;
 304147c:	d0276b15 	stw	zero,-25172(gp)
        }
        AUDIO_SetLineOutVol(nHwVol, nHwVol);
 3041480:	e0bff617 	ldw	r2,-40(fp)
 3041484:	113fffcc 	andi	r4,r2,65535
 3041488:	e0bff617 	ldw	r2,-40(fp)
 304148c:	117fffcc 	andi	r5,r2,65535
 3041490:	30451b80 	call	30451b8 <AUDIO_SetLineOutVol>
        gWavePlay.nVolume = nHwVol;
 3041494:	e0bff617 	ldw	r2,-40(fp)
 3041498:	1007883a 	mov	r3,r2
 304149c:	0080c1b4 	movhi	r2,774
 30414a0:	10825004 	addi	r2,r2,2368
 30414a4:	10c08d05 	stb	r3,564(r2)
        update_status();
 30414a8:	30403040 	call	3040304 <update_status>
        
    } 
    if(bPlay){
 30414ac:	e0bff717 	ldw	r2,-36(fp)
 30414b0:	1005003a 	cmpeq	r2,r2,zero
 30414b4:	10000f1e 	bne	r2,zero,30414f4 <handle_IrDA+0x308>
        bPlaySwitch = !bPlaySwitch;
 30414b8:	d0a00017 	ldw	r2,-32768(gp)
 30414bc:	1005003a 	cmpeq	r2,r2,zero
 30414c0:	d0a00015 	stw	r2,-32768(gp)
        if(bPlaySwitch)
 30414c4:	d0a00017 	ldw	r2,-32768(gp)
 30414c8:	1005003a 	cmpeq	r2,r2,zero
 30414cc:	1000041e 	bne	r2,zero,30414e0 <handle_IrDA+0x2f4>
           printf("Play Continue...\r\n");
 30414d0:	0100c1b4 	movhi	r4,774
 30414d4:	212bb604 	addi	r4,r4,-20776
 30414d8:	304bd6c0 	call	304bd6c <puts>
 30414dc:	00000306 	br	30414ec <handle_IrDA+0x300>
        else
           printf("Play Pause...\r\n");
 30414e0:	0100c1b4 	movhi	r4,774
 30414e4:	212bbb04 	addi	r4,r4,-20756
 30414e8:	304bd6c0 	call	304bd6c <puts>
        AUDIO_InterfaceActive(bPlaySwitch);
 30414ec:	d1200017 	ldw	r4,-32768(gp)
 30414f0:	3044a640 	call	3044a64 <AUDIO_InterfaceActive>
    if (bLastSong || bNextSong || bVolUp || bVolDown){
        next_active_time +=  alt_ticks_per_second()/5;  // debounce
    }        
#endif    
    
}
 30414f4:	e037883a 	mov	sp,fp
 30414f8:	dfc00117 	ldw	ra,4(sp)
 30414fc:	df000017 	ldw	fp,0(sp)
 3041500:	dec00204 	addi	sp,sp,8
 3041504:	f800283a 	ret

03041508 <Fat_Test>:

bool Fat_Test(FAT_HANDLE hFat, char *pDumpFile){
 3041508:	deff6704 	addi	sp,sp,-612
 304150c:	dfc09815 	stw	ra,608(sp)
 3041510:	df009715 	stw	fp,604(sp)
 3041514:	df009704 	addi	fp,sp,604
 3041518:	e13ffe15 	stw	r4,-8(fp)
 304151c:	e17fff15 	stw	r5,-4(fp)
    bool bSuccess;
    int nCount = 0;
 3041520:	e03f7015 	stw	zero,-576(fp)
    FAT_BROWSE_HANDLE hBrowse;
    FILE_CONTEXT FileContext;
    
    bSuccess = Fat_FileBrowseBegin(hFat, &hBrowse);
 3041524:	e17f7204 	addi	r5,fp,-568
 3041528:	e13ffe17 	ldw	r4,-8(fp)
 304152c:	3041c9c0 	call	3041c9c <Fat_FileBrowseBegin>
 3041530:	e0bf7115 	stw	r2,-572(fp)
    if (bSuccess){
 3041534:	e0bf7117 	ldw	r2,-572(fp)
 3041538:	1005003a 	cmpeq	r2,r2,zero
 304153c:	10003d1e 	bne	r2,zero,3041634 <Fat_Test+0x12c>
        while(Fat_FileBrowseNext(&hBrowse, &FileContext)){
 3041540:	00003706 	br	3041620 <Fat_Test+0x118>
            if (FileContext.bLongFilename){
 3041544:	e0bfb417 	ldw	r2,-304(fp)
 3041548:	1005003a 	cmpeq	r2,r2,zero
 304154c:	10002c1e 	bne	r2,zero,3041600 <Fat_Test+0xf8>
                alt_u16 *pData16;
                alt_u8 *pData8;
                pData16 = (alt_u16 *)FileContext.szName;
 3041550:	e0bf7404 	addi	r2,fp,-560
 3041554:	e0bf6f15 	stw	r2,-580(fp)
                pData8 = FileContext.szName;
 3041558:	e0bf7404 	addi	r2,fp,-560
 304155c:	e0bf6e15 	stw	r2,-584(fp)
                printf("[%d]", nCount);
 3041560:	0100c1b4 	movhi	r4,774
 3041564:	212bbf04 	addi	r4,r4,-20740
 3041568:	e17f7017 	ldw	r5,-576(fp)
 304156c:	304bc300 	call	304bc30 <printf>
                while(*pData16){
 3041570:	00001b06 	br	30415e0 <Fat_Test+0xd8>
                    if (*pData8)
 3041574:	e0bf6e17 	ldw	r2,-584(fp)
 3041578:	10800003 	ldbu	r2,0(r2)
 304157c:	10803fcc 	andi	r2,r2,255
 3041580:	1005003a 	cmpeq	r2,r2,zero
 3041584:	1000041e 	bne	r2,zero,3041598 <Fat_Test+0x90>
                        printf("%c", *pData8);
 3041588:	e0bf6e17 	ldw	r2,-584(fp)
 304158c:	10800003 	ldbu	r2,0(r2)
 3041590:	11003fcc 	andi	r4,r2,255
 3041594:	304bca80 	call	304bca8 <putchar>
                    pData8++;
 3041598:	e0bf6e17 	ldw	r2,-584(fp)
 304159c:	10800044 	addi	r2,r2,1
 30415a0:	e0bf6e15 	stw	r2,-584(fp)
                    if (*pData8)
 30415a4:	e0bf6e17 	ldw	r2,-584(fp)
 30415a8:	10800003 	ldbu	r2,0(r2)
 30415ac:	10803fcc 	andi	r2,r2,255
 30415b0:	1005003a 	cmpeq	r2,r2,zero
 30415b4:	1000041e 	bne	r2,zero,30415c8 <Fat_Test+0xc0>
                        printf("%c", *pData8);
 30415b8:	e0bf6e17 	ldw	r2,-584(fp)
 30415bc:	10800003 	ldbu	r2,0(r2)
 30415c0:	11003fcc 	andi	r4,r2,255
 30415c4:	304bca80 	call	304bca8 <putchar>
                    pData8++;                    
 30415c8:	e0bf6e17 	ldw	r2,-584(fp)
 30415cc:	10800044 	addi	r2,r2,1
 30415d0:	e0bf6e15 	stw	r2,-584(fp)
                    //    
                    pData16++;
 30415d4:	e0bf6f17 	ldw	r2,-580(fp)
 30415d8:	10800084 	addi	r2,r2,2
 30415dc:	e0bf6f15 	stw	r2,-580(fp)
                alt_u16 *pData16;
                alt_u8 *pData8;
                pData16 = (alt_u16 *)FileContext.szName;
                pData8 = FileContext.szName;
                printf("[%d]", nCount);
                while(*pData16){
 30415e0:	e0bf6f17 	ldw	r2,-580(fp)
 30415e4:	1080000b 	ldhu	r2,0(r2)
 30415e8:	10bfffcc 	andi	r2,r2,65535
 30415ec:	1004c03a 	cmpne	r2,r2,zero
 30415f0:	103fe01e 	bne	r2,zero,3041574 <Fat_Test+0x6c>
                        printf("%c", *pData8);
                    pData8++;                    
                    //    
                    pData16++;
                }
                printf("\n");
 30415f4:	01000284 	movi	r4,10
 30415f8:	304bca80 	call	304bca8 <putchar>
 30415fc:	00000506 	br	3041614 <Fat_Test+0x10c>
            }else{
                printf("---[%d]%s\n", nCount, FileContext.szName);
 3041600:	e1bf7404 	addi	r6,fp,-560
 3041604:	0100c1b4 	movhi	r4,774
 3041608:	212bc104 	addi	r4,r4,-20732
 304160c:	e17f7017 	ldw	r5,-576(fp)
 3041610:	304bc300 	call	304bc30 <printf>
            }                
            nCount++;
 3041614:	e0bf7017 	ldw	r2,-576(fp)
 3041618:	10800044 	addi	r2,r2,1
 304161c:	e0bf7015 	stw	r2,-576(fp)
    FAT_BROWSE_HANDLE hBrowse;
    FILE_CONTEXT FileContext;
    
    bSuccess = Fat_FileBrowseBegin(hFat, &hBrowse);
    if (bSuccess){
        while(Fat_FileBrowseNext(&hBrowse, &FileContext)){
 3041620:	e13f7204 	addi	r4,fp,-568
 3041624:	e17f7404 	addi	r5,fp,-560
 3041628:	3041d180 	call	3041d18 <Fat_FileBrowseNext>
 304162c:	1004c03a 	cmpne	r2,r2,zero
 3041630:	103fc41e 	bne	r2,zero,3041544 <Fat_Test+0x3c>
                printf("---[%d]%s\n", nCount, FileContext.szName);
            }                
            nCount++;
        }    
    }
    if (bSuccess && pDumpFile && strlen(pDumpFile)){
 3041634:	e0bf7117 	ldw	r2,-572(fp)
 3041638:	1005003a 	cmpeq	r2,r2,zero
 304163c:	10005d1e 	bne	r2,zero,30417b4 <Fat_Test+0x2ac>
 3041640:	e0bfff17 	ldw	r2,-4(fp)
 3041644:	1005003a 	cmpeq	r2,r2,zero
 3041648:	10005a1e 	bne	r2,zero,30417b4 <Fat_Test+0x2ac>
 304164c:	e0bfff17 	ldw	r2,-4(fp)
 3041650:	10800003 	ldbu	r2,0(r2)
 3041654:	10803fcc 	andi	r2,r2,255
 3041658:	1080201c 	xori	r2,r2,128
 304165c:	10bfe004 	addi	r2,r2,-128
 3041660:	1005003a 	cmpeq	r2,r2,zero
 3041664:	1000531e 	bne	r2,zero,30417b4 <Fat_Test+0x2ac>
        FAT_FILE_HANDLE hFile;
        hFile =  Fat_FileOpen(hFat, pDumpFile);
 3041668:	e13ffe17 	ldw	r4,-8(fp)
 304166c:	e17fff17 	ldw	r5,-4(fp)
 3041670:	30425a00 	call	30425a0 <Fat_FileOpen>
 3041674:	e0bf6d15 	stw	r2,-588(fp)
        if (hFile){
 3041678:	e0bf6d17 	ldw	r2,-588(fp)
 304167c:	1005003a 	cmpeq	r2,r2,zero
 3041680:	1000471e 	bne	r2,zero,30417a0 <Fat_Test+0x298>
            char szRead[256];
            int nReadSize, nFileSize, nTotalReadSize=0;
 3041684:	e03f6a15 	stw	zero,-600(fp)
            nFileSize = Fat_FileSize(hFile);
 3041688:	e13f6d17 	ldw	r4,-588(fp)
 304168c:	30427d80 	call	30427d8 <Fat_FileSize>
 3041690:	e0bf6b15 	stw	r2,-596(fp)
            if (nReadSize > sizeof(szRead))
 3041694:	e0bf6c17 	ldw	r2,-592(fp)
 3041698:	10804070 	cmpltui	r2,r2,257
 304169c:	1000021e 	bne	r2,zero,30416a8 <Fat_Test+0x1a0>
                nReadSize = sizeof(szRead);
 30416a0:	00804004 	movi	r2,256
 30416a4:	e0bf6c15 	stw	r2,-592(fp)
            printf("%s dump:\n", pDumpFile);
 30416a8:	0100c1b4 	movhi	r4,774
 30416ac:	212bc404 	addi	r4,r4,-20720
 30416b0:	e17fff17 	ldw	r5,-4(fp)
 30416b4:	304bc300 	call	304bc30 <printf>
            while(bSuccess && nTotalReadSize < nFileSize){
 30416b8:	00002b06 	br	3041768 <Fat_Test+0x260>
                nReadSize = sizeof(szRead);
 30416bc:	00804004 	movi	r2,256
 30416c0:	e0bf6c15 	stw	r2,-592(fp)
                if (nReadSize > (nFileSize - nTotalReadSize))
 30416c4:	e0ff6b17 	ldw	r3,-596(fp)
 30416c8:	e0bf6a17 	ldw	r2,-600(fp)
 30416cc:	1887c83a 	sub	r3,r3,r2
 30416d0:	e0bf6c17 	ldw	r2,-592(fp)
 30416d4:	1880040e 	bge	r3,r2,30416e8 <Fat_Test+0x1e0>
                    nReadSize = (nFileSize - nTotalReadSize);
 30416d8:	e0bf6b17 	ldw	r2,-596(fp)
 30416dc:	e0ff6a17 	ldw	r3,-600(fp)
 30416e0:	10c5c83a 	sub	r2,r2,r3
 30416e4:	e0bf6c15 	stw	r2,-592(fp)
                //    
                if (Fat_FileRead(hFile, szRead, nReadSize)){
 30416e8:	e17fbe04 	addi	r5,fp,-264
 30416ec:	e13f6d17 	ldw	r4,-588(fp)
 30416f0:	e1bf6c17 	ldw	r6,-592(fp)
 30416f4:	30428280 	call	3042828 <Fat_FileRead>
 30416f8:	1005003a 	cmpeq	r2,r2,zero
 30416fc:	1000151e 	bne	r2,zero,3041754 <Fat_Test+0x24c>
                    int i;
                    for(i=0;i<nReadSize;i++){
 3041700:	e03f6915 	stw	zero,-604(fp)
 3041704:	00000b06 	br	3041734 <Fat_Test+0x22c>
                        printf("%c", szRead[i]);
 3041708:	e0ff6917 	ldw	r3,-604(fp)
 304170c:	e0bfbe04 	addi	r2,fp,-264
 3041710:	10c5883a 	add	r2,r2,r3
 3041714:	10800003 	ldbu	r2,0(r2)
 3041718:	11003fcc 	andi	r4,r2,255
 304171c:	2100201c 	xori	r4,r4,128
 3041720:	213fe004 	addi	r4,r4,-128
 3041724:	304bca80 	call	304bca8 <putchar>
                if (nReadSize > (nFileSize - nTotalReadSize))
                    nReadSize = (nFileSize - nTotalReadSize);
                //    
                if (Fat_FileRead(hFile, szRead, nReadSize)){
                    int i;
                    for(i=0;i<nReadSize;i++){
 3041728:	e0bf6917 	ldw	r2,-604(fp)
 304172c:	10800044 	addi	r2,r2,1
 3041730:	e0bf6915 	stw	r2,-604(fp)
 3041734:	e0ff6917 	ldw	r3,-604(fp)
 3041738:	e0bf6c17 	ldw	r2,-592(fp)
 304173c:	18bff216 	blt	r3,r2,3041708 <Fat_Test+0x200>
                        printf("%c", szRead[i]);
                    }
                    nTotalReadSize += nReadSize;
 3041740:	e0bf6a17 	ldw	r2,-600(fp)
 3041744:	e0ff6c17 	ldw	r3,-592(fp)
 3041748:	10c5883a 	add	r2,r2,r3
 304174c:	e0bf6a15 	stw	r2,-600(fp)
 3041750:	00000506 	br	3041768 <Fat_Test+0x260>
                }else{
                    bSuccess = FALSE;
 3041754:	e03f7115 	stw	zero,-572(fp)
                    printf("\nFaied to read the file \"%s\"\n", pDumpFile);
 3041758:	0100c1b4 	movhi	r4,774
 304175c:	212bc704 	addi	r4,r4,-20708
 3041760:	e17fff17 	ldw	r5,-4(fp)
 3041764:	304bc300 	call	304bc30 <printf>
            int nReadSize, nFileSize, nTotalReadSize=0;
            nFileSize = Fat_FileSize(hFile);
            if (nReadSize > sizeof(szRead))
                nReadSize = sizeof(szRead);
            printf("%s dump:\n", pDumpFile);
            while(bSuccess && nTotalReadSize < nFileSize){
 3041768:	e0bf7117 	ldw	r2,-572(fp)
 304176c:	1005003a 	cmpeq	r2,r2,zero
 3041770:	1000031e 	bne	r2,zero,3041780 <Fat_Test+0x278>
 3041774:	e0ff6a17 	ldw	r3,-600(fp)
 3041778:	e0bf6b17 	ldw	r2,-596(fp)
 304177c:	18bfcf16 	blt	r3,r2,30416bc <Fat_Test+0x1b4>
                }else{
                    bSuccess = FALSE;
                    printf("\nFaied to read the file \"%s\"\n", pDumpFile);
                }     
            } // while
            if (bSuccess)
 3041780:	e0bf7117 	ldw	r2,-572(fp)
 3041784:	1005003a 	cmpeq	r2,r2,zero
 3041788:	1000021e 	bne	r2,zero,3041794 <Fat_Test+0x28c>
                printf("\n");
 304178c:	01000284 	movi	r4,10
 3041790:	304bca80 	call	304bca8 <putchar>
            Fat_FileClose(hFile);
 3041794:	e13f6d17 	ldw	r4,-588(fp)
 3041798:	3042e240 	call	3042e24 <Fat_FileClose>
 304179c:	00000506 	br	30417b4 <Fat_Test+0x2ac>
        }else{            
            bSuccess = FALSE;
 30417a0:	e03f7115 	stw	zero,-572(fp)
            printf("Cannot find the file \"%s\"\n", pDumpFile);
 30417a4:	0100c1b4 	movhi	r4,774
 30417a8:	212bcf04 	addi	r4,r4,-20676
 30417ac:	e17fff17 	ldw	r5,-4(fp)
 30417b0:	304bc300 	call	304bc30 <printf>
        }            
    }
    
    return bSuccess;
 30417b4:	e0bf7117 	ldw	r2,-572(fp)
}
 30417b8:	e037883a 	mov	sp,fp
 30417bc:	dfc00117 	ldw	ra,4(sp)
 30417c0:	df000017 	ldw	fp,0(sp)
 30417c4:	dec00204 	addi	sp,sp,8
 30417c8:	f800283a 	ret

030417cc <main>:

int main()
{
 30417cc:	deffe904 	addi	sp,sp,-92
 30417d0:	dfc01615 	stw	ra,88(sp)
 30417d4:	df001515 	stw	fp,84(sp)
 30417d8:	df001504 	addi	fp,sp,84
    int nPlayIndex;
    alt_u32 cnt, uSongStartTime, uTimeElapsed;
    alt_8 led_mask = 0x03;
 30417dc:	008000c4 	movi	r2,3
 30417e0:	e0bff005 	stb	r2,-64(fp)
    alt_u8 szWaveFile[FILENAME_LEN];
    IRDA_init();
 30417e4:	30411980 	call	3041198 <IRDA_init>
    lcd_open();
 30417e8:	30403f40 	call	30403f4 <lcd_open>
    welcome_display();
 30417ec:	30402000 	call	3040200 <welcome_display>
    demo_introduce();
 30417f0:	30402680 	call	3040268 <demo_introduce>
    if (!AUDIO_Init()){
 30417f4:	30448a00 	call	30448a0 <AUDIO_Init>
 30417f8:	1004c03a 	cmpne	r2,r2,zero
 30417fc:	1000081e 	bne	r2,zero,3041820 <main+0x54>
        DEMO_PRINTF("Audio Init fail!\n");
 3041800:	0100c1b4 	movhi	r4,774
 3041804:	212bd604 	addi	r4,r4,-20648
 3041808:	304bd6c0 	call	304bd6c <puts>
        lcd_display(("Audio Init fail!\n\n"));
 304180c:	0100c1b4 	movhi	r4,774
 3041810:	212bdb04 	addi	r4,r4,-20628
 3041814:	304041c0 	call	304041c <lcd_display>
        return 0;
 3041818:	e03fff15 	stw	zero,-4(fp)
 304181c:	0000d806 	br	3041b80 <main+0x3b4>
    
    //AUDIO_EnableByPass(TRUE);
    //AUDIO_EnableSiteTone(TRUE);

    
    memset(&gWavePlay, 0, sizeof(gWavePlay));
 3041820:	0080c1b4 	movhi	r2,774
 3041824:	10825004 	addi	r2,r2,2368
 3041828:	1009883a 	mov	r4,r2
 304182c:	01808f04 	movi	r6,572
 3041830:	000b883a 	mov	r5,zero
 3041834:	304bb200 	call	304bb20 <memset>
    gWavePlay.nVolume = HW_DEFAULT_VOL;
 3041838:	00c0c1b4 	movhi	r3,774
 304183c:	18c25004 	addi	r3,r3,2368
 3041840:	00801e04 	movi	r2,120
 3041844:	18808d05 	stb	r2,564(r3)
    AUDIO_SetLineOutVol(gWavePlay.nVolume, gWavePlay.nVolume); 
 3041848:	0080c1b4 	movhi	r2,774
 304184c:	10825004 	addi	r2,r2,2368
 3041850:	10808d03 	ldbu	r2,564(r2)
 3041854:	11003fcc 	andi	r4,r2,255
 3041858:	0080c1b4 	movhi	r2,774
 304185c:	10825004 	addi	r2,r2,2368
 3041860:	10808d03 	ldbu	r2,564(r2)
 3041864:	11403fcc 	andi	r5,r2,255
 3041868:	30451b80 	call	30451b8 <AUDIO_SetLineOutVol>
  
    while(1){
        
        // check SD card
        wait_sdcard_insert();
 304186c:	30404b00 	call	30404b0 <wait_sdcard_insert>
    
        // Mount SD-CARD
        hFat = Fat_Mount(FAT_SD_CARD, 0);
 3041870:	0009883a 	mov	r4,zero
 3041874:	000b883a 	mov	r5,zero
 3041878:	3041b980 	call	3041b98 <Fat_Mount>
 304187c:	d0a76c15 	stw	r2,-25168(gp)
        if (!hFat){
 3041880:	d0a76c17 	ldw	r2,-25168(gp)
 3041884:	1004c03a 	cmpne	r2,r2,zero
 3041888:	1000081e 	bne	r2,zero,30418ac <main+0xe0>
            DEMO_PRINTF("SD card mount fail.\n");
 304188c:	0100c1b4 	movhi	r4,774
 3041890:	212be004 	addi	r4,r4,-20608
 3041894:	304bd6c0 	call	304bd6c <puts>
            lcd_display(("SD card mount fail.\n\n"));
 3041898:	0100c1b4 	movhi	r4,774
 304189c:	212be504 	addi	r4,r4,-20588
 30418a0:	304041c0 	call	304041c <lcd_display>
            return 0;
 30418a4:	e03fff15 	stw	zero,-4(fp)
 30418a8:	0000b506 	br	3041b80 <main+0x3b4>
        }  
        else{
           if (build_wave_play_list(hFat) == 0){
 30418ac:	d1276c17 	ldw	r4,-25168(gp)
 30418b0:	30405e00 	call	30405e0 <build_wave_play_list>
 30418b4:	1004c03a 	cmpne	r2,r2,zero
 30418b8:	1000081e 	bne	r2,zero,30418dc <main+0x110>
            DEMO_PRINTF("There is no wave file in the root directory of SD card.\n");
 30418bc:	0100c1b4 	movhi	r4,774
 30418c0:	212beb04 	addi	r4,r4,-20564
 30418c4:	304bd6c0 	call	304bd6c <puts>
            lcd_display(("No Wave Files.\n\n"));
 30418c8:	0100c1b4 	movhi	r4,774
 30418cc:	212bf904 	addi	r4,r4,-20508
 30418d0:	304041c0 	call	304041c <lcd_display>
            return 0;
 30418d4:	e03fff15 	stw	zero,-4(fp)
 30418d8:	0000a906 	br	3041b80 <main+0x3b4>
            }
        }
        
   
        bool bSdacrdReady = TRUE;
 30418dc:	00800044 	movi	r2,1
 30418e0:	e0bfef15 	stw	r2,-68(fp)
        nPlayIndex = 0;
 30418e4:	e03ff415 	stw	zero,-48(fp)
        while(bSdacrdReady){
 30418e8:	0000a106 	br	3041b70 <main+0x3a4>
            // find a wave file
            bool bPlayDone = FALSE;
 30418ec:	e03fee15 	stw	zero,-72(fp)
            strcpy(szWaveFile, gWavePlayList.szFilename[nPlayIndex]);
 30418f0:	e13ff504 	addi	r4,fp,-44
 30418f4:	e0bff417 	ldw	r2,-48(fp)
 30418f8:	1004917a 	slli	r2,r2,5
 30418fc:	1007883a 	mov	r3,r2
 3041900:	0080c1b4 	movhi	r2,774
 3041904:	10be5004 	addi	r2,r2,-1728
 3041908:	1885883a 	add	r2,r3,r2
 304190c:	100b883a 	mov	r5,r2
 3041910:	304c35c0 	call	304c35c <strcpy>
            DEMO_PRINTF("Play Song:%s\r\n", szWaveFile);
 3041914:	e17ff504 	addi	r5,fp,-44
 3041918:	0100c1b4 	movhi	r4,774
 304191c:	212bfe04 	addi	r4,r4,-20488
 3041920:	304bc300 	call	304bc30 <printf>
            if (!waveplay_start(szWaveFile)){
 3041924:	e13ff504 	addi	r4,fp,-44
 3041928:	30409d00 	call	30409d0 <waveplay_start>
 304192c:	1004c03a 	cmpne	r2,r2,zero
 3041930:	1000071e 	bne	r2,zero,3041950 <main+0x184>
                DEMO_PRINTF("waveplay_start error\r\n");
 3041934:	0100c1b4 	movhi	r4,774
 3041938:	212c0204 	addi	r4,r4,-20472
 304193c:	304bd6c0 	call	304bd6c <puts>
                lcd_display("Play Error.\n\n");
 3041940:	0100c1b4 	movhi	r4,774
 3041944:	212c0804 	addi	r4,r4,-20448
 3041948:	304041c0 	call	304041c <lcd_display>
                bSdacrdReady = FALSE;
 304194c:	e03fef15 	stw	zero,-68(fp)
            }                
            update_status();
 3041950:	30403040 	call	3040304 <update_status>
            cnt = 0;
 3041954:	e03ff315 	stw	zero,-52(fp)
 * alt_nticks() returns the elapsed number of system clock ticks since reset.
 */

static ALT_INLINE alt_u32 ALT_ALWAYS_INLINE alt_nticks (void)
{
  return _alt_nticks;
 3041958:	0080c1b4 	movhi	r2,774
 304195c:	10be4e04 	addi	r2,r2,-1736
 3041960:	10800017 	ldw	r2,0(r2)
            uSongStartTime = alt_nticks();
 3041964:	e0bff215 	stw	r2,-56(fp)
            while(!bPlayDone && bSdacrdReady){
 3041968:	00007a06 	br	3041b54 <main+0x388>
                bool bLastSongPressed  = FALSE;
 304196c:	e03fed15 	stw	zero,-76(fp)
                bool bNextSongPressed  = FALSE;
 3041970:	e03ffd15 	stw	zero,-12(fp)
                bool bEndOfFile = FALSE;
 3041974:	e03ffe15 	stw	zero,-8(fp)
                if ((cnt++ & 0x1F) == 0){
 3041978:	e0bff317 	ldw	r2,-52(fp)
 304197c:	108007cc 	andi	r2,r2,31
 3041980:	1005003a 	cmpeq	r2,r2,zero
 3041984:	1007883a 	mov	r3,r2
 3041988:	e0bff317 	ldw	r2,-52(fp)
 304198c:	10800044 	addi	r2,r2,1
 3041990:	e0bff315 	stw	r2,-52(fp)
 3041994:	18803fcc 	andi	r2,r3,255
 3041998:	1005003a 	cmpeq	r2,r2,zero
 304199c:	1000051e 	bne	r2,zero,30419b4 <main+0x1e8>
                    led_display(led_mask);
 30419a0:	e13ff007 	ldb	r4,-64(fp)
 30419a4:	30404500 	call	3040450 <led_display>
                    led_mask ^= 0x01;
 30419a8:	e0bff003 	ldbu	r2,-64(fp)
 30419ac:	1080005c 	xori	r2,r2,1
 30419b0:	e0bff005 	stb	r2,-64(fp)
                }                    
                // play wave file
                if (!waveplay_execute(&bEndOfFile)){
 30419b4:	e13ffe04 	addi	r4,fp,-8
 30419b8:	3040c4c0 	call	3040c4c <waveplay_execute>
 30419bc:	1004c03a 	cmpne	r2,r2,zero
 30419c0:	1000071e 	bne	r2,zero,30419e0 <main+0x214>
                    DEMO_PRINTF("waveplay_execute error\r\n");
 30419c4:	0100c1b4 	movhi	r4,774
 30419c8:	212c0c04 	addi	r4,r4,-20432
 30419cc:	304bd6c0 	call	304bd6c <puts>
                    lcd_display("Play Error.\n\n");
 30419d0:	0100c1b4 	movhi	r4,774
 30419d4:	212c0804 	addi	r4,r4,-20448
 30419d8:	304041c0 	call	304041c <lcd_display>
                    bSdacrdReady = FALSE;
 30419dc:	e03fef15 	stw	zero,-68(fp)
                }    
                
                // handle key event   
                handle_key(&bNextSongPressed);
 30419e0:	e13ffd04 	addi	r4,fp,-12
 30419e4:	3040fa00 	call	3040fa0 <handle_key>
                if(bLastSwitch){
 30419e8:	d0a76917 	ldw	r2,-25180(gp)
 30419ec:	1005003a 	cmpeq	r2,r2,zero
 30419f0:	1000031e 	bne	r2,zero,3041a00 <main+0x234>
                    bLastSongPressed = TRUE;
 30419f4:	00800044 	movi	r2,1
 30419f8:	e0bfed15 	stw	r2,-76(fp)
                    bNextSongPressed = FALSE;
 30419fc:	e03ffd15 	stw	zero,-12(fp)
                }
                 if(bNextSwitch){
 3041a00:	d0a76a17 	ldw	r2,-25176(gp)
 3041a04:	1005003a 	cmpeq	r2,r2,zero
 3041a08:	1000031e 	bne	r2,zero,3041a18 <main+0x24c>
                    bLastSongPressed = FALSE;
 3041a0c:	e03fed15 	stw	zero,-76(fp)
                    bNextSongPressed = TRUE;
 3041a10:	00800044 	movi	r2,1
 3041a14:	e0bffd15 	stw	r2,-12(fp)
                }
                if (bSdacrdReady && (bEndOfFile || bLastSongPressed || bNextSongPressed)){
 3041a18:	e0bfef17 	ldw	r2,-68(fp)
 3041a1c:	1005003a 	cmpeq	r2,r2,zero
 3041a20:	1000411e 	bne	r2,zero,3041b28 <main+0x35c>
 3041a24:	e0bffe17 	ldw	r2,-8(fp)
 3041a28:	1004c03a 	cmpne	r2,r2,zero
 3041a2c:	1000061e 	bne	r2,zero,3041a48 <main+0x27c>
 3041a30:	e0bfed17 	ldw	r2,-76(fp)
 3041a34:	1004c03a 	cmpne	r2,r2,zero
 3041a38:	1000031e 	bne	r2,zero,3041a48 <main+0x27c>
 3041a3c:	e0bffd17 	ldw	r2,-12(fp)
 3041a40:	1005003a 	cmpeq	r2,r2,zero
 3041a44:	1000381e 	bne	r2,zero,3041b28 <main+0x35c>
                    bool bNextSong = FALSE;
 3041a48:	e03fec15 	stw	zero,-80(fp)
                    bool bLastSong = FALSE;
 3041a4c:	e03feb15 	stw	zero,-84(fp)
                    
                    if(bLastSongPressed) bLastSong = TRUE;
 3041a50:	e0bfed17 	ldw	r2,-76(fp)
 3041a54:	1005003a 	cmpeq	r2,r2,zero
 3041a58:	1000021e 	bne	r2,zero,3041a64 <main+0x298>
 3041a5c:	00800044 	movi	r2,1
 3041a60:	e0bfeb15 	stw	r2,-84(fp)
                    if(bNextSongPressed || bEndOfFile) bNextSong = TRUE;
 3041a64:	e0bffd17 	ldw	r2,-12(fp)
 3041a68:	1004c03a 	cmpne	r2,r2,zero
 3041a6c:	1000031e 	bne	r2,zero,3041a7c <main+0x2b0>
 3041a70:	e0bffe17 	ldw	r2,-8(fp)
 3041a74:	1005003a 	cmpeq	r2,r2,zero
 3041a78:	1000021e 	bne	r2,zero,3041a84 <main+0x2b8>
 3041a7c:	00800044 	movi	r2,1
 3041a80:	e0bfec15 	stw	r2,-80(fp)
                    // check whether in REPEAT mode
                    if (!bLastSongPressed && !bNextSongPressed && gWavePlay.bRepeatMode){
 3041a84:	e0bfed17 	ldw	r2,-76(fp)
 3041a88:	1004c03a 	cmpne	r2,r2,zero
 3041a8c:	10000a1e 	bne	r2,zero,3041ab8 <main+0x2ec>
 3041a90:	e0bffd17 	ldw	r2,-12(fp)
 3041a94:	1004c03a 	cmpne	r2,r2,zero
 3041a98:	1000071e 	bne	r2,zero,3041ab8 <main+0x2ec>
 3041a9c:	0080c1b4 	movhi	r2,774
 3041aa0:	10825004 	addi	r2,r2,2368
 3041aa4:	10808e17 	ldw	r2,568(r2)
 3041aa8:	1005003a 	cmpeq	r2,r2,zero
 3041aac:	1000021e 	bne	r2,zero,3041ab8 <main+0x2ec>
                        bNextSong = FALSE;  // in repeat mode
 3041ab0:	e03fec15 	stw	zero,-80(fp)
                        bLastSong = FALSE;
 3041ab4:	e03feb15 	stw	zero,-84(fp)
                    }
                    if (bNextSong){  // index update for next song
 3041ab8:	e0bfec17 	ldw	r2,-80(fp)
 3041abc:	1005003a 	cmpeq	r2,r2,zero
 3041ac0:	1000091e 	bne	r2,zero,3041ae8 <main+0x31c>
                        nPlayIndex++;
 3041ac4:	e0bff417 	ldw	r2,-48(fp)
 3041ac8:	10800044 	addi	r2,r2,1
 3041acc:	e0bff415 	stw	r2,-48(fp)
                        if (nPlayIndex >= gWavePlayList.nFileNum)
 3041ad0:	0080c1b4 	movhi	r2,774
 3041ad4:	10be4f04 	addi	r2,r2,-1732
 3041ad8:	10c00017 	ldw	r3,0(r2)
 3041adc:	e0bff417 	ldw	r2,-48(fp)
 3041ae0:	10c00116 	blt	r2,r3,3041ae8 <main+0x31c>
                            nPlayIndex = 0;
 3041ae4:	e03ff415 	stw	zero,-48(fp)
                    }   
                    if (bLastSong){  // index update for last song
 3041ae8:	e0bfeb17 	ldw	r2,-84(fp)
 3041aec:	1005003a 	cmpeq	r2,r2,zero
 3041af0:	10000b1e 	bne	r2,zero,3041b20 <main+0x354>
                        nPlayIndex--;
 3041af4:	e0bff417 	ldw	r2,-48(fp)
 3041af8:	10bfffc4 	addi	r2,r2,-1
 3041afc:	e0bff415 	stw	r2,-48(fp)
                        if (nPlayIndex < 0)
 3041b00:	e0bff417 	ldw	r2,-48(fp)
 3041b04:	1004403a 	cmpge	r2,r2,zero
 3041b08:	1000051e 	bne	r2,zero,3041b20 <main+0x354>
                            nPlayIndex = gWavePlayList.nFileNum-1;
 3041b0c:	0080c1b4 	movhi	r2,774
 3041b10:	10be4f04 	addi	r2,r2,-1732
 3041b14:	10800017 	ldw	r2,0(r2)
 3041b18:	10bfffc4 	addi	r2,r2,-1
 3041b1c:	e0bff415 	stw	r2,-48(fp)
                    }                           
                    bPlayDone = TRUE;                        
 3041b20:	00800044 	movi	r2,1
 3041b24:	e0bfee15 	stw	r2,-72(fp)
                } 
                bLastSwitch = FALSE;
 3041b28:	d0276915 	stw	zero,-25180(gp)
                bNextSwitch = FALSE;
 3041b2c:	d0276a15 	stw	zero,-25176(gp)
 3041b30:	0080c1b4 	movhi	r2,774
 3041b34:	10be4e04 	addi	r2,r2,-1736
 3041b38:	10800017 	ldw	r2,0(r2)
 3041b3c:	1007883a 	mov	r3,r2
                
                uTimeElapsed = alt_nticks() - uSongStartTime;    
 3041b40:	e0bff217 	ldw	r2,-56(fp)
 3041b44:	1885c83a 	sub	r2,r3,r2
 3041b48:	e0bff115 	stw	r2,-60(fp)
                DisplayTime(uTimeElapsed);    
 3041b4c:	e13ff117 	ldw	r4,-60(fp)
 3041b50:	30403a00 	call	30403a0 <DisplayTime>
                bSdacrdReady = FALSE;
            }                
            update_status();
            cnt = 0;
            uSongStartTime = alt_nticks();
            while(!bPlayDone && bSdacrdReady){
 3041b54:	e0bfee17 	ldw	r2,-72(fp)
 3041b58:	1004c03a 	cmpne	r2,r2,zero
 3041b5c:	1000031e 	bne	r2,zero,3041b6c <main+0x3a0>
 3041b60:	e0bfef17 	ldw	r2,-68(fp)
 3041b64:	1004c03a 	cmpne	r2,r2,zero
 3041b68:	103f801e 	bne	r2,zero,304196c <main+0x1a0>
                bNextSwitch = FALSE;
                
                uTimeElapsed = alt_nticks() - uSongStartTime;    
                DisplayTime(uTimeElapsed);    
            }  // while(!bPlayNextSong && bSdacrdReady)
            waveplay_stop();    
 3041b6c:	3040f840 	call	3040f84 <waveplay_stop>
        }
        
   
        bool bSdacrdReady = TRUE;
        nPlayIndex = 0;
        while(bSdacrdReady){
 3041b70:	e0bfef17 	ldw	r2,-68(fp)
 3041b74:	1004c03a 	cmpne	r2,r2,zero
 3041b78:	103f5c1e 	bne	r2,zero,30418ec <main+0x120>
                uTimeElapsed = alt_nticks() - uSongStartTime;    
                DisplayTime(uTimeElapsed);    
            }  // while(!bPlayNextSong && bSdacrdReady)
            waveplay_stop();    
        }  // while(bSdacrdReady)
  } // while (1)
 3041b7c:	003f3b06 	br	304186c <main+0xa0>
 3041b80:	e0bfff17 	ldw	r2,-4(fp)

  return 0;
}
 3041b84:	e037883a 	mov	sp,fp
 3041b88:	dfc00117 	ldw	ra,4(sp)
 3041b8c:	df000017 	ldw	fp,0(sp)
 3041b90:	dec00204 	addi	sp,sp,8
 3041b94:	f800283a 	ret

03041b98 <Fat_Mount>:
bool fatSameLongFilename(alt_u16 *p1, alt_u16 *p2);




FAT_HANDLE Fat_Mount(FAT_DEVICE FatDevice, DEVICE_HANDLE hUsbDisk){
 3041b98:	defffb04 	addi	sp,sp,-20
 3041b9c:	dfc00415 	stw	ra,16(sp)
 3041ba0:	df000315 	stw	fp,12(sp)
 3041ba4:	df000304 	addi	fp,sp,12
 3041ba8:	e13ffe15 	stw	r4,-8(fp)
 3041bac:	e17fff15 	stw	r5,-4(fp)
    
    //Fat_Unmount();
    FAT_HANDLE hFat = 0;
 3041bb0:	e03ffd15 	stw	zero,-12(fp)
    
    if (FatDevice == FAT_SD_CARD){
 3041bb4:	e0bffe17 	ldw	r2,-8(fp)
 3041bb8:	1004c03a 	cmpne	r2,r2,zero
 3041bbc:	1000021e 	bne	r2,zero,3041bc8 <Fat_Mount+0x30>
        #ifdef SUPPORT_SD_CARD
        hFat = fatMountSdcard();
 3041bc0:	30447340 	call	3044734 <fatMountSdcard>
 3041bc4:	e0bffd15 	stw	r2,-12(fp)
    }else if (FatDevice == FAT_USB_DISK){
        #ifdef SUPPORT_USB_DISK
        hFat = fatMountUsbDisk(hUsbDisk);
        #endif
    }  
    return hFat;      
 3041bc8:	e0bffd17 	ldw	r2,-12(fp)
        
}
 3041bcc:	e037883a 	mov	sp,fp
 3041bd0:	dfc00117 	ldw	ra,4(sp)
 3041bd4:	df000017 	ldw	fp,0(sp)
 3041bd8:	dec00204 	addi	sp,sp,8
 3041bdc:	f800283a 	ret

03041be0 <Fat_Unmount>:

void Fat_Unmount(FAT_HANDLE Fat){
 3041be0:	defffc04 	addi	sp,sp,-16
 3041be4:	dfc00315 	stw	ra,12(sp)
 3041be8:	df000215 	stw	fp,8(sp)
 3041bec:	df000204 	addi	fp,sp,8
 3041bf0:	e13fff15 	stw	r4,-4(fp)
    VOLUME_INFO *pVol = (VOLUME_INFO *)Fat;
 3041bf4:	e0bfff17 	ldw	r2,-4(fp)
 3041bf8:	e0bffe15 	stw	r2,-8(fp)
    if (!pVol)
 3041bfc:	e0bffe17 	ldw	r2,-8(fp)
 3041c00:	1005003a 	cmpeq	r2,r2,zero
 3041c04:	1000041e 	bne	r2,zero,3041c18 <Fat_Unmount+0x38>
    if (pVol->szFatTable){
        free(pVol->szFatTable);
        pVol->szFatTable = 0;
    }        
#endif //#ifdef FAT_READONLY
    pVol->bMount = FALSE;
 3041c08:	e0bffe17 	ldw	r2,-8(fp)
 3041c0c:	10000415 	stw	zero,16(r2)
    
    free(pVol);  
 3041c10:	e13ffe17 	ldw	r4,-8(fp)
 3041c14:	304b3180 	call	304b318 <free>
}   
 3041c18:	e037883a 	mov	sp,fp
 3041c1c:	dfc00117 	ldw	ra,4(sp)
 3041c20:	df000017 	ldw	fp,0(sp)
 3041c24:	dec00204 	addi	sp,sp,8
 3041c28:	f800283a 	ret

03041c2c <Fat_Type>:

FAT_TYPE Fat_Type(FAT_HANDLE Fat){
 3041c2c:	defffc04 	addi	sp,sp,-16
 3041c30:	df000315 	stw	fp,12(sp)
 3041c34:	df000304 	addi	fp,sp,12
 3041c38:	e13fff15 	stw	r4,-4(fp)
    VOLUME_INFO *pVol = (VOLUME_INFO *)Fat;
 3041c3c:	e0bfff17 	ldw	r2,-4(fp)
 3041c40:	e0bffe15 	stw	r2,-8(fp)
    FAT_TYPE Type = FAT_UNKNOWN;
 3041c44:	e03ffd15 	stw	zero,-12(fp)
    if (pVol){
 3041c48:	e0bffe17 	ldw	r2,-8(fp)
 3041c4c:	1005003a 	cmpeq	r2,r2,zero
 3041c50:	10000d1e 	bne	r2,zero,3041c88 <Fat_Type+0x5c>
        if (pVol->Partition_Type == PARTITION_FAT16)
 3041c54:	e0bffe17 	ldw	r2,-8(fp)
 3041c58:	10800317 	ldw	r2,12(r2)
 3041c5c:	10800198 	cmpnei	r2,r2,6
 3041c60:	1000031e 	bne	r2,zero,3041c70 <Fat_Type+0x44>
            Type = FAT_FAT16;
 3041c64:	00800044 	movi	r2,1
 3041c68:	e0bffd15 	stw	r2,-12(fp)
 3041c6c:	00000606 	br	3041c88 <Fat_Type+0x5c>
        else if (pVol->Partition_Type == PARTITION_FAT32)
 3041c70:	e0bffe17 	ldw	r2,-8(fp)
 3041c74:	10800317 	ldw	r2,12(r2)
 3041c78:	108002d8 	cmpnei	r2,r2,11
 3041c7c:	1000021e 	bne	r2,zero,3041c88 <Fat_Type+0x5c>
            Type = FAT_FAT32;
 3041c80:	00800084 	movi	r2,2
 3041c84:	e0bffd15 	stw	r2,-12(fp)
    }
    return Type;        
 3041c88:	e0bffd17 	ldw	r2,-12(fp)
}
 3041c8c:	e037883a 	mov	sp,fp
 3041c90:	df000017 	ldw	fp,0(sp)
 3041c94:	dec00104 	addi	sp,sp,4
 3041c98:	f800283a 	ret

03041c9c <Fat_FileBrowseBegin>:

bool Fat_FileBrowseBegin(FAT_HANDLE hFat, FAT_BROWSE_HANDLE *pFatBrowseHandle){
 3041c9c:	defffb04 	addi	sp,sp,-20
 3041ca0:	df000415 	stw	fp,16(sp)
 3041ca4:	df000404 	addi	fp,sp,16
 3041ca8:	e13ffd15 	stw	r4,-12(fp)
 3041cac:	e17ffe15 	stw	r5,-8(fp)
    VOLUME_INFO *pVol = (VOLUME_INFO *)hFat;
 3041cb0:	e0bffd17 	ldw	r2,-12(fp)
 3041cb4:	e0bffc15 	stw	r2,-16(fp)
    if (!pVol)
 3041cb8:	e0bffc17 	ldw	r2,-16(fp)
 3041cbc:	1004c03a 	cmpne	r2,r2,zero
 3041cc0:	1000021e 	bne	r2,zero,3041ccc <Fat_FileBrowseBegin+0x30>
        return FALSE;
 3041cc4:	e03fff15 	stw	zero,-4(fp)
 3041cc8:	00000e06 	br	3041d04 <Fat_FileBrowseBegin+0x68>
    if (!pVol->bMount)
 3041ccc:	e0bffc17 	ldw	r2,-16(fp)
 3041cd0:	10800417 	ldw	r2,16(r2)
 3041cd4:	1004c03a 	cmpne	r2,r2,zero
 3041cd8:	1000021e 	bne	r2,zero,3041ce4 <Fat_FileBrowseBegin+0x48>
        return FALSE;
 3041cdc:	e03fff15 	stw	zero,-4(fp)
 3041ce0:	00000806 	br	3041d04 <Fat_FileBrowseBegin+0x68>
    pFatBrowseHandle->DirectoryIndex = -1;
 3041ce4:	e0fffe17 	ldw	r3,-8(fp)
 3041ce8:	00bfffc4 	movi	r2,-1
 3041cec:	18800015 	stw	r2,0(r3)
    pFatBrowseHandle->hFat = hFat;
 3041cf0:	e0fffe17 	ldw	r3,-8(fp)
 3041cf4:	e0bffd17 	ldw	r2,-12(fp)
 3041cf8:	18800115 	stw	r2,4(r3)
    return TRUE;
 3041cfc:	00800044 	movi	r2,1
 3041d00:	e0bfff15 	stw	r2,-4(fp)
 3041d04:	e0bfff17 	ldw	r2,-4(fp)
}
 3041d08:	e037883a 	mov	sp,fp
 3041d0c:	df000017 	ldw	fp,0(sp)
 3041d10:	dec00104 	addi	sp,sp,4
 3041d14:	f800283a 	ret

03041d18 <Fat_FileBrowseNext>:

bool Fat_FileBrowseNext(FAT_BROWSE_HANDLE *pFatBrowseHandle, FILE_CONTEXT *pFileContext){
 3041d18:	defff304 	addi	sp,sp,-52
 3041d1c:	dfc00c15 	stw	ra,48(sp)
 3041d20:	df000b15 	stw	fp,44(sp)
 3041d24:	df000b04 	addi	fp,sp,44
 3041d28:	e13ffd15 	stw	r4,-12(fp)
 3041d2c:	e17ffe15 	stw	r5,-8(fp)
    bool bFind = FALSE, bError=FALSE, bLongFilename = FALSE;
 3041d30:	e03ffc15 	stw	zero,-16(fp)
 3041d34:	e03ffb15 	stw	zero,-20(fp)
 3041d38:	e03ffa15 	stw	zero,-24(fp)
    int OrderValue = 0;
 3041d3c:	e03ff915 	stw	zero,-28(fp)
    FAT_DIRECTORY *pDir;
    //unsigned int nSecter, nSecterOffset,nByteOffset;
    VOLUME_INFO *pVol = (VOLUME_INFO *)pFatBrowseHandle->hFat;
 3041d40:	e0bffd17 	ldw	r2,-12(fp)
 3041d44:	10800117 	ldw	r2,4(r2)
 3041d48:	e0bff715 	stw	r2,-36(fp)
    
    if (!pVol)
 3041d4c:	e0bff717 	ldw	r2,-36(fp)
 3041d50:	1004c03a 	cmpne	r2,r2,zero
 3041d54:	1000021e 	bne	r2,zero,3041d60 <Fat_FileBrowseNext+0x48>
        return FALSE;    
 3041d58:	e03fff15 	stw	zero,-4(fp)
 3041d5c:	00012606 	br	30421f8 <Fat_FileBrowseNext+0x4e0>
    
    if (!pVol->bMount)
 3041d60:	e0bff717 	ldw	r2,-36(fp)
 3041d64:	10800417 	ldw	r2,16(r2)
 3041d68:	1004c03a 	cmpne	r2,r2,zero
 3041d6c:	1000021e 	bne	r2,zero,3041d78 <Fat_FileBrowseNext+0x60>
        return FALSE;
 3041d70:	e03fff15 	stw	zero,-4(fp)
 3041d74:	00012006 	br	30421f8 <Fat_FileBrowseNext+0x4e0>
    
    
    do{  // search Directory Table
        pFatBrowseHandle->DirectoryIndex++;        
 3041d78:	e0bffd17 	ldw	r2,-12(fp)
 3041d7c:	10800017 	ldw	r2,0(r2)
 3041d80:	10c00044 	addi	r3,r2,1
 3041d84:	e0bffd17 	ldw	r2,-12(fp)
 3041d88:	10c00015 	stw	r3,0(r2)
        pDir = fatFindDirectory(pVol,pFatBrowseHandle->DirectoryIndex);
 3041d8c:	e0bffd17 	ldw	r2,-12(fp)
 3041d90:	11400017 	ldw	r5,0(r2)
 3041d94:	e13ff717 	ldw	r4,-36(fp)
 3041d98:	30441380 	call	3044138 <fatFindDirectory>
 3041d9c:	e0bff815 	stw	r2,-32(fp)
        if (!pDir)
 3041da0:	e0bff817 	ldw	r2,-32(fp)
 3041da4:	1004c03a 	cmpne	r2,r2,zero
 3041da8:	1000021e 	bne	r2,zero,3041db4 <Fat_FileBrowseNext+0x9c>
            bError = TRUE;
 3041dac:	00800044 	movi	r2,1
 3041db0:	e0bffb15 	stw	r2,-20(fp)
            
        if (!bError){                        
 3041db4:	e0bffb17 	ldw	r2,-20(fp)
 3041db8:	1004c03a 	cmpne	r2,r2,zero
 3041dbc:	1001021e 	bne	r2,zero,30421c8 <Fat_FileBrowseNext+0x4b0>
            if (fatIsValidDir(pDir) && !fatIsUnusedDir(pDir)){
 3041dc0:	e13ff817 	ldw	r4,-32(fp)
 3041dc4:	30438140 	call	3043814 <fatIsValidDir>
 3041dc8:	1005003a 	cmpeq	r2,r2,zero
 3041dcc:	1000fe1e 	bne	r2,zero,30421c8 <Fat_FileBrowseNext+0x4b0>
 3041dd0:	e13ff817 	ldw	r4,-32(fp)
 3041dd4:	30438bc0 	call	30438bc <fatIsUnusedDir>
 3041dd8:	1004c03a 	cmpne	r2,r2,zero
 3041ddc:	1000fa1e 	bne	r2,zero,30421c8 <Fat_FileBrowseNext+0x4b0>
                if ((pDir->Attribute & ATTR_LONG_NAME) == ATTR_LONG_NAME){
 3041de0:	e0bff817 	ldw	r2,-32(fp)
 3041de4:	108002c3 	ldbu	r2,11(r2)
 3041de8:	10803fcc 	andi	r2,r2,255
 3041dec:	108003cc 	andi	r2,r2,15
 3041df0:	108003d8 	cmpnei	r2,r2,15
 3041df4:	10007c1e 	bne	r2,zero,3041fe8 <Fat_FileBrowseNext+0x2d0>
                    FAT_LONG_DIRECTORY *pLDIR = (FAT_LONG_DIRECTORY *)pDir;
 3041df8:	e0bff817 	ldw	r2,-32(fp)
 3041dfc:	e0bff615 	stw	r2,-40(fp)
                    // check attribute
                    if ((pLDIR->LDIR_Attr & ATTR_LONG_NAME) != ATTR_LONG_NAME){
 3041e00:	e0bff617 	ldw	r2,-40(fp)
 3041e04:	108002c3 	ldbu	r2,11(r2)
 3041e08:	10803fcc 	andi	r2,r2,255
 3041e0c:	108003cc 	andi	r2,r2,15
 3041e10:	108003e0 	cmpeqi	r2,r2,15
 3041e14:	1000031e 	bne	r2,zero,3041e24 <Fat_FileBrowseNext+0x10c>
                        bError = TRUE;
 3041e18:	00800044 	movi	r2,1
 3041e1c:	e0bffb15 	stw	r2,-20(fp)
 3041e20:	00002006 	br	3041ea4 <Fat_FileBrowseNext+0x18c>
                    }else{                        
                        // check order
                        if (OrderValue == 0){
 3041e24:	e0bff917 	ldw	r2,-28(fp)
 3041e28:	1004c03a 	cmpne	r2,r2,zero
 3041e2c:	1000151e 	bne	r2,zero,3041e84 <Fat_FileBrowseNext+0x16c>
                            // last entry
                            if (bLongFilename || ((OrderValue & LAST_LONG_ENTRY) != OrderValue))
 3041e30:	e0bffa17 	ldw	r2,-24(fp)
 3041e34:	1004c03a 	cmpne	r2,r2,zero
 3041e38:	1000041e 	bne	r2,zero,3041e4c <Fat_FileBrowseNext+0x134>
 3041e3c:	e0bff917 	ldw	r2,-28(fp)
 3041e40:	10c0100c 	andi	r3,r2,64
 3041e44:	e0bff917 	ldw	r2,-28(fp)
 3041e48:	18800326 	beq	r3,r2,3041e58 <Fat_FileBrowseNext+0x140>
                                bError = TRUE;
 3041e4c:	00800044 	movi	r2,1
 3041e50:	e0bffb15 	stw	r2,-20(fp)
                        bError = TRUE;
                    }else{                        
                        // check order
                        if (OrderValue == 0){
                            // last entry
                            if (bLongFilename || ((OrderValue & LAST_LONG_ENTRY) != OrderValue))
 3041e54:	00000506 	br	3041e6c <Fat_FileBrowseNext+0x154>
                                bError = TRUE;
                            else
                                OrderValue = pLDIR->LDIR_Ord & 0x3F;
 3041e58:	e0bff617 	ldw	r2,-40(fp)
 3041e5c:	10800003 	ldbu	r2,0(r2)
 3041e60:	10803fcc 	andi	r2,r2,255
 3041e64:	10800fcc 	andi	r2,r2,63
 3041e68:	e0bff915 	stw	r2,-28(fp)
                            memset(pFileContext->szName, 0, sizeof(pFileContext->szName));        
 3041e6c:	e0bffe17 	ldw	r2,-8(fp)
 3041e70:	1009883a 	mov	r4,r2
 3041e74:	01804004 	movi	r6,256
 3041e78:	000b883a 	mov	r5,zero
 3041e7c:	304bb200 	call	304bb20 <memset>
 3041e80:	00000806 	br	3041ea4 <Fat_FileBrowseNext+0x18c>
                        }else{
                            if ((pLDIR->LDIR_Ord & 0x3F) != OrderValue)
 3041e84:	e0bff617 	ldw	r2,-40(fp)
 3041e88:	10800003 	ldbu	r2,0(r2)
 3041e8c:	10803fcc 	andi	r2,r2,255
 3041e90:	10c00fcc 	andi	r3,r2,63
 3041e94:	e0bff917 	ldw	r2,-28(fp)
 3041e98:	18800226 	beq	r3,r2,3041ea4 <Fat_FileBrowseNext+0x18c>
                                bError = TRUE;
 3041e9c:	00800044 	movi	r2,1
 3041ea0:	e0bffb15 	stw	r2,-20(fp)
                        }
                    }
                    
                    //                        
                    if (!bError){
 3041ea4:	e0bffb17 	ldw	r2,-20(fp)
 3041ea8:	1004c03a 	cmpne	r2,r2,zero
 3041eac:	1000c61e 	bne	r2,zero,30421c8 <Fat_FileBrowseNext+0x4b0>
                        int BaseOffset;
                        bLongFilename = TRUE;
 3041eb0:	00800044 	movi	r2,1
 3041eb4:	e0bffa15 	stw	r2,-24(fp)
                        OrderValue--;
 3041eb8:	e0bff917 	ldw	r2,-28(fp)
 3041ebc:	10bfffc4 	addi	r2,r2,-1
 3041ec0:	e0bff915 	stw	r2,-28(fp)
                        BaseOffset = OrderValue * 26;
 3041ec4:	e0bff917 	ldw	r2,-28(fp)
 3041ec8:	108006a4 	muli	r2,r2,26
 3041ecc:	e0bff515 	stw	r2,-44(fp)
                        // cast filename
                        memcpy(pFileContext->szName+BaseOffset, pLDIR->LDIR_Name1, 10);
 3041ed0:	e0fffe17 	ldw	r3,-8(fp)
 3041ed4:	e0bff517 	ldw	r2,-44(fp)
 3041ed8:	1889883a 	add	r4,r3,r2
 3041edc:	e0bff617 	ldw	r2,-40(fp)
 3041ee0:	10c00044 	addi	r3,r2,1
 3041ee4:	18800003 	ldbu	r2,0(r3)
 3041ee8:	20800005 	stb	r2,0(r4)
 3041eec:	18800043 	ldbu	r2,1(r3)
 3041ef0:	20800045 	stb	r2,1(r4)
 3041ef4:	18800083 	ldbu	r2,2(r3)
 3041ef8:	20800085 	stb	r2,2(r4)
 3041efc:	188000c3 	ldbu	r2,3(r3)
 3041f00:	208000c5 	stb	r2,3(r4)
 3041f04:	18800103 	ldbu	r2,4(r3)
 3041f08:	20800105 	stb	r2,4(r4)
 3041f0c:	18800143 	ldbu	r2,5(r3)
 3041f10:	20800145 	stb	r2,5(r4)
 3041f14:	18800183 	ldbu	r2,6(r3)
 3041f18:	20800185 	stb	r2,6(r4)
 3041f1c:	188001c3 	ldbu	r2,7(r3)
 3041f20:	208001c5 	stb	r2,7(r4)
 3041f24:	18800203 	ldbu	r2,8(r3)
 3041f28:	20800205 	stb	r2,8(r4)
 3041f2c:	18800243 	ldbu	r2,9(r3)
 3041f30:	20800245 	stb	r2,9(r4)
                        memcpy(pFileContext->szName+BaseOffset+10, pLDIR->LDIR_Name2, 12);
 3041f34:	e0fffe17 	ldw	r3,-8(fp)
 3041f38:	e0bff517 	ldw	r2,-44(fp)
 3041f3c:	1885883a 	add	r2,r3,r2
 3041f40:	11000284 	addi	r4,r2,10
 3041f44:	e0bff617 	ldw	r2,-40(fp)
 3041f48:	10c00384 	addi	r3,r2,14
 3041f4c:	18800003 	ldbu	r2,0(r3)
 3041f50:	20800005 	stb	r2,0(r4)
 3041f54:	18800043 	ldbu	r2,1(r3)
 3041f58:	20800045 	stb	r2,1(r4)
 3041f5c:	18800083 	ldbu	r2,2(r3)
 3041f60:	20800085 	stb	r2,2(r4)
 3041f64:	188000c3 	ldbu	r2,3(r3)
 3041f68:	208000c5 	stb	r2,3(r4)
 3041f6c:	18800103 	ldbu	r2,4(r3)
 3041f70:	20800105 	stb	r2,4(r4)
 3041f74:	18800143 	ldbu	r2,5(r3)
 3041f78:	20800145 	stb	r2,5(r4)
 3041f7c:	18800183 	ldbu	r2,6(r3)
 3041f80:	20800185 	stb	r2,6(r4)
 3041f84:	188001c3 	ldbu	r2,7(r3)
 3041f88:	208001c5 	stb	r2,7(r4)
 3041f8c:	18800203 	ldbu	r2,8(r3)
 3041f90:	20800205 	stb	r2,8(r4)
 3041f94:	18800243 	ldbu	r2,9(r3)
 3041f98:	20800245 	stb	r2,9(r4)
 3041f9c:	18800283 	ldbu	r2,10(r3)
 3041fa0:	20800285 	stb	r2,10(r4)
 3041fa4:	188002c3 	ldbu	r2,11(r3)
 3041fa8:	208002c5 	stb	r2,11(r4)
                        memcpy(pFileContext->szName+BaseOffset+22, pLDIR->LDIR_Name3, 4);
 3041fac:	e0fffe17 	ldw	r3,-8(fp)
 3041fb0:	e0bff517 	ldw	r2,-44(fp)
 3041fb4:	1885883a 	add	r2,r3,r2
 3041fb8:	11000584 	addi	r4,r2,22
 3041fbc:	e0bff617 	ldw	r2,-40(fp)
 3041fc0:	10c00704 	addi	r3,r2,28
 3041fc4:	18800003 	ldbu	r2,0(r3)
 3041fc8:	20800005 	stb	r2,0(r4)
 3041fcc:	18800043 	ldbu	r2,1(r3)
 3041fd0:	20800045 	stb	r2,1(r4)
 3041fd4:	18800083 	ldbu	r2,2(r3)
 3041fd8:	20800085 	stb	r2,2(r4)
 3041fdc:	188000c3 	ldbu	r2,3(r3)
 3041fe0:	208000c5 	stb	r2,3(r4)
 3041fe4:	00007806 	br	30421c8 <Fat_FileBrowseNext+0x4b0>
                    }                        
                }else{
                    if (bLongFilename){
 3041fe8:	e0bffa17 	ldw	r2,-24(fp)
 3041fec:	1005003a 	cmpeq	r2,r2,zero
 3041ff0:	10000f1e 	bne	r2,zero,3042030 <Fat_FileBrowseNext+0x318>
                        pFileContext->Attribute = ATTR_LONG_NAME;
 3041ff4:	e0fffe17 	ldw	r3,-8(fp)
 3041ff8:	008003c4 	movi	r2,15
 3041ffc:	18804505 	stb	r2,276(r3)
                        if ((pDir->Attribute & (ATTR_ARCHIVE | ATTR_DIRECTORY)) == 0)
 3042000:	e0bff817 	ldw	r2,-32(fp)
 3042004:	108002c3 	ldbu	r2,11(r2)
 3042008:	10803fcc 	andi	r2,r2,255
 304200c:	10800c0c 	andi	r2,r2,48
 3042010:	1004c03a 	cmpne	r2,r2,zero
 3042014:	1000031e 	bne	r2,zero,3042024 <Fat_FileBrowseNext+0x30c>
                            bError = TRUE;
 3042018:	00800044 	movi	r2,1
 304201c:	e0bffb15 	stw	r2,-20(fp)
 3042020:	00000806 	br	3042044 <Fat_FileBrowseNext+0x32c>
                        else    
                            bFind = TRUE;
 3042024:	00800044 	movi	r2,1
 3042028:	e0bffc15 	stw	r2,-16(fp)
 304202c:	00000506 	br	3042044 <Fat_FileBrowseNext+0x32c>
                    }else{
                        fatComposeShortFilename(pDir, pFileContext->szName);
 3042030:	e17ffe17 	ldw	r5,-8(fp)
 3042034:	e13ff817 	ldw	r4,-32(fp)
 3042038:	30423180 	call	3042318 <fatComposeShortFilename>
                        bFind = TRUE;
 304203c:	00800044 	movi	r2,1
 3042040:	e0bffc15 	stw	r2,-16(fp)
                    }
                    
                    if (bFind){
 3042044:	e0bffc17 	ldw	r2,-16(fp)
 3042048:	1005003a 	cmpeq	r2,r2,zero
 304204c:	10005e1e 	bne	r2,zero,30421c8 <Fat_FileBrowseNext+0x4b0>
                        // my ext
                        pFileContext->bLongFilename = bLongFilename;
 3042050:	e0fffe17 	ldw	r3,-8(fp)
 3042054:	e0bffa17 	ldw	r2,-24(fp)
 3042058:	18804015 	stw	r2,256(r3)
                        pFileContext->bFile = (pDir->Attribute & ATTR_ARCHIVE)?TRUE:FALSE;
 304205c:	e0bff817 	ldw	r2,-32(fp)
 3042060:	108002c3 	ldbu	r2,11(r2)
 3042064:	10803fcc 	andi	r2,r2,255
 3042068:	1080080c 	andi	r2,r2,32
 304206c:	1006c03a 	cmpne	r3,r2,zero
 3042070:	e0bffe17 	ldw	r2,-8(fp)
 3042074:	10c04115 	stw	r3,260(r2)
                        pFileContext->bDirectory = (pDir->Attribute & ATTR_DIRECTORY)?TRUE:FALSE;
 3042078:	e0bff817 	ldw	r2,-32(fp)
 304207c:	108002c3 	ldbu	r2,11(r2)
 3042080:	10803fcc 	andi	r2,r2,255
 3042084:	1080040c 	andi	r2,r2,16
 3042088:	1006c03a 	cmpne	r3,r2,zero
 304208c:	e0bffe17 	ldw	r2,-8(fp)
 3042090:	10c04215 	stw	r3,264(r2)
                        pFileContext->bVolume = (pDir->Attribute & ATTR_VOLUME_ID)?TRUE:FALSE;
 3042094:	e0bff817 	ldw	r2,-32(fp)
 3042098:	108002c3 	ldbu	r2,11(r2)
 304209c:	10803fcc 	andi	r2,r2,255
 30420a0:	1080020c 	andi	r2,r2,8
 30420a4:	1006c03a 	cmpne	r3,r2,zero
 30420a8:	e0bffe17 	ldw	r2,-8(fp)
 30420ac:	10c04315 	stw	r3,268(r2)
                        pFileContext->DirEntryIndex = pFatBrowseHandle->DirectoryIndex; // add in v2.0.0
 30420b0:	e0bffd17 	ldw	r2,-12(fp)
 30420b4:	10c00017 	ldw	r3,0(r2)
 30420b8:	e0bffe17 	ldw	r2,-8(fp)
 30420bc:	10c04415 	stw	r3,272(r2)
                        
                        //
                        pFileContext->Attribute = pDir->Attribute;
 30420c0:	e0bff817 	ldw	r2,-32(fp)
 30420c4:	10c002c3 	ldbu	r3,11(r2)
 30420c8:	e0bffe17 	ldw	r2,-8(fp)
 30420cc:	10c04505 	stb	r3,276(r2)
                        pFileContext->CreateTime = pDir->CreateTime;
 30420d0:	e0bff817 	ldw	r2,-32(fp)
 30420d4:	10c00383 	ldbu	r3,14(r2)
 30420d8:	108003c3 	ldbu	r2,15(r2)
 30420dc:	1004923a 	slli	r2,r2,8
 30420e0:	10c4b03a 	or	r2,r2,r3
 30420e4:	1007883a 	mov	r3,r2
 30420e8:	e0bffe17 	ldw	r2,-8(fp)
 30420ec:	10c0458d 	sth	r3,278(r2)
                        pFileContext->LastAccessDate = pDir->LastAccessDate;
 30420f0:	e0bff817 	ldw	r2,-32(fp)
 30420f4:	10c00483 	ldbu	r3,18(r2)
 30420f8:	108004c3 	ldbu	r2,19(r2)
 30420fc:	1004923a 	slli	r2,r2,8
 3042100:	10c4b03a 	or	r2,r2,r3
 3042104:	1007883a 	mov	r3,r2
 3042108:	e0bffe17 	ldw	r2,-8(fp)
 304210c:	10c0468d 	sth	r3,282(r2)
                        pFileContext->FirstLogicalClusterHi = pDir->FirstLogicalClusterHi;
 3042110:	e0bff817 	ldw	r2,-32(fp)
 3042114:	10c00503 	ldbu	r3,20(r2)
 3042118:	10800543 	ldbu	r2,21(r2)
 304211c:	1004923a 	slli	r2,r2,8
 3042120:	10c4b03a 	or	r2,r2,r3
 3042124:	1007883a 	mov	r3,r2
 3042128:	e0bffe17 	ldw	r2,-8(fp)
 304212c:	10c0470d 	sth	r3,284(r2)
                        pFileContext->LastWriteTime = pDir->LastWriteTime;
 3042130:	e0bff817 	ldw	r2,-32(fp)
 3042134:	10c00583 	ldbu	r3,22(r2)
 3042138:	108005c3 	ldbu	r2,23(r2)
 304213c:	1004923a 	slli	r2,r2,8
 3042140:	10c4b03a 	or	r2,r2,r3
 3042144:	1007883a 	mov	r3,r2
 3042148:	e0bffe17 	ldw	r2,-8(fp)
 304214c:	10c0478d 	sth	r3,286(r2)
                        pFileContext->LastWriteDate = pDir->LastWriteDate;
 3042150:	e0bff817 	ldw	r2,-32(fp)
 3042154:	10c00603 	ldbu	r3,24(r2)
 3042158:	10800643 	ldbu	r2,25(r2)
 304215c:	1004923a 	slli	r2,r2,8
 3042160:	10c4b03a 	or	r2,r2,r3
 3042164:	1007883a 	mov	r3,r2
 3042168:	e0bffe17 	ldw	r2,-8(fp)
 304216c:	10c0480d 	sth	r3,288(r2)
                        pFileContext->FirstLogicalCluster = pDir->FirstLogicalCluster;
 3042170:	e0bff817 	ldw	r2,-32(fp)
 3042174:	10c00683 	ldbu	r3,26(r2)
 3042178:	108006c3 	ldbu	r2,27(r2)
 304217c:	1004923a 	slli	r2,r2,8
 3042180:	10c4b03a 	or	r2,r2,r3
 3042184:	1007883a 	mov	r3,r2
 3042188:	e0bffe17 	ldw	r2,-8(fp)
 304218c:	10c0488d 	sth	r3,290(r2)
                        pFileContext->FileSize = pDir->FileSize;
 3042190:	e0fff817 	ldw	r3,-32(fp)
 3042194:	19000703 	ldbu	r4,28(r3)
 3042198:	18800743 	ldbu	r2,29(r3)
 304219c:	1004923a 	slli	r2,r2,8
 30421a0:	1108b03a 	or	r4,r2,r4
 30421a4:	18800783 	ldbu	r2,30(r3)
 30421a8:	1004943a 	slli	r2,r2,16
 30421ac:	1108b03a 	or	r4,r2,r4
 30421b0:	188007c3 	ldbu	r2,31(r3)
 30421b4:	1004963a 	slli	r2,r2,24
 30421b8:	1104b03a 	or	r2,r2,r4
 30421bc:	1007883a 	mov	r3,r2
 30421c0:	e0bffe17 	ldw	r2,-8(fp)
 30421c4:	10c04915 	stw	r3,292(r2)
                    }                        
                }                    
            }                
        }            
    }while (!bFind && !fatIsLastDir(pDir) && !bError);
 30421c8:	e0bffc17 	ldw	r2,-16(fp)
 30421cc:	1004c03a 	cmpne	r2,r2,zero
 30421d0:	1000071e 	bne	r2,zero,30421f0 <Fat_FileBrowseNext+0x4d8>
 30421d4:	e13ff817 	ldw	r4,-32(fp)
 30421d8:	30437c40 	call	30437c4 <fatIsLastDir>
 30421dc:	1004c03a 	cmpne	r2,r2,zero
 30421e0:	1000031e 	bne	r2,zero,30421f0 <Fat_FileBrowseNext+0x4d8>
 30421e4:	e0bffb17 	ldw	r2,-20(fp)
 30421e8:	1005003a 	cmpeq	r2,r2,zero
 30421ec:	103ee21e 	bne	r2,zero,3041d78 <Fat_FileBrowseNext+0x60>
    
    return bFind;
 30421f0:	e0bffc17 	ldw	r2,-16(fp)
 30421f4:	e0bfff15 	stw	r2,-4(fp)
 30421f8:	e0bfff17 	ldw	r2,-4(fp)
    
}
 30421fc:	e037883a 	mov	sp,fp
 3042200:	dfc00117 	ldw	ra,4(sp)
 3042204:	df000017 	ldw	fp,0(sp)
 3042208:	dec00204 	addi	sp,sp,8
 304220c:	f800283a 	ret

03042210 <Fat_FileCount>:


unsigned int Fat_FileCount(FAT_HANDLE Fat){
 3042210:	deffb004 	addi	sp,sp,-320
 3042214:	dfc04f15 	stw	ra,316(sp)
 3042218:	df004e15 	stw	fp,312(sp)
 304221c:	df004e04 	addi	fp,sp,312
 3042220:	e13fff15 	stw	r4,-4(fp)
    unsigned int nCount = 0;
 3042224:	e03fb215 	stw	zero,-312(fp)
    FAT_BROWSE_HANDLE hBrowse;
    FILE_CONTEXT FileContext;
    
    if (Fat_FileBrowseBegin(Fat, &hBrowse)){
 3042228:	e17fb304 	addi	r5,fp,-308
 304222c:	e13fff17 	ldw	r4,-4(fp)
 3042230:	3041c9c0 	call	3041c9c <Fat_FileBrowseBegin>
 3042234:	1005003a 	cmpeq	r2,r2,zero
 3042238:	1000091e 	bne	r2,zero,3042260 <Fat_FileCount+0x50>
        while(Fat_FileBrowseNext(&hBrowse, &FileContext))
 304223c:	00000306 	br	304224c <Fat_FileCount+0x3c>
            nCount++;
 3042240:	e0bfb217 	ldw	r2,-312(fp)
 3042244:	10800044 	addi	r2,r2,1
 3042248:	e0bfb215 	stw	r2,-312(fp)
    unsigned int nCount = 0;
    FAT_BROWSE_HANDLE hBrowse;
    FILE_CONTEXT FileContext;
    
    if (Fat_FileBrowseBegin(Fat, &hBrowse)){
        while(Fat_FileBrowseNext(&hBrowse, &FileContext))
 304224c:	e13fb304 	addi	r4,fp,-308
 3042250:	e17fb504 	addi	r5,fp,-300
 3042254:	3041d180 	call	3041d18 <Fat_FileBrowseNext>
 3042258:	1004c03a 	cmpne	r2,r2,zero
 304225c:	103ff81e 	bne	r2,zero,3042240 <Fat_FileCount+0x30>
            nCount++;
    }
    
    return nCount;
 3042260:	e0bfb217 	ldw	r2,-312(fp)
}
 3042264:	e037883a 	mov	sp,fp
 3042268:	dfc00117 	ldw	ra,4(sp)
 304226c:	df000017 	ldw	fp,0(sp)
 3042270:	dec00204 	addi	sp,sp,8
 3042274:	f800283a 	ret

03042278 <fatSameLongFilename>:

bool fatSameLongFilename(alt_u16 *p1, alt_u16 *p2){
 3042278:	defffc04 	addi	sp,sp,-16
 304227c:	df000315 	stw	fp,12(sp)
 3042280:	df000304 	addi	fp,sp,12
 3042284:	e13ffe15 	stw	r4,-8(fp)
 3042288:	e17fff15 	stw	r5,-4(fp)
    bool bSame = TRUE;
 304228c:	00800044 	movi	r2,1
 3042290:	e0bffd15 	stw	r2,-12(fp)
    
    while(bSame && ((*p1 != 0) || (*p2 != 0))){
 3042294:	00000e06 	br	30422d0 <fatSameLongFilename+0x58>
        if (*p1 != *p2){
 3042298:	e0bffe17 	ldw	r2,-8(fp)
 304229c:	10c0000b 	ldhu	r3,0(r2)
 30422a0:	e0bfff17 	ldw	r2,-4(fp)
 30422a4:	1080000b 	ldhu	r2,0(r2)
 30422a8:	18ffffcc 	andi	r3,r3,65535
 30422ac:	10bfffcc 	andi	r2,r2,65535
 30422b0:	18800126 	beq	r3,r2,30422b8 <fatSameLongFilename+0x40>
            bSame = FALSE;
 30422b4:	e03ffd15 	stw	zero,-12(fp)
        }
        p1++;
 30422b8:	e0bffe17 	ldw	r2,-8(fp)
 30422bc:	10800084 	addi	r2,r2,2
 30422c0:	e0bffe15 	stw	r2,-8(fp)
        p2++;
 30422c4:	e0bfff17 	ldw	r2,-4(fp)
 30422c8:	10800084 	addi	r2,r2,2
 30422cc:	e0bfff15 	stw	r2,-4(fp)
}

bool fatSameLongFilename(alt_u16 *p1, alt_u16 *p2){
    bool bSame = TRUE;
    
    while(bSame && ((*p1 != 0) || (*p2 != 0))){
 30422d0:	e0bffd17 	ldw	r2,-12(fp)
 30422d4:	1005003a 	cmpeq	r2,r2,zero
 30422d8:	10000a1e 	bne	r2,zero,3042304 <fatSameLongFilename+0x8c>
 30422dc:	e0bffe17 	ldw	r2,-8(fp)
 30422e0:	1080000b 	ldhu	r2,0(r2)
 30422e4:	10bfffcc 	andi	r2,r2,65535
 30422e8:	1004c03a 	cmpne	r2,r2,zero
 30422ec:	103fea1e 	bne	r2,zero,3042298 <fatSameLongFilename+0x20>
 30422f0:	e0bfff17 	ldw	r2,-4(fp)
 30422f4:	1080000b 	ldhu	r2,0(r2)
 30422f8:	10bfffcc 	andi	r2,r2,65535
 30422fc:	1004c03a 	cmpne	r2,r2,zero
 3042300:	103fe51e 	bne	r2,zero,3042298 <fatSameLongFilename+0x20>
        p1++;
        p2++;
        
    }
    
    return bSame;
 3042304:	e0bffd17 	ldw	r2,-12(fp)
}
 3042308:	e037883a 	mov	sp,fp
 304230c:	df000017 	ldw	fp,0(sp)
 3042310:	dec00104 	addi	sp,sp,4
 3042314:	f800283a 	ret

03042318 <fatComposeShortFilename>:


void fatComposeShortFilename(FAT_DIRECTORY *pDir, char *szFilename){
 3042318:	defffb04 	addi	sp,sp,-20
 304231c:	df000415 	stw	fp,16(sp)
 3042320:	df000404 	addi	fp,sp,16
 3042324:	e13ffe15 	stw	r4,-8(fp)
 3042328:	e17fff15 	stw	r5,-4(fp)
    int i,nPos=0;
 304232c:	e03ffc15 	stw	zero,-16(fp)
    
    i=0;
 3042330:	e03ffd15 	stw	zero,-12(fp)
    while(i < 8 && pDir->Name[i] != 0 && pDir->Name[i] != ' ')
 3042334:	00000f06 	br	3042374 <fatComposeShortFilename+0x5c>
        szFilename[nPos++] = pDir->Name[i++];
 3042338:	e0bffc17 	ldw	r2,-16(fp)
 304233c:	1007883a 	mov	r3,r2
 3042340:	e0bfff17 	ldw	r2,-4(fp)
 3042344:	1889883a 	add	r4,r3,r2
 3042348:	e0fffd17 	ldw	r3,-12(fp)
 304234c:	e0bffe17 	ldw	r2,-8(fp)
 3042350:	10c5883a 	add	r2,r2,r3
 3042354:	10800003 	ldbu	r2,0(r2)
 3042358:	20800005 	stb	r2,0(r4)
 304235c:	e0bffc17 	ldw	r2,-16(fp)
 3042360:	10800044 	addi	r2,r2,1
 3042364:	e0bffc15 	stw	r2,-16(fp)
 3042368:	e0bffd17 	ldw	r2,-12(fp)
 304236c:	10800044 	addi	r2,r2,1
 3042370:	e0bffd15 	stw	r2,-12(fp)

void fatComposeShortFilename(FAT_DIRECTORY *pDir, char *szFilename){
    int i,nPos=0;
    
    i=0;
    while(i < 8 && pDir->Name[i] != 0 && pDir->Name[i] != ' ')
 3042374:	e0bffd17 	ldw	r2,-12(fp)
 3042378:	10800208 	cmpgei	r2,r2,8
 304237c:	1000121e 	bne	r2,zero,30423c8 <fatComposeShortFilename+0xb0>
 3042380:	e0fffd17 	ldw	r3,-12(fp)
 3042384:	e0bffe17 	ldw	r2,-8(fp)
 3042388:	10c5883a 	add	r2,r2,r3
 304238c:	10800003 	ldbu	r2,0(r2)
 3042390:	10803fcc 	andi	r2,r2,255
 3042394:	1080201c 	xori	r2,r2,128
 3042398:	10bfe004 	addi	r2,r2,-128
 304239c:	1005003a 	cmpeq	r2,r2,zero
 30423a0:	1000091e 	bne	r2,zero,30423c8 <fatComposeShortFilename+0xb0>
 30423a4:	e0fffd17 	ldw	r3,-12(fp)
 30423a8:	e0bffe17 	ldw	r2,-8(fp)
 30423ac:	10c5883a 	add	r2,r2,r3
 30423b0:	10800003 	ldbu	r2,0(r2)
 30423b4:	10803fcc 	andi	r2,r2,255
 30423b8:	1080201c 	xori	r2,r2,128
 30423bc:	10bfe004 	addi	r2,r2,-128
 30423c0:	10800818 	cmpnei	r2,r2,32
 30423c4:	103fdc1e 	bne	r2,zero,3042338 <fatComposeShortFilename+0x20>
        szFilename[nPos++] = pDir->Name[i++];
    
    if (pDir->Attribute & (ATTR_ARCHIVE | ATTR_DIRECTORY)){
 30423c8:	e0bffe17 	ldw	r2,-8(fp)
 30423cc:	108002c3 	ldbu	r2,11(r2)
 30423d0:	10803fcc 	andi	r2,r2,255
 30423d4:	10800c0c 	andi	r2,r2,48
 30423d8:	1005003a 	cmpeq	r2,r2,zero
 30423dc:	1000381e 	bne	r2,zero,30424c0 <fatComposeShortFilename+0x1a8>
        if (pDir->Attribute & (ATTR_ARCHIVE | ATTR_DIRECTORY))     
 30423e0:	e0bffe17 	ldw	r2,-8(fp)
 30423e4:	108002c3 	ldbu	r2,11(r2)
 30423e8:	10803fcc 	andi	r2,r2,255
 30423ec:	10800c0c 	andi	r2,r2,48
 30423f0:	1005003a 	cmpeq	r2,r2,zero
 30423f4:	1000091e 	bne	r2,zero,304241c <fatComposeShortFilename+0x104>
            szFilename[nPos++] = '.';   
 30423f8:	e0bffc17 	ldw	r2,-16(fp)
 30423fc:	1007883a 	mov	r3,r2
 3042400:	e0bfff17 	ldw	r2,-4(fp)
 3042404:	1887883a 	add	r3,r3,r2
 3042408:	00800b84 	movi	r2,46
 304240c:	18800005 	stb	r2,0(r3)
 3042410:	e0bffc17 	ldw	r2,-16(fp)
 3042414:	10800044 	addi	r2,r2,1
 3042418:	e0bffc15 	stw	r2,-16(fp)
        i=0;
 304241c:	e03ffd15 	stw	zero,-12(fp)
        while(i < 3 && pDir->Extension[i] != 0 && pDir->Extension[i] != ' ')
 3042420:	00001006 	br	3042464 <fatComposeShortFilename+0x14c>
            szFilename[nPos++] = pDir->Extension[i++];
 3042424:	e0bffc17 	ldw	r2,-16(fp)
 3042428:	1007883a 	mov	r3,r2
 304242c:	e0bfff17 	ldw	r2,-4(fp)
 3042430:	1889883a 	add	r4,r3,r2
 3042434:	e0fffd17 	ldw	r3,-12(fp)
 3042438:	e0bffe17 	ldw	r2,-8(fp)
 304243c:	1885883a 	add	r2,r3,r2
 3042440:	10800204 	addi	r2,r2,8
 3042444:	10800003 	ldbu	r2,0(r2)
 3042448:	20800005 	stb	r2,0(r4)
 304244c:	e0bffc17 	ldw	r2,-16(fp)
 3042450:	10800044 	addi	r2,r2,1
 3042454:	e0bffc15 	stw	r2,-16(fp)
 3042458:	e0bffd17 	ldw	r2,-12(fp)
 304245c:	10800044 	addi	r2,r2,1
 3042460:	e0bffd15 	stw	r2,-12(fp)
    
    if (pDir->Attribute & (ATTR_ARCHIVE | ATTR_DIRECTORY)){
        if (pDir->Attribute & (ATTR_ARCHIVE | ATTR_DIRECTORY))     
            szFilename[nPos++] = '.';   
        i=0;
        while(i < 3 && pDir->Extension[i] != 0 && pDir->Extension[i] != ' ')
 3042464:	e0bffd17 	ldw	r2,-12(fp)
 3042468:	108000c8 	cmpgei	r2,r2,3
 304246c:	1000141e 	bne	r2,zero,30424c0 <fatComposeShortFilename+0x1a8>
 3042470:	e0fffd17 	ldw	r3,-12(fp)
 3042474:	e0bffe17 	ldw	r2,-8(fp)
 3042478:	1885883a 	add	r2,r3,r2
 304247c:	10800204 	addi	r2,r2,8
 3042480:	10800003 	ldbu	r2,0(r2)
 3042484:	10803fcc 	andi	r2,r2,255
 3042488:	1080201c 	xori	r2,r2,128
 304248c:	10bfe004 	addi	r2,r2,-128
 3042490:	1005003a 	cmpeq	r2,r2,zero
 3042494:	10000a1e 	bne	r2,zero,30424c0 <fatComposeShortFilename+0x1a8>
 3042498:	e0fffd17 	ldw	r3,-12(fp)
 304249c:	e0bffe17 	ldw	r2,-8(fp)
 30424a0:	1885883a 	add	r2,r3,r2
 30424a4:	10800204 	addi	r2,r2,8
 30424a8:	10800003 	ldbu	r2,0(r2)
 30424ac:	10803fcc 	andi	r2,r2,255
 30424b0:	1080201c 	xori	r2,r2,128
 30424b4:	10bfe004 	addi	r2,r2,-128
 30424b8:	10800818 	cmpnei	r2,r2,32
 30424bc:	103fd91e 	bne	r2,zero,3042424 <fatComposeShortFilename+0x10c>
            szFilename[nPos++] = pDir->Extension[i++];
    }            
    szFilename[nPos++] = 0;
 30424c0:	e0bffc17 	ldw	r2,-16(fp)
 30424c4:	1007883a 	mov	r3,r2
 30424c8:	e0bfff17 	ldw	r2,-4(fp)
 30424cc:	1885883a 	add	r2,r3,r2
 30424d0:	10000005 	stb	zero,0(r2)
 30424d4:	e0bffc17 	ldw	r2,-16(fp)
 30424d8:	10800044 	addi	r2,r2,1
 30424dc:	e0bffc15 	stw	r2,-16(fp)
}
 30424e0:	e037883a 	mov	sp,fp
 30424e4:	df000017 	ldw	fp,0(sp)
 30424e8:	dec00104 	addi	sp,sp,4
 30424ec:	f800283a 	ret

030424f0 <Fat_FileExist>:





bool Fat_FileExist(FAT_HANDLE Fat, const char *pFilename){
 30424f0:	deffaf04 	addi	sp,sp,-324
 30424f4:	dfc05015 	stw	ra,320(sp)
 30424f8:	df004f15 	stw	fp,316(sp)
 30424fc:	df004f04 	addi	fp,sp,316
 3042500:	e13ffe15 	stw	r4,-8(fp)
 3042504:	e17fff15 	stw	r5,-4(fp)
    bool bFind = FALSE;
 3042508:	e03fb115 	stw	zero,-316(fp)
    FAT_BROWSE_HANDLE hBrowse;     
    FILE_CONTEXT FileContext;
    if (Fat_FileBrowseBegin(Fat, &hBrowse)){
 304250c:	e17fb204 	addi	r5,fp,-312
 3042510:	e13ffe17 	ldw	r4,-8(fp)
 3042514:	3041c9c0 	call	3041c9c <Fat_FileBrowseBegin>
 3042518:	1005003a 	cmpeq	r2,r2,zero
 304251c:	10001a1e 	bne	r2,zero,3042588 <Fat_FileExist+0x98>
        while (!bFind && Fat_FileBrowseNext(&hBrowse, &FileContext)){
 3042520:	00000f06 	br	3042560 <Fat_FileExist+0x70>
            if (FileContext.bLongFilename){
 3042524:	e0bff417 	ldw	r2,-48(fp)
 3042528:	1005003a 	cmpeq	r2,r2,zero
 304252c:	1000051e 	bne	r2,zero,3042544 <Fat_FileExist+0x54>
                bFind = fatSameLongFilename((alt_u16 *)FileContext.szName, (alt_u16 *)pFilename);
 3042530:	e13fb404 	addi	r4,fp,-304
 3042534:	e17fff17 	ldw	r5,-4(fp)
 3042538:	30422780 	call	3042278 <fatSameLongFilename>
 304253c:	e0bfb115 	stw	r2,-316(fp)
 3042540:	00000706 	br	3042560 <Fat_FileExist+0x70>
            }else{
                if (strcmpi(FileContext.szName, pFilename) == 0)
 3042544:	e13fb404 	addi	r4,fp,-304
 3042548:	e17fff17 	ldw	r5,-4(fp)
 304254c:	304c1f00 	call	304c1f0 <strcasecmp>
 3042550:	1004c03a 	cmpne	r2,r2,zero
 3042554:	1000021e 	bne	r2,zero,3042560 <Fat_FileExist+0x70>
                    bFind = TRUE;
 3042558:	00800044 	movi	r2,1
 304255c:	e0bfb115 	stw	r2,-316(fp)
bool Fat_FileExist(FAT_HANDLE Fat, const char *pFilename){
    bool bFind = FALSE;
    FAT_BROWSE_HANDLE hBrowse;     
    FILE_CONTEXT FileContext;
    if (Fat_FileBrowseBegin(Fat, &hBrowse)){
        while (!bFind && Fat_FileBrowseNext(&hBrowse, &FileContext)){
 3042560:	e0bfb117 	ldw	r2,-316(fp)
 3042564:	1004c03a 	cmpne	r2,r2,zero
 3042568:	1000051e 	bne	r2,zero,3042580 <Fat_FileExist+0x90>
 304256c:	e13fb204 	addi	r4,fp,-312
 3042570:	e17fb404 	addi	r5,fp,-304
 3042574:	3041d180 	call	3041d18 <Fat_FileBrowseNext>
 3042578:	1004c03a 	cmpne	r2,r2,zero
 304257c:	103fe91e 	bne	r2,zero,3042524 <Fat_FileExist+0x34>
            }else{
                if (strcmpi(FileContext.szName, pFilename) == 0)
                    bFind = TRUE;
            }    
        } // while 
        Fat_FileClose(Fat); 
 3042580:	e13ffe17 	ldw	r4,-8(fp)
 3042584:	3042e240 	call	3042e24 <Fat_FileClose>
    }
    return bFind;            
 3042588:	e0bfb117 	ldw	r2,-316(fp)
}    
 304258c:	e037883a 	mov	sp,fp
 3042590:	dfc00117 	ldw	ra,4(sp)
 3042594:	df000017 	ldw	fp,0(sp)
 3042598:	dec00204 	addi	sp,sp,8
 304259c:	f800283a 	ret

030425a0 <Fat_FileOpen>:
 
// File Access
FAT_FILE_HANDLE Fat_FileOpen(FAT_HANDLE Fat, const char *pFilename){
 30425a0:	deff6b04 	addi	sp,sp,-596
 30425a4:	dfc09415 	stw	ra,592(sp)
 30425a8:	df009315 	stw	fp,588(sp)
 30425ac:	df009304 	addi	fp,sp,588
 30425b0:	e13ffe15 	stw	r4,-8(fp)
 30425b4:	e17fff15 	stw	r5,-4(fp)
    bool bFind = FALSE;
 30425b8:	e03f7115 	stw	zero,-572(fp)
    FAT_BROWSE_HANDLE hBrowse;     
    FILE_CONTEXT FileContext;
    FAT_FILE_INFO *pFile = 0;
 30425bc:	e03f7015 	stw	zero,-576(fp)
    int nPos = 0;
 30425c0:	e03f6f15 	stw	zero,-580(fp)
    char szWaveFilename[MAX_FILENAME_LENGTH];
    
    if (Fat_FileBrowseBegin(Fat, &hBrowse)){
 30425c4:	e17f7204 	addi	r5,fp,-568
 30425c8:	e13ffe17 	ldw	r4,-8(fp)
 30425cc:	3041c9c0 	call	3041c9c <Fat_FileBrowseBegin>
 30425d0:	1005003a 	cmpeq	r2,r2,zero
 30425d4:	10007a1e 	bne	r2,zero,30427c0 <Fat_FileOpen+0x220>
        while (!bFind && Fat_FileBrowseNext(&hBrowse, &FileContext)){
 30425d8:	00005206 	br	3042724 <Fat_FileOpen+0x184>
            if (FileContext.bLongFilename){
 30425dc:	e0bfb417 	ldw	r2,-304(fp)
 30425e0:	1005003a 	cmpeq	r2,r2,zero
 30425e4:	1000481e 	bne	r2,zero,3042708 <Fat_FileOpen+0x168>
                //bFind = fatSameLongFilename((alt_u16 *)FileContext.szName, (alt_u16 *)pFilename);
                nPos = 0;
 30425e8:	e03f6f15 	stw	zero,-580(fp)
                alt_u16 *pData16;
                alt_u8 *pData8;
                pData16 = (alt_u16 *)FileContext.szName;
 30425ec:	e0bf7404 	addi	r2,fp,-560
 30425f0:	e0bf6e15 	stw	r2,-584(fp)
                pData8 = FileContext.szName;
 30425f4:	e0bf7404 	addi	r2,fp,-560
 30425f8:	e0bf6d15 	stw	r2,-588(fp)
                while(*pData16){
 30425fc:	00003106 	br	30426c4 <Fat_FileOpen+0x124>
                    if (*pData8 && *pData8 != ' ')
 3042600:	e0bf6d17 	ldw	r2,-588(fp)
 3042604:	10800003 	ldbu	r2,0(r2)
 3042608:	10803fcc 	andi	r2,r2,255
 304260c:	1005003a 	cmpeq	r2,r2,zero
 3042610:	10000f1e 	bne	r2,zero,3042650 <Fat_FileOpen+0xb0>
 3042614:	e0bf6d17 	ldw	r2,-588(fp)
 3042618:	10800003 	ldbu	r2,0(r2)
 304261c:	10803fcc 	andi	r2,r2,255
 3042620:	10800820 	cmpeqi	r2,r2,32
 3042624:	10000a1e 	bne	r2,zero,3042650 <Fat_FileOpen+0xb0>
                        szWaveFilename[nPos++] = *pData8;
 3042628:	e13f6f17 	ldw	r4,-580(fp)
 304262c:	e0bf6d17 	ldw	r2,-588(fp)
 3042630:	10800003 	ldbu	r2,0(r2)
 3042634:	1007883a 	mov	r3,r2
 3042638:	e0bfbe04 	addi	r2,fp,-264
 304263c:	1105883a 	add	r2,r2,r4
 3042640:	10c00005 	stb	r3,0(r2)
 3042644:	e0bf6f17 	ldw	r2,-580(fp)
 3042648:	10800044 	addi	r2,r2,1
 304264c:	e0bf6f15 	stw	r2,-580(fp)
                    pData8++;
 3042650:	e0bf6d17 	ldw	r2,-588(fp)
 3042654:	10800044 	addi	r2,r2,1
 3042658:	e0bf6d15 	stw	r2,-588(fp)
                    if (*pData8 && *pData8 != ' ')
 304265c:	e0bf6d17 	ldw	r2,-588(fp)
 3042660:	10800003 	ldbu	r2,0(r2)
 3042664:	10803fcc 	andi	r2,r2,255
 3042668:	1005003a 	cmpeq	r2,r2,zero
 304266c:	10000f1e 	bne	r2,zero,30426ac <Fat_FileOpen+0x10c>
 3042670:	e0bf6d17 	ldw	r2,-588(fp)
 3042674:	10800003 	ldbu	r2,0(r2)
 3042678:	10803fcc 	andi	r2,r2,255
 304267c:	10800820 	cmpeqi	r2,r2,32
 3042680:	10000a1e 	bne	r2,zero,30426ac <Fat_FileOpen+0x10c>
                        szWaveFilename[nPos++] = *pData8;
 3042684:	e13f6f17 	ldw	r4,-580(fp)
 3042688:	e0bf6d17 	ldw	r2,-588(fp)
 304268c:	10800003 	ldbu	r2,0(r2)
 3042690:	1007883a 	mov	r3,r2
 3042694:	e0bfbe04 	addi	r2,fp,-264
 3042698:	1105883a 	add	r2,r2,r4
 304269c:	10c00005 	stb	r3,0(r2)
 30426a0:	e0bf6f17 	ldw	r2,-580(fp)
 30426a4:	10800044 	addi	r2,r2,1
 30426a8:	e0bf6f15 	stw	r2,-580(fp)
                    pData8++;                    
 30426ac:	e0bf6d17 	ldw	r2,-588(fp)
 30426b0:	10800044 	addi	r2,r2,1
 30426b4:	e0bf6d15 	stw	r2,-588(fp)
                    //    
                    pData16++;
 30426b8:	e0bf6e17 	ldw	r2,-584(fp)
 30426bc:	10800084 	addi	r2,r2,2
 30426c0:	e0bf6e15 	stw	r2,-584(fp)
                nPos = 0;
                alt_u16 *pData16;
                alt_u8 *pData8;
                pData16 = (alt_u16 *)FileContext.szName;
                pData8 = FileContext.szName;
                while(*pData16){
 30426c4:	e0bf6e17 	ldw	r2,-584(fp)
 30426c8:	1080000b 	ldhu	r2,0(r2)
 30426cc:	10bfffcc 	andi	r2,r2,65535
 30426d0:	1004c03a 	cmpne	r2,r2,zero
 30426d4:	103fca1e 	bne	r2,zero,3042600 <Fat_FileOpen+0x60>
                        szWaveFilename[nPos++] = *pData8;
                    pData8++;                    
                    //    
                    pData16++;
                }
                szWaveFilename[nPos] = 0;
 30426d8:	e0ff6f17 	ldw	r3,-580(fp)
 30426dc:	e0bfbe04 	addi	r2,fp,-264
 30426e0:	10c5883a 	add	r2,r2,r3
 30426e4:	10000005 	stb	zero,0(r2)
                
                if(strcmp(pFilename,szWaveFilename) == 0)
 30426e8:	e17fbe04 	addi	r5,fp,-264
 30426ec:	e13fff17 	ldw	r4,-4(fp)
 30426f0:	304c2a00 	call	304c2a0 <strcmp>
 30426f4:	1004c03a 	cmpne	r2,r2,zero
 30426f8:	10000a1e 	bne	r2,zero,3042724 <Fat_FileOpen+0x184>
                    bFind = TRUE;
 30426fc:	00800044 	movi	r2,1
 3042700:	e0bf7115 	stw	r2,-572(fp)
 3042704:	00000706 	br	3042724 <Fat_FileOpen+0x184>
            }else{
                if (strcmpi(FileContext.szName, pFilename) == 0)
 3042708:	e13f7404 	addi	r4,fp,-560
 304270c:	e17fff17 	ldw	r5,-4(fp)
 3042710:	304c1f00 	call	304c1f0 <strcasecmp>
 3042714:	1004c03a 	cmpne	r2,r2,zero
 3042718:	1000021e 	bne	r2,zero,3042724 <Fat_FileOpen+0x184>
                    bFind = TRUE;
 304271c:	00800044 	movi	r2,1
 3042720:	e0bf7115 	stw	r2,-572(fp)
    FAT_FILE_INFO *pFile = 0;
    int nPos = 0;
    char szWaveFilename[MAX_FILENAME_LENGTH];
    
    if (Fat_FileBrowseBegin(Fat, &hBrowse)){
        while (!bFind && Fat_FileBrowseNext(&hBrowse, &FileContext)){
 3042724:	e0bf7117 	ldw	r2,-572(fp)
 3042728:	1004c03a 	cmpne	r2,r2,zero
 304272c:	1000051e 	bne	r2,zero,3042744 <Fat_FileOpen+0x1a4>
 3042730:	e13f7204 	addi	r4,fp,-568
 3042734:	e17f7404 	addi	r5,fp,-560
 3042738:	3041d180 	call	3041d18 <Fat_FileBrowseNext>
 304273c:	1004c03a 	cmpne	r2,r2,zero
 3042740:	103fa61e 	bne	r2,zero,30425dc <Fat_FileOpen+0x3c>
                if (strcmpi(FileContext.szName, pFilename) == 0)
                    bFind = TRUE;
            }    
        } // while 
        
        if (bFind){
 3042744:	e0bf7117 	ldw	r2,-572(fp)
 3042748:	1005003a 	cmpeq	r2,r2,zero
 304274c:	10001c1e 	bne	r2,zero,30427c0 <Fat_FileOpen+0x220>
            pFile = malloc(sizeof(FAT_FILE_INFO));
 3042750:	01005004 	movi	r4,320
 3042754:	304b32c0 	call	304b32c <malloc>
 3042758:	e0bf7015 	stw	r2,-576(fp)
            if (pFile){
 304275c:	e0bf7017 	ldw	r2,-576(fp)
 3042760:	1005003a 	cmpeq	r2,r2,zero
 3042764:	1000161e 	bne	r2,zero,30427c0 <Fat_FileOpen+0x220>
                pFile->OpenAttribute = FILE_OPEN_READ; 
 3042768:	e0ff7017 	ldw	r3,-576(fp)
 304276c:	00800044 	movi	r2,1
 3042770:	18800115 	stw	r2,4(r3)
                pFile->SeekPos = 0;
 3042774:	e0bf7017 	ldw	r2,-576(fp)
 3042778:	10000215 	stw	zero,8(r2)
                pFile->Directory = FileContext;
 304277c:	e0bf7017 	ldw	r2,-576(fp)
 3042780:	11000504 	addi	r4,r2,20
 3042784:	e17f7404 	addi	r5,fp,-560
 3042788:	01804a04 	movi	r6,296
 304278c:	304ba800 	call	304ba80 <memcpy>
                pFile->IsOpened = TRUE;
 3042790:	e0ff7017 	ldw	r3,-576(fp)
 3042794:	00800044 	movi	r2,1
 3042798:	18800015 	stw	r2,0(r3)
                pFile->Cluster = FileContext.FirstLogicalCluster;
 304279c:	e0bfbc8b 	ldhu	r2,-270(fp)
 30427a0:	10ffffcc 	andi	r3,r2,65535
 30427a4:	e0bf7017 	ldw	r2,-576(fp)
 30427a8:	10c00315 	stw	r3,12(r2)
                pFile->ClusterSeq = 0;
 30427ac:	e0bf7017 	ldw	r2,-576(fp)
 30427b0:	10000415 	stw	zero,16(r2)
                pFile->Fat = Fat;
 30427b4:	e0ff7017 	ldw	r3,-576(fp)
 30427b8:	e0bffe17 	ldw	r2,-8(fp)
 30427bc:	18804f15 	stw	r2,316(r3)
            }    
        }    
    }  

    
    return (FAT_FILE_HANDLE)pFile;  
 30427c0:	e0bf7017 	ldw	r2,-576(fp)
}
 30427c4:	e037883a 	mov	sp,fp
 30427c8:	dfc00117 	ldw	ra,4(sp)
 30427cc:	df000017 	ldw	fp,0(sp)
 30427d0:	dec00204 	addi	sp,sp,8
 30427d4:	f800283a 	ret

030427d8 <Fat_FileSize>:


unsigned int Fat_FileSize(FAT_FILE_HANDLE hFileHandle){
 30427d8:	defffc04 	addi	sp,sp,-16
 30427dc:	df000315 	stw	fp,12(sp)
 30427e0:	df000304 	addi	fp,sp,12
 30427e4:	e13ffe15 	stw	r4,-8(fp)
    FAT_FILE_INFO *f = (FAT_FILE_INFO *)hFileHandle;
 30427e8:	e0bffe17 	ldw	r2,-8(fp)
 30427ec:	e0bffd15 	stw	r2,-12(fp)
    if (f->IsOpened)
 30427f0:	e0bffd17 	ldw	r2,-12(fp)
 30427f4:	10800017 	ldw	r2,0(r2)
 30427f8:	1005003a 	cmpeq	r2,r2,zero
 30427fc:	1000041e 	bne	r2,zero,3042810 <Fat_FileSize+0x38>
        return f->Directory.FileSize;
 3042800:	e0bffd17 	ldw	r2,-12(fp)
 3042804:	10804e17 	ldw	r2,312(r2)
 3042808:	e0bfff15 	stw	r2,-4(fp)
 304280c:	00000106 	br	3042814 <Fat_FileSize+0x3c>
    return 0;        
 3042810:	e03fff15 	stw	zero,-4(fp)
 3042814:	e0bfff17 	ldw	r2,-4(fp)
}
 3042818:	e037883a 	mov	sp,fp
 304281c:	df000017 	ldw	fp,0(sp)
 3042820:	dec00104 	addi	sp,sp,4
 3042824:	f800283a 	ret

03042828 <Fat_FileRead>:


bool Fat_FileRead(FAT_FILE_HANDLE hFileHandle, void *pBuffer, const int nBufferSize){
 3042828:	deffee04 	addi	sp,sp,-72
 304282c:	dfc01115 	stw	ra,68(sp)
 3042830:	df001015 	stw	fp,64(sp)
 3042834:	df001004 	addi	fp,sp,64
 3042838:	e13ffc15 	stw	r4,-16(fp)
 304283c:	e17ffd15 	stw	r5,-12(fp)
 3042840:	e1bffe15 	stw	r6,-8(fp)
    FAT_FILE_INFO *f = (FAT_FILE_INFO *)hFileHandle;
 3042844:	e0bffc17 	ldw	r2,-16(fp)
 3042848:	e0bffb15 	stw	r2,-20(fp)
    VOLUME_INFO *pVol;
    alt_u32 Pos, PhysicalSecter, NextCluster, Cluster;
    alt_u32 BytesPerCluster, nReadCount=0, nClusterSeq;
 304284c:	e03ff415 	stw	zero,-48(fp)
    int s;
    bool bSuccess= TRUE;
 3042850:	00800044 	movi	r2,1
 3042854:	e0bff115 	stw	r2,-60(fp)
    
    if (!f || !f->Fat)
 3042858:	e0bffb17 	ldw	r2,-20(fp)
 304285c:	1005003a 	cmpeq	r2,r2,zero
 3042860:	1000041e 	bne	r2,zero,3042874 <Fat_FileRead+0x4c>
 3042864:	e0bffb17 	ldw	r2,-20(fp)
 3042868:	10804f17 	ldw	r2,316(r2)
 304286c:	1004c03a 	cmpne	r2,r2,zero
 3042870:	1000021e 	bne	r2,zero,304287c <Fat_FileRead+0x54>
        return FALSE;
 3042874:	e03fff15 	stw	zero,-4(fp)
 3042878:	00011b06 	br	3042ce8 <Fat_FileRead+0x4c0>
    pVol = (VOLUME_INFO *)f->Fat;        
 304287c:	e0bffb17 	ldw	r2,-20(fp)
 3042880:	10804f17 	ldw	r2,316(r2)
 3042884:	e0bffa15 	stw	r2,-24(fp)
    
    if (!f->IsOpened){
 3042888:	e0bffb17 	ldw	r2,-20(fp)
 304288c:	10800017 	ldw	r2,0(r2)
 3042890:	1004c03a 	cmpne	r2,r2,zero
 3042894:	1000061e 	bne	r2,zero,30428b0 <Fat_FileRead+0x88>
        FAT_DEBUG(("[FAT] Fat_FileRead, file not opened\r\n"));
 3042898:	0100c1b4 	movhi	r4,774
 304289c:	212c1204 	addi	r4,r4,-20408
 30428a0:	30468500 	call	3046850 <myprintf>
        return bSuccess;
 30428a4:	e0bff117 	ldw	r2,-60(fp)
 30428a8:	e0bfff15 	stw	r2,-4(fp)
 30428ac:	00010e06 	br	3042ce8 <Fat_FileRead+0x4c0>
    }        
        
    BytesPerCluster = pVol->nBytesPerCluster; //gVolumeInfo.BPB_BytsPerSec * gVolumeInfo.BPB_SecPerCluster;  
 30428b0:	e0bffa17 	ldw	r2,-24(fp)
 30428b4:	10800c17 	ldw	r2,48(r2)
 30428b8:	e0bff515 	stw	r2,-44(fp)
    Pos = f->SeekPos;
 30428bc:	e0bffb17 	ldw	r2,-20(fp)
 30428c0:	10800217 	ldw	r2,8(r2)
 30428c4:	e0bff915 	stw	r2,-28(fp)
    if (BytesPerCluster == 32768){
 30428c8:	e0fff517 	ldw	r3,-44(fp)
 30428cc:	00a00014 	movui	r2,32768
 30428d0:	18800a1e 	bne	r3,r2,30428fc <Fat_FileRead+0xd4>
        nClusterSeq = Pos >> 15;
 30428d4:	e0bff917 	ldw	r2,-28(fp)
 30428d8:	1004d3fa 	srli	r2,r2,15
 30428dc:	e0bff315 	stw	r2,-52(fp)
        Pos -= (f->ClusterSeq << 15);
 30428e0:	e0bffb17 	ldw	r2,-20(fp)
 30428e4:	10800417 	ldw	r2,16(r2)
 30428e8:	100693fa 	slli	r3,r2,15
 30428ec:	e0bff917 	ldw	r2,-28(fp)
 30428f0:	10c5c83a 	sub	r2,r2,r3
 30428f4:	e0bff915 	stw	r2,-28(fp)
 30428f8:	00002506 	br	3042990 <Fat_FileRead+0x168>
    }else if (BytesPerCluster == 16384){
 30428fc:	e0bff517 	ldw	r2,-44(fp)
 3042900:	10900018 	cmpnei	r2,r2,16384
 3042904:	10000a1e 	bne	r2,zero,3042930 <Fat_FileRead+0x108>
        nClusterSeq = Pos >> 14;
 3042908:	e0bff917 	ldw	r2,-28(fp)
 304290c:	1004d3ba 	srli	r2,r2,14
 3042910:	e0bff315 	stw	r2,-52(fp)
        Pos -= (f->ClusterSeq << 14);
 3042914:	e0bffb17 	ldw	r2,-20(fp)
 3042918:	10800417 	ldw	r2,16(r2)
 304291c:	100693ba 	slli	r3,r2,14
 3042920:	e0bff917 	ldw	r2,-28(fp)
 3042924:	10c5c83a 	sub	r2,r2,r3
 3042928:	e0bff915 	stw	r2,-28(fp)
 304292c:	00001806 	br	3042990 <Fat_FileRead+0x168>
    }else if (BytesPerCluster == 2048){
 3042930:	e0bff517 	ldw	r2,-44(fp)
 3042934:	10820018 	cmpnei	r2,r2,2048
 3042938:	10000a1e 	bne	r2,zero,3042964 <Fat_FileRead+0x13c>
        nClusterSeq = Pos >> 11;
 304293c:	e0bff917 	ldw	r2,-28(fp)
 3042940:	1004d2fa 	srli	r2,r2,11
 3042944:	e0bff315 	stw	r2,-52(fp)
        Pos -= (f->ClusterSeq << 11);
 3042948:	e0bffb17 	ldw	r2,-20(fp)
 304294c:	10800417 	ldw	r2,16(r2)
 3042950:	100692fa 	slli	r3,r2,11
 3042954:	e0bff917 	ldw	r2,-28(fp)
 3042958:	10c5c83a 	sub	r2,r2,r3
 304295c:	e0bff915 	stw	r2,-28(fp)
 3042960:	00000b06 	br	3042990 <Fat_FileRead+0x168>
    }else{        
        nClusterSeq = Pos/BytesPerCluster;
 3042964:	e13ff917 	ldw	r4,-28(fp)
 3042968:	e17ff517 	ldw	r5,-44(fp)
 304296c:	30497280 	call	3049728 <__udivsi3>
 3042970:	e0bff315 	stw	r2,-52(fp)
        Pos -= f->ClusterSeq*BytesPerCluster;
 3042974:	e0bffb17 	ldw	r2,-20(fp)
 3042978:	10c00417 	ldw	r3,16(r2)
 304297c:	e0bff517 	ldw	r2,-44(fp)
 3042980:	1887383a 	mul	r3,r3,r2
 3042984:	e0bff917 	ldw	r2,-28(fp)
 3042988:	10c5c83a 	sub	r2,r2,r3
 304298c:	e0bff915 	stw	r2,-28(fp)
    }    
        
       
    Cluster = f->Cluster;
 3042990:	e0bffb17 	ldw	r2,-20(fp)
 3042994:	10800317 	ldw	r2,12(r2)
 3042998:	e0bff615 	stw	r2,-40(fp)
    if (nClusterSeq != f->ClusterSeq){
 304299c:	e0bffb17 	ldw	r2,-20(fp)
 30429a0:	10c00417 	ldw	r3,16(r2)
 30429a4:	e0bff317 	ldw	r2,-52(fp)
 30429a8:	1880be26 	beq	r3,r2,3042ca4 <Fat_FileRead+0x47c>
        Cluster = f->Cluster;  //11/20/2007, richard
 30429ac:	e0bffb17 	ldw	r2,-20(fp)
 30429b0:	10800317 	ldw	r2,12(r2)
 30429b4:	e0bff615 	stw	r2,-40(fp)
        // move to first clustor for reading
        while (Pos >= BytesPerCluster && bSuccess){
 30429b8:	00001b06 	br	3042a28 <Fat_FileRead+0x200>
            // go to next cluster
            NextCluster = fatNextCluster(pVol, Cluster); 
 30429bc:	e13ffa17 	ldw	r4,-24(fp)
 30429c0:	e17ff617 	ldw	r5,-40(fp)
 30429c4:	30432080 	call	3043208 <fatNextCluster>
 30429c8:	e0bff715 	stw	r2,-36(fp)
            if (NextCluster == 0){
 30429cc:	e0bff717 	ldw	r2,-36(fp)
 30429d0:	1004c03a 	cmpne	r2,r2,zero
 30429d4:	1000061e 	bne	r2,zero,30429f0 <Fat_FileRead+0x1c8>
                bSuccess = FALSE;
 30429d8:	e03ff115 	stw	zero,-60(fp)
                FAT_DEBUG(("[FAT] Fat_FileRead, no next Cluster, current Cluster=%d\r\n", Cluster));
 30429dc:	0100c1b4 	movhi	r4,774
 30429e0:	212c1c04 	addi	r4,r4,-20368
 30429e4:	e17ff617 	ldw	r5,-40(fp)
 30429e8:	30468500 	call	3046850 <myprintf>
 30429ec:	00000206 	br	30429f8 <Fat_FileRead+0x1d0>
            }else{
                Cluster = NextCluster;
 30429f0:	e0bff717 	ldw	r2,-36(fp)
 30429f4:	e0bff615 	stw	r2,-40(fp)
            }        
            Pos -= BytesPerCluster;
 30429f8:	e0fff917 	ldw	r3,-28(fp)
 30429fc:	e0bff517 	ldw	r2,-44(fp)
 3042a00:	1885c83a 	sub	r2,r3,r2
 3042a04:	e0bff915 	stw	r2,-28(fp)
            f->Cluster = Cluster;
 3042a08:	e0fffb17 	ldw	r3,-20(fp)
 3042a0c:	e0bff617 	ldw	r2,-40(fp)
 3042a10:	18800315 	stw	r2,12(r3)
            f->ClusterSeq++; 
 3042a14:	e0bffb17 	ldw	r2,-20(fp)
 3042a18:	10800417 	ldw	r2,16(r2)
 3042a1c:	10c00044 	addi	r3,r2,1
 3042a20:	e0bffb17 	ldw	r2,-20(fp)
 3042a24:	10c00415 	stw	r3,16(r2)
       
    Cluster = f->Cluster;
    if (nClusterSeq != f->ClusterSeq){
        Cluster = f->Cluster;  //11/20/2007, richard
        // move to first clustor for reading
        while (Pos >= BytesPerCluster && bSuccess){
 3042a28:	e0fff917 	ldw	r3,-28(fp)
 3042a2c:	e0bff517 	ldw	r2,-44(fp)
 3042a30:	18809c36 	bltu	r3,r2,3042ca4 <Fat_FileRead+0x47c>
 3042a34:	e0bff117 	ldw	r2,-60(fp)
 3042a38:	1004c03a 	cmpne	r2,r2,zero
 3042a3c:	103fdf1e 	bne	r2,zero,30429bc <Fat_FileRead+0x194>
            f->ClusterSeq++; 
        }
    }            
    
    // reading
    while(nReadCount < nBufferSize && bSuccess){
 3042a40:	00009806 	br	3042ca4 <Fat_FileRead+0x47c>
        if (pVol->BPB_SecPerCluster == 32)
 3042a44:	e0bffa17 	ldw	r2,-24(fp)
 3042a48:	10800717 	ldw	r2,28(r2)
 3042a4c:	10800818 	cmpnei	r2,r2,32
 3042a50:	1000081e 	bne	r2,zero,3042a74 <Fat_FileRead+0x24c>
            PhysicalSecter = ((Cluster-2) << 5) + pVol->DataEntrySecter; // -2: FAT0 & FAT1 are reserved
 3042a54:	e0bff617 	ldw	r2,-40(fp)
 3042a58:	10bfff84 	addi	r2,r2,-2
 3042a5c:	1006917a 	slli	r3,r2,5
 3042a60:	e0bffa17 	ldw	r2,-24(fp)
 3042a64:	10800f17 	ldw	r2,60(r2)
 3042a68:	1885883a 	add	r2,r3,r2
 3042a6c:	e0bff815 	stw	r2,-32(fp)
 3042a70:	00001506 	br	3042ac8 <Fat_FileRead+0x2a0>
        else if (pVol->BPB_SecPerCluster == 64)
 3042a74:	e0bffa17 	ldw	r2,-24(fp)
 3042a78:	10800717 	ldw	r2,28(r2)
 3042a7c:	10801018 	cmpnei	r2,r2,64
 3042a80:	1000081e 	bne	r2,zero,3042aa4 <Fat_FileRead+0x27c>
            PhysicalSecter = ((Cluster-2) << 6) + pVol->DataEntrySecter; // -2: FAT0 & FAT1 are reserved
 3042a84:	e0bff617 	ldw	r2,-40(fp)
 3042a88:	10bfff84 	addi	r2,r2,-2
 3042a8c:	100691ba 	slli	r3,r2,6
 3042a90:	e0bffa17 	ldw	r2,-24(fp)
 3042a94:	10800f17 	ldw	r2,60(r2)
 3042a98:	1885883a 	add	r2,r3,r2
 3042a9c:	e0bff815 	stw	r2,-32(fp)
 3042aa0:	00000906 	br	3042ac8 <Fat_FileRead+0x2a0>
        else
            PhysicalSecter = (Cluster-2)*pVol->BPB_SecPerCluster + pVol->DataEntrySecter; // -2: FAT0 & FAT1 are reserved
 3042aa4:	e0bff617 	ldw	r2,-40(fp)
 3042aa8:	10ffff84 	addi	r3,r2,-2
 3042aac:	e0bffa17 	ldw	r2,-24(fp)
 3042ab0:	10800717 	ldw	r2,28(r2)
 3042ab4:	1887383a 	mul	r3,r3,r2
 3042ab8:	e0bffa17 	ldw	r2,-24(fp)
 3042abc:	10800f17 	ldw	r2,60(r2)
 3042ac0:	1885883a 	add	r2,r3,r2
 3042ac4:	e0bff815 	stw	r2,-32(fp)
        for(s=0;s<pVol->BPB_SecPerCluster && nReadCount < nBufferSize && bSuccess;s++){
 3042ac8:	e03ff215 	stw	zero,-56(fp)
 3042acc:	00005206 	br	3042c18 <Fat_FileRead+0x3f0>
            if (Pos >= pVol->BPB_BytsPerSec){
 3042ad0:	e0bffa17 	ldw	r2,-24(fp)
 3042ad4:	10c00617 	ldw	r3,24(r2)
 3042ad8:	e0bff917 	ldw	r2,-28(fp)
 3042adc:	10c00636 	bltu	r2,r3,3042af8 <Fat_FileRead+0x2d0>
                Pos -= pVol->BPB_BytsPerSec;
 3042ae0:	e0bffa17 	ldw	r2,-24(fp)
 3042ae4:	10c00617 	ldw	r3,24(r2)
 3042ae8:	e0bff917 	ldw	r2,-28(fp)
 3042aec:	10c5c83a 	sub	r2,r2,r3
 3042af0:	e0bff915 	stw	r2,-28(fp)
 3042af4:	00004206 	br	3042c00 <Fat_FileRead+0x3d8>
            }else{
                // read secter data
                bSuccess = fatReadSecter(pVol, PhysicalSecter);
 3042af8:	e13ffa17 	ldw	r4,-24(fp)
 3042afc:	e17ff817 	ldw	r5,-32(fp)
 3042b00:	30440a80 	call	30440a8 <fatReadSecter>
 3042b04:	e0bff115 	stw	r2,-60(fp)
                
                if (bSuccess){
 3042b08:	e0bff117 	ldw	r2,-60(fp)
 3042b0c:	1005003a 	cmpeq	r2,r2,zero
 3042b10:	10003b1e 	bne	r2,zero,3042c00 <Fat_FileRead+0x3d8>
                    // copy data to user buffer
                
                    int nCopyCount;
                    nCopyCount = pVol->BPB_BytsPerSec;
 3042b14:	e0bffa17 	ldw	r2,-24(fp)
 3042b18:	10800617 	ldw	r2,24(r2)
 3042b1c:	e0bff015 	stw	r2,-64(fp)
                    if (Pos)
 3042b20:	e0bff917 	ldw	r2,-28(fp)
 3042b24:	1005003a 	cmpeq	r2,r2,zero
 3042b28:	1000041e 	bne	r2,zero,3042b3c <Fat_FileRead+0x314>
                        nCopyCount -= Pos;
 3042b2c:	e0bff017 	ldw	r2,-64(fp)
 3042b30:	e0fff917 	ldw	r3,-28(fp)
 3042b34:	10c5c83a 	sub	r2,r2,r3
 3042b38:	e0bff015 	stw	r2,-64(fp)
                    if (nCopyCount > (nBufferSize-nReadCount))
 3042b3c:	e13ff017 	ldw	r4,-64(fp)
 3042b40:	e0fffe17 	ldw	r3,-8(fp)
 3042b44:	e0bff417 	ldw	r2,-48(fp)
 3042b48:	1885c83a 	sub	r2,r3,r2
 3042b4c:	1100042e 	bgeu	r2,r4,3042b60 <Fat_FileRead+0x338>
                        nCopyCount = nBufferSize-nReadCount;
 3042b50:	e0bffe17 	ldw	r2,-8(fp)
 3042b54:	e0fff417 	ldw	r3,-48(fp)
 3042b58:	10c5c83a 	sub	r2,r2,r3
 3042b5c:	e0bff015 	stw	r2,-64(fp)
                    if (nCopyCount == 512){
 3042b60:	e0bff017 	ldw	r2,-64(fp)
 3042b64:	10808018 	cmpnei	r2,r2,512
 3042b68:	1000121e 	bne	r2,zero,3042bb4 <Fat_FileRead+0x38c>
                        memcpy((char *)pBuffer+nReadCount, pVol->Secter_Data, 512);
 3042b6c:	e0fffd17 	ldw	r3,-12(fp)
 3042b70:	e0bff417 	ldw	r2,-48(fp)
 3042b74:	1887883a 	add	r3,r3,r2
 3042b78:	e0bffa17 	ldw	r2,-24(fp)
 3042b7c:	10801004 	addi	r2,r2,64
 3042b80:	1809883a 	mov	r4,r3
 3042b84:	100b883a 	mov	r5,r2
 3042b88:	01808004 	movi	r6,512
 3042b8c:	304ba800 	call	304ba80 <memcpy>
                        nReadCount += nCopyCount;
 3042b90:	e0fff017 	ldw	r3,-64(fp)
 3042b94:	e0bff417 	ldw	r2,-48(fp)
 3042b98:	10c5883a 	add	r2,r2,r3
 3042b9c:	e0bff415 	stw	r2,-48(fp)
                        if (Pos > 0)
 3042ba0:	e0bff917 	ldw	r2,-28(fp)
 3042ba4:	1005003a 	cmpeq	r2,r2,zero
 3042ba8:	1000151e 	bne	r2,zero,3042c00 <Fat_FileRead+0x3d8>
                            Pos = 0;
 3042bac:	e03ff915 	stw	zero,-28(fp)
 3042bb0:	00001306 	br	3042c00 <Fat_FileRead+0x3d8>
                    }else{
                        memcpy((void *)((char *)pBuffer+nReadCount), pVol->Secter_Data+Pos,nCopyCount);
 3042bb4:	e0fffd17 	ldw	r3,-12(fp)
 3042bb8:	e0bff417 	ldw	r2,-48(fp)
 3042bbc:	1889883a 	add	r4,r3,r2
 3042bc0:	e0bffa17 	ldw	r2,-24(fp)
 3042bc4:	10c01004 	addi	r3,r2,64
 3042bc8:	e0bff917 	ldw	r2,-28(fp)
 3042bcc:	1885883a 	add	r2,r3,r2
 3042bd0:	e0fff017 	ldw	r3,-64(fp)
 3042bd4:	100b883a 	mov	r5,r2
 3042bd8:	180d883a 	mov	r6,r3
 3042bdc:	304ba800 	call	304ba80 <memcpy>
                        nReadCount += nCopyCount;
 3042be0:	e0fff017 	ldw	r3,-64(fp)
 3042be4:	e0bff417 	ldw	r2,-48(fp)
 3042be8:	10c5883a 	add	r2,r2,r3
 3042bec:	e0bff415 	stw	r2,-48(fp)
                        if (Pos > 0)
 3042bf0:	e0bff917 	ldw	r2,-28(fp)
 3042bf4:	1005003a 	cmpeq	r2,r2,zero
 3042bf8:	1000011e 	bne	r2,zero,3042c00 <Fat_FileRead+0x3d8>
                            Pos = 0;
 3042bfc:	e03ff915 	stw	zero,-28(fp)
                    }         
                }    // if bSuccess
                    
            }
            PhysicalSecter++;
 3042c00:	e0bff817 	ldw	r2,-32(fp)
 3042c04:	10800044 	addi	r2,r2,1
 3042c08:	e0bff815 	stw	r2,-32(fp)
            PhysicalSecter = ((Cluster-2) << 5) + pVol->DataEntrySecter; // -2: FAT0 & FAT1 are reserved
        else if (pVol->BPB_SecPerCluster == 64)
            PhysicalSecter = ((Cluster-2) << 6) + pVol->DataEntrySecter; // -2: FAT0 & FAT1 are reserved
        else
            PhysicalSecter = (Cluster-2)*pVol->BPB_SecPerCluster + pVol->DataEntrySecter; // -2: FAT0 & FAT1 are reserved
        for(s=0;s<pVol->BPB_SecPerCluster && nReadCount < nBufferSize && bSuccess;s++){
 3042c0c:	e0bff217 	ldw	r2,-56(fp)
 3042c10:	10800044 	addi	r2,r2,1
 3042c14:	e0bff215 	stw	r2,-56(fp)
 3042c18:	e0bff217 	ldw	r2,-56(fp)
 3042c1c:	e0fffa17 	ldw	r3,-24(fp)
 3042c20:	18c00717 	ldw	r3,28(r3)
 3042c24:	10c0062e 	bgeu	r2,r3,3042c40 <Fat_FileRead+0x418>
 3042c28:	e0fffe17 	ldw	r3,-8(fp)
 3042c2c:	e0bff417 	ldw	r2,-48(fp)
 3042c30:	10c0032e 	bgeu	r2,r3,3042c40 <Fat_FileRead+0x418>
 3042c34:	e0bff117 	ldw	r2,-60(fp)
 3042c38:	1004c03a 	cmpne	r2,r2,zero
 3042c3c:	103fa41e 	bne	r2,zero,3042ad0 <Fat_FileRead+0x2a8>
            }
            PhysicalSecter++;
        }    
            
        // next cluster
        if (nReadCount < nBufferSize){
 3042c40:	e0fffe17 	ldw	r3,-8(fp)
 3042c44:	e0bff417 	ldw	r2,-48(fp)
 3042c48:	10c0162e 	bgeu	r2,r3,3042ca4 <Fat_FileRead+0x47c>
            NextCluster = fatNextCluster(pVol, Cluster); 
 3042c4c:	e13ffa17 	ldw	r4,-24(fp)
 3042c50:	e17ff617 	ldw	r5,-40(fp)
 3042c54:	30432080 	call	3043208 <fatNextCluster>
 3042c58:	e0bff715 	stw	r2,-36(fp)
            if (NextCluster == 0){
 3042c5c:	e0bff717 	ldw	r2,-36(fp)
 3042c60:	1004c03a 	cmpne	r2,r2,zero
 3042c64:	1000051e 	bne	r2,zero,3042c7c <Fat_FileRead+0x454>
                bSuccess = FALSE;
 3042c68:	e03ff115 	stw	zero,-60(fp)
                FAT_DEBUG(("[FAT] Fat_FileRead, no next cluster\r\n"));
 3042c6c:	0100c1b4 	movhi	r4,774
 3042c70:	212c2b04 	addi	r4,r4,-20308
 3042c74:	30468500 	call	3046850 <myprintf>
 3042c78:	00000206 	br	3042c84 <Fat_FileRead+0x45c>
            }else{
                Cluster = NextCluster;
 3042c7c:	e0bff717 	ldw	r2,-36(fp)
 3042c80:	e0bff615 	stw	r2,-40(fp)
            }    
            //    
            f->ClusterSeq++; 
 3042c84:	e0bffb17 	ldw	r2,-20(fp)
 3042c88:	10800417 	ldw	r2,16(r2)
 3042c8c:	10c00044 	addi	r3,r2,1
 3042c90:	e0bffb17 	ldw	r2,-20(fp)
 3042c94:	10c00415 	stw	r3,16(r2)
            f->Cluster = Cluster;
 3042c98:	e0fffb17 	ldw	r3,-20(fp)
 3042c9c:	e0bff617 	ldw	r2,-40(fp)
 3042ca0:	18800315 	stw	r2,12(r3)
            f->ClusterSeq++; 
        }
    }            
    
    // reading
    while(nReadCount < nBufferSize && bSuccess){
 3042ca4:	e0fffe17 	ldw	r3,-8(fp)
 3042ca8:	e0bff417 	ldw	r2,-48(fp)
 3042cac:	10c0032e 	bgeu	r2,r3,3042cbc <Fat_FileRead+0x494>
 3042cb0:	e0bff117 	ldw	r2,-60(fp)
 3042cb4:	1004c03a 	cmpne	r2,r2,zero
 3042cb8:	103f621e 	bne	r2,zero,3042a44 <Fat_FileRead+0x21c>
            f->ClusterSeq++; 
            f->Cluster = Cluster;
        }                    
    }
    
    if (bSuccess){
 3042cbc:	e0bff117 	ldw	r2,-60(fp)
 3042cc0:	1005003a 	cmpeq	r2,r2,zero
 3042cc4:	1000061e 	bne	r2,zero,3042ce0 <Fat_FileRead+0x4b8>
        f->SeekPos += nBufferSize;
 3042cc8:	e0bffb17 	ldw	r2,-20(fp)
 3042ccc:	10c00217 	ldw	r3,8(r2)
 3042cd0:	e0bffe17 	ldw	r2,-8(fp)
 3042cd4:	1887883a 	add	r3,r3,r2
 3042cd8:	e0bffb17 	ldw	r2,-20(fp)
 3042cdc:	10c00215 	stw	r3,8(r2)
    }        
        
    
    return bSuccess;
 3042ce0:	e0bff117 	ldw	r2,-60(fp)
 3042ce4:	e0bfff15 	stw	r2,-4(fp)
 3042ce8:	e0bfff17 	ldw	r2,-4(fp)
}
 3042cec:	e037883a 	mov	sp,fp
 3042cf0:	dfc00117 	ldw	ra,4(sp)
 3042cf4:	df000017 	ldw	fp,0(sp)
 3042cf8:	dec00204 	addi	sp,sp,8
 3042cfc:	f800283a 	ret

03042d00 <Fat_FileSeek>:


bool Fat_FileSeek(FAT_FILE_HANDLE hFileHandle, const FAT_SEEK_POS SeekPos, const int nOffset){
 3042d00:	defff704 	addi	sp,sp,-36
 3042d04:	df000815 	stw	fp,32(sp)
 3042d08:	df000804 	addi	fp,sp,32
 3042d0c:	e13ffb15 	stw	r4,-20(fp)
 3042d10:	e17ffc15 	stw	r5,-16(fp)
 3042d14:	e1bffd15 	stw	r6,-12(fp)
    FAT_FILE_INFO *f = (FAT_FILE_INFO *)hFileHandle;
 3042d18:	e0bffb17 	ldw	r2,-20(fp)
 3042d1c:	e0bffa15 	stw	r2,-24(fp)
    VOLUME_INFO *pVol;
    bool bSuccess= TRUE;
 3042d20:	00800044 	movi	r2,1
 3042d24:	e0bff815 	stw	r2,-32(fp)

    if (!f || !f->Fat)
 3042d28:	e0bffa17 	ldw	r2,-24(fp)
 3042d2c:	1005003a 	cmpeq	r2,r2,zero
 3042d30:	1000041e 	bne	r2,zero,3042d44 <Fat_FileSeek+0x44>
 3042d34:	e0bffa17 	ldw	r2,-24(fp)
 3042d38:	10804f17 	ldw	r2,316(r2)
 3042d3c:	1004c03a 	cmpne	r2,r2,zero
 3042d40:	1000021e 	bne	r2,zero,3042d4c <Fat_FileSeek+0x4c>
        return FALSE;
 3042d44:	e03ffe15 	stw	zero,-8(fp)
 3042d48:	00003106 	br	3042e10 <Fat_FileSeek+0x110>
    pVol = (VOLUME_INFO *)f->Fat;        
 3042d4c:	e0bffa17 	ldw	r2,-24(fp)
 3042d50:	10804f17 	ldw	r2,316(r2)
 3042d54:	e0bff915 	stw	r2,-28(fp)
    
    if (!f->IsOpened)
 3042d58:	e0bffa17 	ldw	r2,-24(fp)
 3042d5c:	10800017 	ldw	r2,0(r2)
 3042d60:	1004c03a 	cmpne	r2,r2,zero
 3042d64:	1000021e 	bne	r2,zero,3042d70 <Fat_FileSeek+0x70>
        return FALSE;
 3042d68:	e03ffe15 	stw	zero,-8(fp)
 3042d6c:	00002806 	br	3042e10 <Fat_FileSeek+0x110>
        
    switch(SeekPos){
 3042d70:	e0bffc17 	ldw	r2,-16(fp)
 3042d74:	e0bfff15 	stw	r2,-4(fp)
 3042d78:	e0ffff17 	ldw	r3,-4(fp)
 3042d7c:	18800060 	cmpeqi	r2,r3,1
 3042d80:	10000b1e 	bne	r2,zero,3042db0 <Fat_FileSeek+0xb0>
 3042d84:	e0ffff17 	ldw	r3,-4(fp)
 3042d88:	18800070 	cmpltui	r2,r3,1
 3042d8c:	1000041e 	bne	r2,zero,3042da0 <Fat_FileSeek+0xa0>
 3042d90:	e0ffff17 	ldw	r3,-4(fp)
 3042d94:	188000a0 	cmpeqi	r2,r3,2
 3042d98:	10000c1e 	bne	r2,zero,3042dcc <Fat_FileSeek+0xcc>
 3042d9c:	00001206 	br	3042de8 <Fat_FileSeek+0xe8>
        case FILE_SEEK_BEGIN: 
            f->SeekPos = nOffset; 
 3042da0:	e0fffd17 	ldw	r3,-12(fp)
 3042da4:	e0bffa17 	ldw	r2,-24(fp)
 3042da8:	10c00215 	stw	r3,8(r2)
            break;
 3042dac:	00000f06 	br	3042dec <Fat_FileSeek+0xec>
        case FILE_SEEK_CURRENT: 
            f->SeekPos += nOffset; 
 3042db0:	e0bffa17 	ldw	r2,-24(fp)
 3042db4:	10c00217 	ldw	r3,8(r2)
 3042db8:	e0bffd17 	ldw	r2,-12(fp)
 3042dbc:	1887883a 	add	r3,r3,r2
 3042dc0:	e0bffa17 	ldw	r2,-24(fp)
 3042dc4:	10c00215 	stw	r3,8(r2)
            break;
 3042dc8:	00000806 	br	3042dec <Fat_FileSeek+0xec>
        case FILE_SEEK_END: 
            f->SeekPos = f->Directory.FileSize+nOffset; 
 3042dcc:	e0bffa17 	ldw	r2,-24(fp)
 3042dd0:	10c04e17 	ldw	r3,312(r2)
 3042dd4:	e0bffd17 	ldw	r2,-12(fp)
 3042dd8:	1887883a 	add	r3,r3,r2
 3042ddc:	e0bffa17 	ldw	r2,-24(fp)
 3042de0:	10c00215 	stw	r3,8(r2)
            break;
 3042de4:	00000106 	br	3042dec <Fat_FileSeek+0xec>
        default:
            bSuccess = FALSE;
 3042de8:	e03ff815 	stw	zero,-32(fp)
            break;    
              
    }
    f->Cluster = f->Directory.FirstLogicalCluster;
 3042dec:	e0bffa17 	ldw	r2,-24(fp)
 3042df0:	10804d8b 	ldhu	r2,310(r2)
 3042df4:	10ffffcc 	andi	r3,r2,65535
 3042df8:	e0bffa17 	ldw	r2,-24(fp)
 3042dfc:	10c00315 	stw	r3,12(r2)
    f->ClusterSeq = 0;
 3042e00:	e0bffa17 	ldw	r2,-24(fp)
 3042e04:	10000415 	stw	zero,16(r2)
    
    return bSuccess;
 3042e08:	e0bff817 	ldw	r2,-32(fp)
 3042e0c:	e0bffe15 	stw	r2,-8(fp)
 3042e10:	e0bffe17 	ldw	r2,-8(fp)
    
}
 3042e14:	e037883a 	mov	sp,fp
 3042e18:	df000017 	ldw	fp,0(sp)
 3042e1c:	dec00104 	addi	sp,sp,4
 3042e20:	f800283a 	ret

03042e24 <Fat_FileClose>:

void Fat_FileClose(FAT_FILE_HANDLE hFileHandle){
 3042e24:	defffc04 	addi	sp,sp,-16
 3042e28:	dfc00315 	stw	ra,12(sp)
 3042e2c:	df000215 	stw	fp,8(sp)
 3042e30:	df000204 	addi	fp,sp,8
 3042e34:	e13fff15 	stw	r4,-4(fp)
    FAT_FILE_INFO *f = (FAT_FILE_INFO *)hFileHandle;
 3042e38:	e0bfff17 	ldw	r2,-4(fp)
 3042e3c:	e0bffe15 	stw	r2,-8(fp)
    if (!f)
 3042e40:	e0bffe17 	ldw	r2,-8(fp)
 3042e44:	1005003a 	cmpeq	r2,r2,zero
 3042e48:	1000021e 	bne	r2,zero,3042e54 <Fat_FileClose+0x30>
        return;
        
    free(f);        
 3042e4c:	e13ffe17 	ldw	r4,-8(fp)
 3042e50:	304b3180 	call	304b318 <free>
}
 3042e54:	e037883a 	mov	sp,fp
 3042e58:	dfc00117 	ldw	ra,4(sp)
 3042e5c:	df000017 	ldw	fp,0(sp)
 3042e60:	dec00204 	addi	sp,sp,8
 3042e64:	f800283a 	ret

03042e68 <Fat_SpeedTest>:



float Fat_SpeedTest(FAT_HANDLE hFat, alt_u32 TestDurInMs){
 3042e68:	deff7204 	addi	sp,sp,-568
 3042e6c:	dfc08d15 	stw	ra,564(sp)
 3042e70:	df008c15 	stw	fp,560(sp)
 3042e74:	dc008b15 	stw	r16,556(sp)
 3042e78:	df008b04 	addi	fp,sp,556
 3042e7c:	e13ffd15 	stw	r4,-12(fp)
 3042e80:	e17ffe15 	stw	r5,-8(fp)
    bool bSuccess = TRUE;
 3042e84:	00800044 	movi	r2,1
 3042e88:	e0bf7c15 	stw	r2,-528(fp)
    alt_u32 time_start, time_finish, time_elapsed, TotalReadBytes=0;
 3042e8c:	e03f7815 	stw	zero,-544(fp)
    int nSecter = 0;
 3042e90:	e03f7715 	stw	zero,-548(fp)
    float fMegaBytePerSec = 0;
 3042e94:	e03f7615 	stw	zero,-552(fp)
    char szBlock[512];
    VOLUME_INFO *pVol = (VOLUME_INFO *)hFat;
 3042e98:	e0bffd17 	ldw	r2,-12(fp)
 3042e9c:	e0bf7515 	stw	r2,-556(fp)
    if (!pVol)
 3042ea0:	e0bf7517 	ldw	r2,-556(fp)
 3042ea4:	1004c03a 	cmpne	r2,r2,zero
 3042ea8:	1000031e 	bne	r2,zero,3042eb8 <Fat_SpeedTest+0x50>
        return 0;
 3042eac:	0005883a 	mov	r2,zero
 3042eb0:	e0bfff15 	stw	r2,-4(fp)
 3042eb4:	00006906 	br	304305c <Fat_SpeedTest+0x1f4>
 3042eb8:	0080c1b4 	movhi	r2,774
 3042ebc:	10be4e04 	addi	r2,r2,-1736
 3042ec0:	10800017 	ldw	r2,0(r2)
    time_start = alt_nticks();
 3042ec4:	e0bf7b15 	stw	r2,-532(fp)
 3042ec8:	0080c1b4 	movhi	r2,774
 3042ecc:	10be4e04 	addi	r2,r2,-1736
 3042ed0:	10800017 	ldw	r2,0(r2)
 3042ed4:	1021883a 	mov	r16,r2
    time_finish = alt_nticks() + TestDurInMs * 1000 / alt_ticks_per_second();
 3042ed8:	e0bffe17 	ldw	r2,-8(fp)
 3042edc:	1100fa24 	muli	r4,r2,1000
 * Obtain the system clock rate in ticks/s. 
 */

static ALT_INLINE alt_u32 ALT_ALWAYS_INLINE alt_ticks_per_second (void)
{
  return _alt_tick_rate;
 3042ee0:	0080c1b4 	movhi	r2,774
 3042ee4:	10be4d04 	addi	r2,r2,-1740
 3042ee8:	10800017 	ldw	r2,0(r2)
 3042eec:	100b883a 	mov	r5,r2
 3042ef0:	30497280 	call	3049728 <__udivsi3>
 3042ef4:	8085883a 	add	r2,r16,r2
 3042ef8:	e0bf7a15 	stw	r2,-536(fp)
    while(alt_nticks() < time_finish && bSuccess){
 3042efc:	00000e06 	br	3042f38 <Fat_SpeedTest+0xd0>
        bSuccess = pVol->ReadBlock512(pVol->DiskHandle, nSecter, szBlock);
 3042f00:	e0bf7517 	ldw	r2,-556(fp)
 3042f04:	10c00117 	ldw	r3,4(r2)
 3042f08:	e0bf7517 	ldw	r2,-556(fp)
 3042f0c:	11000017 	ldw	r4,0(r2)
 3042f10:	e17f7717 	ldw	r5,-548(fp)
 3042f14:	e1bf7d04 	addi	r6,fp,-524
 3042f18:	183ee83a 	callr	r3
 3042f1c:	e0bf7c15 	stw	r2,-528(fp)
        nSecter++;
 3042f20:	e0bf7717 	ldw	r2,-548(fp)
 3042f24:	10800044 	addi	r2,r2,1
 3042f28:	e0bf7715 	stw	r2,-548(fp)
        TotalReadBytes += sizeof(szBlock);
 3042f2c:	e0bf7817 	ldw	r2,-544(fp)
 3042f30:	10808004 	addi	r2,r2,512
 3042f34:	e0bf7815 	stw	r2,-544(fp)
 * alt_nticks() returns the elapsed number of system clock ticks since reset.
 */

static ALT_INLINE alt_u32 ALT_ALWAYS_INLINE alt_nticks (void)
{
  return _alt_nticks;
 3042f38:	0080c1b4 	movhi	r2,774
 3042f3c:	10be4e04 	addi	r2,r2,-1736
 3042f40:	10800017 	ldw	r2,0(r2)
 3042f44:	1007883a 	mov	r3,r2
    VOLUME_INFO *pVol = (VOLUME_INFO *)hFat;
    if (!pVol)
        return 0;
    time_start = alt_nticks();
    time_finish = alt_nticks() + TestDurInMs * 1000 / alt_ticks_per_second();
    while(alt_nticks() < time_finish && bSuccess){
 3042f48:	e0bf7a17 	ldw	r2,-536(fp)
 3042f4c:	1880032e 	bgeu	r3,r2,3042f5c <Fat_SpeedTest+0xf4>
 3042f50:	e0bf7c17 	ldw	r2,-528(fp)
 3042f54:	1004c03a 	cmpne	r2,r2,zero
 3042f58:	103fe91e 	bne	r2,zero,3042f00 <Fat_SpeedTest+0x98>
        bSuccess = pVol->ReadBlock512(pVol->DiskHandle, nSecter, szBlock);
        nSecter++;
        TotalReadBytes += sizeof(szBlock);
        
    }        
    if (bSuccess){
 3042f5c:	e0bf7c17 	ldw	r2,-528(fp)
 3042f60:	1005003a 	cmpeq	r2,r2,zero
 3042f64:	1000321e 	bne	r2,zero,3043030 <Fat_SpeedTest+0x1c8>
 3042f68:	0080c1b4 	movhi	r2,774
 3042f6c:	10be4e04 	addi	r2,r2,-1736
 3042f70:	10800017 	ldw	r2,0(r2)
 3042f74:	1007883a 	mov	r3,r2
        time_elapsed = alt_nticks() - time_start;
 3042f78:	e0bf7b17 	ldw	r2,-532(fp)
 3042f7c:	1885c83a 	sub	r2,r3,r2
 3042f80:	e0bf7915 	stw	r2,-540(fp)
        fMegaBytePerSec = (float)TotalReadBytes * (float)alt_ticks_per_second() / (float)time_elapsed / 1024.0 / 1024.0;
 3042f84:	e13f7817 	ldw	r4,-544(fp)
 3042f88:	30492280 	call	3049228 <__floatunsisf>
 3042f8c:	1021883a 	mov	r16,r2
 * Obtain the system clock rate in ticks/s. 
 */

static ALT_INLINE alt_u32 ALT_ALWAYS_INLINE alt_ticks_per_second (void)
{
  return _alt_tick_rate;
 3042f90:	0080c1b4 	movhi	r2,774
 3042f94:	10be4d04 	addi	r2,r2,-1740
 3042f98:	10800017 	ldw	r2,0(r2)
 3042f9c:	1009883a 	mov	r4,r2
 3042fa0:	30492280 	call	3049228 <__floatunsisf>
 3042fa4:	8009883a 	mov	r4,r16
 3042fa8:	100b883a 	mov	r5,r2
 3042fac:	3048e800 	call	3048e80 <__mulsf3>
 3042fb0:	1021883a 	mov	r16,r2
 3042fb4:	e13f7917 	ldw	r4,-540(fp)
 3042fb8:	30492280 	call	3049228 <__floatunsisf>
 3042fbc:	8009883a 	mov	r4,r16
 3042fc0:	100b883a 	mov	r5,r2
 3042fc4:	30490600 	call	3049060 <__divsf3>
 3042fc8:	1009883a 	mov	r4,r2
 3042fcc:	30491d40 	call	30491d4 <__extendsfdf2>
 3042fd0:	100b883a 	mov	r5,r2
 3042fd4:	180d883a 	mov	r6,r3
 3042fd8:	2809883a 	mov	r4,r5
 3042fdc:	300b883a 	mov	r5,r6
 3042fe0:	000d883a 	mov	r6,zero
 3042fe4:	01d02434 	movhi	r7,16528
 3042fe8:	30492e80 	call	30492e8 <__divdf3>
 3042fec:	1009883a 	mov	r4,r2
 3042ff0:	180b883a 	mov	r5,r3
 3042ff4:	2005883a 	mov	r2,r4
 3042ff8:	2807883a 	mov	r3,r5
 3042ffc:	1009883a 	mov	r4,r2
 3043000:	180b883a 	mov	r5,r3
 3043004:	000d883a 	mov	r6,zero
 3043008:	01d02434 	movhi	r7,16528
 304300c:	30492e80 	call	30492e8 <__divdf3>
 3043010:	1009883a 	mov	r4,r2
 3043014:	180b883a 	mov	r5,r3
 3043018:	2005883a 	mov	r2,r4
 304301c:	2807883a 	mov	r3,r5
 3043020:	1009883a 	mov	r4,r2
 3043024:	180b883a 	mov	r5,r3
 3043028:	30495780 	call	3049578 <__truncdfsf2>
 304302c:	e0bf7615 	stw	r2,-552(fp)
    } 
    
    printf("\n--------speed:%f---------\n",fMegaBytePerSec);       
 3043030:	e13f7617 	ldw	r4,-552(fp)
 3043034:	30491d40 	call	30491d4 <__extendsfdf2>
 3043038:	100d883a 	mov	r6,r2
 304303c:	180f883a 	mov	r7,r3
 3043040:	0100c1b4 	movhi	r4,774
 3043044:	212c3504 	addi	r4,r4,-20268
 3043048:	300b883a 	mov	r5,r6
 304304c:	380d883a 	mov	r6,r7
 3043050:	304bc300 	call	304bc30 <printf>
    return fMegaBytePerSec;
 3043054:	e0ff7617 	ldw	r3,-552(fp)
 3043058:	e0ffff15 	stw	r3,-4(fp)
 304305c:	e0ffff17 	ldw	r3,-4(fp)
 3043060:	1805883a 	mov	r2,r3
    
   
}
 3043064:	e037883a 	mov	sp,fp
 3043068:	dfc00217 	ldw	ra,8(sp)
 304306c:	df000117 	ldw	fp,4(sp)
 3043070:	dc000017 	ldw	r16,0(sp)
 3043074:	dec00304 	addi	sp,sp,12
 3043078:	f800283a 	ret

0304307c <fat16ClusterType>:
//extern VOLUME_INFO gVolumeInfo;




CLUSTER_TYPE fat16ClusterType(alt_u32 Fat){
 304307c:	defffd04 	addi	sp,sp,-12
 3043080:	df000215 	stw	fp,8(sp)
 3043084:	df000204 	addi	fp,sp,8
 3043088:	e13fff15 	stw	r4,-4(fp)
    CLUSTER_TYPE Type;
    Fat = Fat & 0xFFFF; // 16 bits
 304308c:	e0bfff17 	ldw	r2,-4(fp)
 3043090:	10bfffcc 	andi	r2,r2,65535
 3043094:	e0bfff15 	stw	r2,-4(fp)
    
    if (Fat > 0 && Fat < 0xFFF0)
 3043098:	e0bfff17 	ldw	r2,-4(fp)
 304309c:	1005003a 	cmpeq	r2,r2,zero
 30430a0:	1000061e 	bne	r2,zero,30430bc <fat16ClusterType+0x40>
 30430a4:	e0ffff17 	ldw	r3,-4(fp)
 30430a8:	00bffbd4 	movui	r2,65519
 30430ac:	10c00336 	bltu	r2,r3,30430bc <fat16ClusterType+0x40>
        Type = CLUSTER_NEXT_INFILE;
 30430b0:	00800104 	movi	r2,4
 30430b4:	e0bffe15 	stw	r2,-8(fp)

CLUSTER_TYPE fat16ClusterType(alt_u32 Fat){
    CLUSTER_TYPE Type;
    Fat = Fat & 0xFFFF; // 16 bits
    
    if (Fat > 0 && Fat < 0xFFF0)
 30430b8:	00001906 	br	3043120 <fat16ClusterType+0xa4>
        Type = CLUSTER_NEXT_INFILE;
    else if (Fat >= 0xFFF8) // && Fat <= (unsigned short)0xFFFF)
 30430bc:	e0ffff17 	ldw	r3,-4(fp)
 30430c0:	00bffdd4 	movui	r2,65527
 30430c4:	10c0032e 	bgeu	r2,r3,30430d4 <fat16ClusterType+0x58>
        Type = CLUSTER_LAST_INFILE;
 30430c8:	008000c4 	movi	r2,3
 30430cc:	e0bffe15 	stw	r2,-8(fp)
 30430d0:	00001306 	br	3043120 <fat16ClusterType+0xa4>
    else if (Fat == (alt_u16)0x00)
 30430d4:	e0bfff17 	ldw	r2,-4(fp)
 30430d8:	1004c03a 	cmpne	r2,r2,zero
 30430dc:	1000021e 	bne	r2,zero,30430e8 <fat16ClusterType+0x6c>
        Type = CLUSTER_UNUSED;
 30430e0:	e03ffe15 	stw	zero,-8(fp)
 30430e4:	00000e06 	br	3043120 <fat16ClusterType+0xa4>
    else if (Fat >= 0xFFF0 && Fat <= 0xFFF6)
 30430e8:	e0ffff17 	ldw	r3,-4(fp)
 30430ec:	00bffbd4 	movui	r2,65519
 30430f0:	10c0062e 	bgeu	r2,r3,304310c <fat16ClusterType+0x90>
 30430f4:	e0ffff17 	ldw	r3,-4(fp)
 30430f8:	00bffd94 	movui	r2,65526
 30430fc:	10c00336 	bltu	r2,r3,304310c <fat16ClusterType+0x90>
        Type = CLUSTER_RESERVED;
 3043100:	00800044 	movi	r2,1
 3043104:	e0bffe15 	stw	r2,-8(fp)
        Type = CLUSTER_NEXT_INFILE;
    else if (Fat >= 0xFFF8) // && Fat <= (unsigned short)0xFFFF)
        Type = CLUSTER_LAST_INFILE;
    else if (Fat == (alt_u16)0x00)
        Type = CLUSTER_UNUSED;
    else if (Fat >= 0xFFF0 && Fat <= 0xFFF6)
 3043108:	00000506 	br	3043120 <fat16ClusterType+0xa4>
        Type = CLUSTER_RESERVED;
    else if (Fat == 0xFFF7)
 304310c:	e0ffff17 	ldw	r3,-4(fp)
 3043110:	00bffdd4 	movui	r2,65527
 3043114:	1880021e 	bne	r3,r2,3043120 <fat16ClusterType+0xa4>
        Type = CLUSTER_BAD;
 3043118:	00800084 	movi	r2,2
 304311c:	e0bffe15 	stw	r2,-8(fp)
        
    return Type;        
 3043120:	e0bffe17 	ldw	r2,-8(fp)
         
}
 3043124:	e037883a 	mov	sp,fp
 3043128:	df000017 	ldw	fp,0(sp)
 304312c:	dec00104 	addi	sp,sp,4
 3043130:	f800283a 	ret

03043134 <fat32ClusterType>:

CLUSTER_TYPE fat32ClusterType(alt_u32 Fat){
 3043134:	defffd04 	addi	sp,sp,-12
 3043138:	df000215 	stw	fp,8(sp)
 304313c:	df000204 	addi	fp,sp,8
 3043140:	e13fff15 	stw	r4,-4(fp)
    CLUSTER_TYPE Type;
    Fat = Fat & 0xFFFFFFF; // 28 bits
 3043144:	e0ffff17 	ldw	r3,-4(fp)
 3043148:	00840034 	movhi	r2,4096
 304314c:	10bfffc4 	addi	r2,r2,-1
 3043150:	1884703a 	and	r2,r3,r2
 3043154:	e0bfff15 	stw	r2,-4(fp)
    
    if (Fat > 0 && Fat < 0xFFFFFF0)
 3043158:	e0bfff17 	ldw	r2,-4(fp)
 304315c:	1005003a 	cmpeq	r2,r2,zero
 3043160:	1000071e 	bne	r2,zero,3043180 <fat32ClusterType+0x4c>
 3043164:	e0ffff17 	ldw	r3,-4(fp)
 3043168:	00840034 	movhi	r2,4096
 304316c:	10bffbc4 	addi	r2,r2,-17
 3043170:	10c00336 	bltu	r2,r3,3043180 <fat32ClusterType+0x4c>
        Type = CLUSTER_NEXT_INFILE;
 3043174:	00800104 	movi	r2,4
 3043178:	e0bffe15 	stw	r2,-8(fp)

CLUSTER_TYPE fat32ClusterType(alt_u32 Fat){
    CLUSTER_TYPE Type;
    Fat = Fat & 0xFFFFFFF; // 28 bits
    
    if (Fat > 0 && Fat < 0xFFFFFF0)
 304317c:	00001d06 	br	30431f4 <fat32ClusterType+0xc0>
        Type = CLUSTER_NEXT_INFILE;
    else if (Fat >= 0xFFFFFF8) // && Fat <= (unsigned short)0xFFFF)
 3043180:	e0ffff17 	ldw	r3,-4(fp)
 3043184:	00840034 	movhi	r2,4096
 3043188:	10bffdc4 	addi	r2,r2,-9
 304318c:	10c0032e 	bgeu	r2,r3,304319c <fat32ClusterType+0x68>
        Type = CLUSTER_LAST_INFILE;
 3043190:	008000c4 	movi	r2,3
 3043194:	e0bffe15 	stw	r2,-8(fp)
 3043198:	00001606 	br	30431f4 <fat32ClusterType+0xc0>
    else if (Fat == (alt_u32)0x00)
 304319c:	e0bfff17 	ldw	r2,-4(fp)
 30431a0:	1004c03a 	cmpne	r2,r2,zero
 30431a4:	1000021e 	bne	r2,zero,30431b0 <fat32ClusterType+0x7c>
        Type = CLUSTER_UNUSED;
 30431a8:	e03ffe15 	stw	zero,-8(fp)
 30431ac:	00001106 	br	30431f4 <fat32ClusterType+0xc0>
    else if (Fat >= 0xFFFFFF0 && Fat <= 0xFFFFFF6)
 30431b0:	e0ffff17 	ldw	r3,-4(fp)
 30431b4:	00840034 	movhi	r2,4096
 30431b8:	10bffbc4 	addi	r2,r2,-17
 30431bc:	10c0072e 	bgeu	r2,r3,30431dc <fat32ClusterType+0xa8>
 30431c0:	e0ffff17 	ldw	r3,-4(fp)
 30431c4:	00840034 	movhi	r2,4096
 30431c8:	10bffd84 	addi	r2,r2,-10
 30431cc:	10c00336 	bltu	r2,r3,30431dc <fat32ClusterType+0xa8>
        Type = CLUSTER_RESERVED;
 30431d0:	00800044 	movi	r2,1
 30431d4:	e0bffe15 	stw	r2,-8(fp)
        Type = CLUSTER_NEXT_INFILE;
    else if (Fat >= 0xFFFFFF8) // && Fat <= (unsigned short)0xFFFF)
        Type = CLUSTER_LAST_INFILE;
    else if (Fat == (alt_u32)0x00)
        Type = CLUSTER_UNUSED;
    else if (Fat >= 0xFFFFFF0 && Fat <= 0xFFFFFF6)
 30431d8:	00000606 	br	30431f4 <fat32ClusterType+0xc0>
        Type = CLUSTER_RESERVED;
    else if (Fat == 0xFFFFFF7)
 30431dc:	e0ffff17 	ldw	r3,-4(fp)
 30431e0:	00840034 	movhi	r2,4096
 30431e4:	10bffdc4 	addi	r2,r2,-9
 30431e8:	1880021e 	bne	r3,r2,30431f4 <fat32ClusterType+0xc0>
        Type = CLUSTER_BAD;
 30431ec:	00800084 	movi	r2,2
 30431f0:	e0bffe15 	stw	r2,-8(fp)
        
    return Type;        
 30431f4:	e0bffe17 	ldw	r2,-8(fp)
         
}
 30431f8:	e037883a 	mov	sp,fp
 30431fc:	df000017 	ldw	fp,0(sp)
 3043200:	dec00104 	addi	sp,sp,4
 3043204:	f800283a 	ret

03043208 <fatNextCluster>:

alt_u32 fatNextCluster(VOLUME_INFO *pVol, alt_u32 ThisCluster){
 3043208:	defff504 	addi	sp,sp,-44
 304320c:	dfc00a15 	stw	ra,40(sp)
 3043210:	df000915 	stw	fp,36(sp)
 3043214:	dc000815 	stw	r16,32(sp)
 3043218:	df000804 	addi	fp,sp,32
 304321c:	e13ffd15 	stw	r4,-12(fp)
 3043220:	e17ffe15 	stw	r5,-8(fp)
    if (ClusterType != CLUSTER_NEXT_INFILE && ClusterType != CLUSTER_LAST_INFILE){
        NextCluster = 0;  // invalid cluster
    }        
#else
    alt_32 nFatEntryPerSecter;
    const alt_32 nFatEntrySize = (pVol->Partition_Type == PARTITION_FAT32)?4:2; // 2 byte for FAT16
 3043224:	e0bffd17 	ldw	r2,-12(fp)
 3043228:	10800317 	ldw	r2,12(r2)
 304322c:	108002d8 	cmpnei	r2,r2,11
 3043230:	1000031e 	bne	r2,zero,3043240 <fatNextCluster+0x38>
 3043234:	00800104 	movi	r2,4
 3043238:	e0bfff15 	stw	r2,-4(fp)
 304323c:	00000206 	br	3043248 <fatNextCluster+0x40>
 3043240:	00800084 	movi	r2,2
 3043244:	e0bfff15 	stw	r2,-4(fp)
 3043248:	e0bfff17 	ldw	r2,-4(fp)
 304324c:	e0bff915 	stw	r2,-28(fp)
    alt_u32 Secter;
   // char szBlock[512];
    nFatEntryPerSecter = pVol->BPB_BytsPerSec/nFatEntrySize; 
 3043250:	e0bffd17 	ldw	r2,-12(fp)
 3043254:	11000617 	ldw	r4,24(r2)
 3043258:	e17ff917 	ldw	r5,-28(fp)
 304325c:	30497280 	call	3049728 <__udivsi3>
 3043260:	e0bffa15 	stw	r2,-24(fp)
    Secter = pVol->FatEntrySecter + (ThisCluster*nFatEntrySize)/pVol->BPB_BytsPerSec;
 3043264:	e0bffd17 	ldw	r2,-12(fp)
 3043268:	14000d17 	ldw	r16,52(r2)
 304326c:	e0fff917 	ldw	r3,-28(fp)
 3043270:	e0bffe17 	ldw	r2,-8(fp)
 3043274:	1889383a 	mul	r4,r3,r2
 3043278:	e0bffd17 	ldw	r2,-12(fp)
 304327c:	11400617 	ldw	r5,24(r2)
 3043280:	30497280 	call	3049728 <__udivsi3>
 3043284:	8085883a 	add	r2,r16,r2
 3043288:	e0bff815 	stw	r2,-32(fp)
    //if (pVol->ReadBlock512(pVol->DiskHandle, Secter,szBlock)){
    if (fatReadSecter(pVol, Secter)){
 304328c:	e13ffd17 	ldw	r4,-12(fp)
 3043290:	e17ff817 	ldw	r5,-32(fp)
 3043294:	30440a80 	call	30440a8 <fatReadSecter>
 3043298:	1005003a 	cmpeq	r2,r2,zero
 304329c:	1000291e 	bne	r2,zero,3043344 <fatNextCluster+0x13c>
        if (pVol->Partition_Type == PARTITION_FAT32){
 30432a0:	e0bffd17 	ldw	r2,-12(fp)
 30432a4:	10800317 	ldw	r2,12(r2)
 30432a8:	108002d8 	cmpnei	r2,r2,11
 30432ac:	10000f1e 	bne	r2,zero,30432ec <fatNextCluster+0xe4>
            NextCluster = *(alt_u32*)(pVol->Secter_Data + (ThisCluster%nFatEntryPerSecter)*nFatEntrySize); 
 30432b0:	e0bffd17 	ldw	r2,-12(fp)
 30432b4:	14001004 	addi	r16,r2,64
 30432b8:	e17ffa17 	ldw	r5,-24(fp)
 30432bc:	e13ffe17 	ldw	r4,-8(fp)
 30432c0:	30497300 	call	3049730 <__umodsi3>
 30432c4:	1007883a 	mov	r3,r2
 30432c8:	e0bff917 	ldw	r2,-28(fp)
 30432cc:	1885383a 	mul	r2,r3,r2
 30432d0:	8085883a 	add	r2,r16,r2
 30432d4:	10800017 	ldw	r2,0(r2)
 30432d8:	e0bffb15 	stw	r2,-20(fp)
            ClusterType = fat32ClusterType(NextCluster);
 30432dc:	e13ffb17 	ldw	r4,-20(fp)
 30432e0:	30431340 	call	3043134 <fat32ClusterType>
 30432e4:	e0bffc15 	stw	r2,-16(fp)
 30432e8:	00000f06 	br	3043328 <fatNextCluster+0x120>
        }else{
            NextCluster = *(alt_u16 *)(pVol->Secter_Data + (ThisCluster%nFatEntryPerSecter)*nFatEntrySize); 
 30432ec:	e0bffd17 	ldw	r2,-12(fp)
 30432f0:	14001004 	addi	r16,r2,64
 30432f4:	e17ffa17 	ldw	r5,-24(fp)
 30432f8:	e13ffe17 	ldw	r4,-8(fp)
 30432fc:	30497300 	call	3049730 <__umodsi3>
 3043300:	1007883a 	mov	r3,r2
 3043304:	e0bff917 	ldw	r2,-28(fp)
 3043308:	1885383a 	mul	r2,r3,r2
 304330c:	8085883a 	add	r2,r16,r2
 3043310:	1080000b 	ldhu	r2,0(r2)
 3043314:	10bfffcc 	andi	r2,r2,65535
 3043318:	e0bffb15 	stw	r2,-20(fp)
            ClusterType = fat16ClusterType(NextCluster);
 304331c:	e13ffb17 	ldw	r4,-20(fp)
 3043320:	304307c0 	call	304307c <fat16ClusterType>
 3043324:	e0bffc15 	stw	r2,-16(fp)
        }    
        if (ClusterType != CLUSTER_NEXT_INFILE && ClusterType != CLUSTER_LAST_INFILE)
 3043328:	e0bffc17 	ldw	r2,-16(fp)
 304332c:	10800120 	cmpeqi	r2,r2,4
 3043330:	1000041e 	bne	r2,zero,3043344 <fatNextCluster+0x13c>
 3043334:	e0bffc17 	ldw	r2,-16(fp)
 3043338:	108000e0 	cmpeqi	r2,r2,3
 304333c:	1000011e 	bne	r2,zero,3043344 <fatNextCluster+0x13c>
            NextCluster = 0;  // invalid cluster
 3043340:	e03ffb15 	stw	zero,-20(fp)
    }                
    
    
    return NextCluster;
 3043344:	e0bffb17 	ldw	r2,-20(fp)

#endif    
    
    return NextCluster;
}
 3043348:	e037883a 	mov	sp,fp
 304334c:	dfc00217 	ldw	ra,8(sp)
 3043350:	df000117 	ldw	fp,4(sp)
 3043354:	dc000017 	ldw	r16,0(sp)
 3043358:	dec00304 	addi	sp,sp,12
 304335c:	f800283a 	ret

03043360 <fatFindUnusedCluster>:

alt_u32 fatFindUnusedCluster(VOLUME_INFO *pVol){
 3043360:	defff204 	addi	sp,sp,-56
 3043364:	dfc00d15 	stw	ra,52(sp)
 3043368:	df000c15 	stw	fp,48(sp)
 304336c:	dc000b15 	stw	r16,44(sp)
 3043370:	df000b04 	addi	fp,sp,44
 3043374:	e13ffe15 	stw	r4,-8(fp)
    CLUSTER_TYPE ClusterType;
    alt_u32 UnusedCluster=-1, ThisCluster = 2, ClusterEntryValue;
 3043378:	00bfffc4 	movi	r2,-1
 304337c:	e0bffc15 	stw	r2,-16(fp)
 3043380:	00800084 	movi	r2,2
 3043384:	e0bffb15 	stw	r2,-20(fp)
    void *pFatEntry;

    const alt_32 nFatEntrySize = (pVol->Partition_Type == PARTITION_FAT32)?4:2; // 2 byte for FAT16
 3043388:	e0bffe17 	ldw	r2,-8(fp)
 304338c:	10800317 	ldw	r2,12(r2)
 3043390:	108002d8 	cmpnei	r2,r2,11
 3043394:	1000031e 	bne	r2,zero,30433a4 <fatFindUnusedCluster+0x44>
 3043398:	00800104 	movi	r2,4
 304339c:	e0bfff15 	stw	r2,-4(fp)
 30433a0:	00000206 	br	30433ac <fatFindUnusedCluster+0x4c>
 30433a4:	00800084 	movi	r2,2
 30433a8:	e0bfff15 	stw	r2,-4(fp)
 30433ac:	e0bfff17 	ldw	r2,-4(fp)
 30433b0:	e0bff815 	stw	r2,-32(fp)
    const alt_32 nFatEntryPerSecter = pVol->BPB_BytsPerSec/nFatEntrySize;
 30433b4:	e0bffe17 	ldw	r2,-8(fp)
 30433b8:	11000617 	ldw	r4,24(r2)
 30433bc:	e17ff817 	ldw	r5,-32(fp)
 30433c0:	30497280 	call	3049728 <__udivsi3>
 30433c4:	e0bff715 	stw	r2,-36(fp)
    alt_u32 Secter;
    bool bDone = FALSE;
 30433c8:	e03ff515 	stw	zero,-44(fp)

    while(!bDone){     
 30433cc:	00003806 	br	30434b0 <fatFindUnusedCluster+0x150>
        Secter = pVol->FatEntrySecter + (ThisCluster*nFatEntrySize)/pVol->BPB_BytsPerSec;
 30433d0:	e0bffe17 	ldw	r2,-8(fp)
 30433d4:	14000d17 	ldw	r16,52(r2)
 30433d8:	e0fff817 	ldw	r3,-32(fp)
 30433dc:	e0bffb17 	ldw	r2,-20(fp)
 30433e0:	1889383a 	mul	r4,r3,r2
 30433e4:	e0bffe17 	ldw	r2,-8(fp)
 30433e8:	11400617 	ldw	r5,24(r2)
 30433ec:	30497280 	call	3049728 <__udivsi3>
 30433f0:	8085883a 	add	r2,r16,r2
 30433f4:	e0bff615 	stw	r2,-40(fp)
        if (fatReadSecter(pVol, Secter)){
 30433f8:	e13ffe17 	ldw	r4,-8(fp)
 30433fc:	e17ff617 	ldw	r5,-40(fp)
 3043400:	30440a80 	call	30440a8 <fatReadSecter>
 3043404:	1005003a 	cmpeq	r2,r2,zero
 3043408:	1000241e 	bne	r2,zero,304349c <fatFindUnusedCluster+0x13c>
            pFatEntry = (pVol->Secter_Data + (ThisCluster%nFatEntryPerSecter)*nFatEntrySize);
 304340c:	e0bffe17 	ldw	r2,-8(fp)
 3043410:	14001004 	addi	r16,r2,64
 3043414:	e17ff717 	ldw	r5,-36(fp)
 3043418:	e13ffb17 	ldw	r4,-20(fp)
 304341c:	30497300 	call	3049730 <__umodsi3>
 3043420:	1007883a 	mov	r3,r2
 3043424:	e0bff817 	ldw	r2,-32(fp)
 3043428:	1885383a 	mul	r2,r3,r2
 304342c:	8085883a 	add	r2,r16,r2
 3043430:	e0bff915 	stw	r2,-28(fp)
            if (pVol->Partition_Type == PARTITION_FAT32){
 3043434:	e0bffe17 	ldw	r2,-8(fp)
 3043438:	10800317 	ldw	r2,12(r2)
 304343c:	108002d8 	cmpnei	r2,r2,11
 3043440:	1000071e 	bne	r2,zero,3043460 <fatFindUnusedCluster+0x100>
                ClusterEntryValue = *(alt_u32*)pFatEntry; 
 3043444:	e0bff917 	ldw	r2,-28(fp)
 3043448:	10800017 	ldw	r2,0(r2)
 304344c:	e0bffa15 	stw	r2,-24(fp)
                ClusterType = fat32ClusterType(ClusterEntryValue);
 3043450:	e13ffa17 	ldw	r4,-24(fp)
 3043454:	30431340 	call	3043134 <fat32ClusterType>
 3043458:	e0bffd15 	stw	r2,-12(fp)
 304345c:	00000706 	br	304347c <fatFindUnusedCluster+0x11c>
            }else{
                ClusterEntryValue = *(alt_u16 *)pFatEntry; 
 3043460:	e0bff917 	ldw	r2,-28(fp)
 3043464:	1080000b 	ldhu	r2,0(r2)
 3043468:	10bfffcc 	andi	r2,r2,65535
 304346c:	e0bffa15 	stw	r2,-24(fp)
                ClusterType = fat16ClusterType(ClusterEntryValue);
 3043470:	e13ffa17 	ldw	r4,-24(fp)
 3043474:	304307c0 	call	304307c <fat16ClusterType>
 3043478:	e0bffd15 	stw	r2,-12(fp)
            }    
            if (ClusterType == CLUSTER_UNUSED){
 304347c:	e0bffd17 	ldw	r2,-12(fp)
 3043480:	1004c03a 	cmpne	r2,r2,zero
 3043484:	1000071e 	bne	r2,zero,30434a4 <fatFindUnusedCluster+0x144>
                UnusedCluster = ThisCluster;  // invalid cluster
 3043488:	e0bffb17 	ldw	r2,-20(fp)
 304348c:	e0bffc15 	stw	r2,-16(fp)
                bDone = TRUE;
 3043490:	00800044 	movi	r2,1
 3043494:	e0bff515 	stw	r2,-44(fp)
 3043498:	00000206 	br	30434a4 <fatFindUnusedCluster+0x144>
            }    
        }else{
            bDone = TRUE;
 304349c:	00800044 	movi	r2,1
 30434a0:	e0bff515 	stw	r2,-44(fp)
        }     
        ThisCluster++;           
 30434a4:	e0bffb17 	ldw	r2,-20(fp)
 30434a8:	10800044 	addi	r2,r2,1
 30434ac:	e0bffb15 	stw	r2,-20(fp)
    const alt_32 nFatEntrySize = (pVol->Partition_Type == PARTITION_FAT32)?4:2; // 2 byte for FAT16
    const alt_32 nFatEntryPerSecter = pVol->BPB_BytsPerSec/nFatEntrySize;
    alt_u32 Secter;
    bool bDone = FALSE;

    while(!bDone){     
 30434b0:	e0bff517 	ldw	r2,-44(fp)
 30434b4:	1005003a 	cmpeq	r2,r2,zero
 30434b8:	103fc51e 	bne	r2,zero,30433d0 <fatFindUnusedCluster+0x70>
            bDone = TRUE;
        }     
        ThisCluster++;           
    }                
    
    return UnusedCluster;
 30434bc:	e0bffc17 	ldw	r2,-16(fp)

}
 30434c0:	e037883a 	mov	sp,fp
 30434c4:	dfc00217 	ldw	ra,8(sp)
 30434c8:	df000117 	ldw	fp,4(sp)
 30434cc:	dc000017 	ldw	r16,0(sp)
 30434d0:	dec00304 	addi	sp,sp,12
 30434d4:	f800283a 	ret

030434d8 <fatDelClusterList>:


bool fatDelClusterList(VOLUME_INFO *pVol, alt_u32 StartCluster){
 30434d8:	defff104 	addi	sp,sp,-60
 30434dc:	dfc00e15 	stw	ra,56(sp)
 30434e0:	df000d15 	stw	fp,52(sp)
 30434e4:	dc000c15 	stw	r16,48(sp)
 30434e8:	df000c04 	addi	fp,sp,48
 30434ec:	e13ffd15 	stw	r4,-12(fp)
 30434f0:	e17ffe15 	stw	r5,-8(fp)
    CLUSTER_TYPE ClusterType;
    bool bSuccess = TRUE;
 30434f4:	00800044 	movi	r2,1
 30434f8:	e0bffb15 	stw	r2,-20(fp)
    bool bDone = FALSE;
 30434fc:	e03ffa15 	stw	zero,-24(fp)
    alt_u32 ClusterIndex, Secter, ClusterEntryValue;
    void *pFatEntryValue;
    
    
    const int nFatEntrySize = (pVol->Partition_Type == PARTITION_FAT32)?4:2; // 2 byte for FAT16
 3043500:	e0bffd17 	ldw	r2,-12(fp)
 3043504:	10800317 	ldw	r2,12(r2)
 3043508:	108002d8 	cmpnei	r2,r2,11
 304350c:	1000031e 	bne	r2,zero,304351c <fatDelClusterList+0x44>
 3043510:	00800104 	movi	r2,4
 3043514:	e0bfff15 	stw	r2,-4(fp)
 3043518:	00000206 	br	3043524 <fatDelClusterList+0x4c>
 304351c:	00800084 	movi	r2,2
 3043520:	e0bfff15 	stw	r2,-4(fp)
 3043524:	e0bfff17 	ldw	r2,-4(fp)
 3043528:	e0bff515 	stw	r2,-44(fp)
    const int nFatEntryPerSecter = pVol->BPB_BytsPerSec/nFatEntrySize;
 304352c:	e0bffd17 	ldw	r2,-12(fp)
 3043530:	11000617 	ldw	r4,24(r2)
 3043534:	e17ff517 	ldw	r5,-44(fp)
 3043538:	30497280 	call	3049728 <__udivsi3>
 304353c:	e0bff415 	stw	r2,-48(fp)
     
    ClusterIndex = StartCluster;
 3043540:	e0bffe17 	ldw	r2,-8(fp)
 3043544:	e0bff915 	stw	r2,-28(fp)
    while(bSuccess && !bDone){
 3043548:	00004f06 	br	3043688 <fatDelClusterList+0x1b0>
        // read FAT Table
        Secter = pVol->FatEntrySecter + (ClusterIndex*nFatEntrySize)/pVol->BPB_BytsPerSec;
 304354c:	e0bffd17 	ldw	r2,-12(fp)
 3043550:	14000d17 	ldw	r16,52(r2)
 3043554:	e0fff517 	ldw	r3,-44(fp)
 3043558:	e0bff917 	ldw	r2,-28(fp)
 304355c:	1889383a 	mul	r4,r3,r2
 3043560:	e0bffd17 	ldw	r2,-12(fp)
 3043564:	11400617 	ldw	r5,24(r2)
 3043568:	30497280 	call	3049728 <__udivsi3>
 304356c:	8085883a 	add	r2,r16,r2
 3043570:	e0bff815 	stw	r2,-32(fp)
        bSuccess = fatReadSecter(pVol, Secter);
 3043574:	e13ffd17 	ldw	r4,-12(fp)
 3043578:	e17ff817 	ldw	r5,-32(fp)
 304357c:	30440a80 	call	30440a8 <fatReadSecter>
 3043580:	e0bffb15 	stw	r2,-20(fp)
        if (bSuccess){
 3043584:	e0bffb17 	ldw	r2,-20(fp)
 3043588:	1005003a 	cmpeq	r2,r2,zero
 304358c:	10003e1e 	bne	r2,zero,3043688 <fatDelClusterList+0x1b0>
            // get the value of FAT entry
            pFatEntryValue = (pVol->Secter_Data + (ClusterIndex%nFatEntryPerSecter)*nFatEntrySize);
 3043590:	e0bffd17 	ldw	r2,-12(fp)
 3043594:	14001004 	addi	r16,r2,64
 3043598:	e17ff417 	ldw	r5,-48(fp)
 304359c:	e13ff917 	ldw	r4,-28(fp)
 30435a0:	30497300 	call	3049730 <__umodsi3>
 30435a4:	1007883a 	mov	r3,r2
 30435a8:	e0bff517 	ldw	r2,-44(fp)
 30435ac:	1885383a 	mul	r2,r3,r2
 30435b0:	8085883a 	add	r2,r16,r2
 30435b4:	e0bff615 	stw	r2,-40(fp)
            if (pVol->Partition_Type == PARTITION_FAT32){
 30435b8:	e0bffd17 	ldw	r2,-12(fp)
 30435bc:	10800317 	ldw	r2,12(r2)
 30435c0:	108002d8 	cmpnei	r2,r2,11
 30435c4:	1000071e 	bne	r2,zero,30435e4 <fatDelClusterList+0x10c>
                ClusterEntryValue = *(alt_u32 *)pFatEntryValue; 
 30435c8:	e0bff617 	ldw	r2,-40(fp)
 30435cc:	10800017 	ldw	r2,0(r2)
 30435d0:	e0bff715 	stw	r2,-36(fp)
                ClusterType = fat32ClusterType(ClusterEntryValue);
 30435d4:	e13ff717 	ldw	r4,-36(fp)
 30435d8:	30431340 	call	3043134 <fat32ClusterType>
 30435dc:	e0bffc15 	stw	r2,-16(fp)
 30435e0:	00000706 	br	3043600 <fatDelClusterList+0x128>
            }else{
                ClusterEntryValue = *(alt_u16 *)pFatEntryValue; //(pVol->Secter_Data + (ThisCluster%nFatEntryPerSecter)*nFatEntrySize); 
 30435e4:	e0bff617 	ldw	r2,-40(fp)
 30435e8:	1080000b 	ldhu	r2,0(r2)
 30435ec:	10bfffcc 	andi	r2,r2,65535
 30435f0:	e0bff715 	stw	r2,-36(fp)
                ClusterType = fat16ClusterType(ClusterEntryValue);
 30435f4:	e13ff717 	ldw	r4,-36(fp)
 30435f8:	304307c0 	call	304307c <fat16ClusterType>
 30435fc:	e0bffc15 	stw	r2,-16(fp)
            }
                
            if (ClusterType != CLUSTER_NEXT_INFILE && ClusterType != CLUSTER_LAST_INFILE){
 3043600:	e0bffc17 	ldw	r2,-16(fp)
 3043604:	10800120 	cmpeqi	r2,r2,4
 3043608:	1000071e 	bne	r2,zero,3043628 <fatDelClusterList+0x150>
 304360c:	e0bffc17 	ldw	r2,-16(fp)
 3043610:	108000e0 	cmpeqi	r2,r2,3
 3043614:	1000041e 	bne	r2,zero,3043628 <fatDelClusterList+0x150>
                bDone = TRUE;
 3043618:	00800044 	movi	r2,1
 304361c:	e0bffa15 	stw	r2,-24(fp)
                bSuccess = FALSE;
 3043620:	e03ffb15 	stw	zero,-20(fp)
            }else{
                ClusterEntryValue = *(alt_u16 *)pFatEntryValue; //(pVol->Secter_Data + (ThisCluster%nFatEntryPerSecter)*nFatEntrySize); 
                ClusterType = fat16ClusterType(ClusterEntryValue);
            }
                
            if (ClusterType != CLUSTER_NEXT_INFILE && ClusterType != CLUSTER_LAST_INFILE){
 3043624:	00001806 	br	3043688 <fatDelClusterList+0x1b0>
                bDone = TRUE;
                bSuccess = FALSE;
            }else{
                if (ClusterType == CLUSTER_LAST_INFILE)
 3043628:	e0bffc17 	ldw	r2,-16(fp)
 304362c:	108000d8 	cmpnei	r2,r2,3
 3043630:	1000021e 	bne	r2,zero,304363c <fatDelClusterList+0x164>
                    bDone = TRUE; // the last cluster
 3043634:	00800044 	movi	r2,1
 3043638:	e0bffa15 	stw	r2,-24(fp)
                // update
                if (pVol->Partition_Type == PARTITION_FAT32)
 304363c:	e0bffd17 	ldw	r2,-12(fp)
 3043640:	10800317 	ldw	r2,12(r2)
 3043644:	108002d8 	cmpnei	r2,r2,11
 3043648:	1000031e 	bne	r2,zero,3043658 <fatDelClusterList+0x180>
                    *(alt_u32 *)pFatEntryValue = CLUSTER_UNUSED;
 304364c:	e0bff617 	ldw	r2,-40(fp)
 3043650:	10000015 	stw	zero,0(r2)
 3043654:	00000206 	br	3043660 <fatDelClusterList+0x188>
                else 
                    *(alt_u16 *)pFatEntryValue = CLUSTER_UNUSED;
 3043658:	e0bff617 	ldw	r2,-40(fp)
 304365c:	1000000d 	sth	zero,0(r2)
                //write back FAT Table
                bSuccess = pVol->WriteBlock512(pVol->DiskHandle, pVol->Secter_Index, pVol->Secter_Data);
 3043660:	e0bffd17 	ldw	r2,-12(fp)
 3043664:	10c00217 	ldw	r3,8(r2)
 3043668:	e0bffd17 	ldw	r2,-12(fp)
 304366c:	11000017 	ldw	r4,0(r2)
 3043670:	e0bffd17 	ldw	r2,-12(fp)
 3043674:	11409017 	ldw	r5,576(r2)
 3043678:	e0bffd17 	ldw	r2,-12(fp)
 304367c:	11801004 	addi	r6,r2,64
 3043680:	183ee83a 	callr	r3
 3043684:	e0bffb15 	stw	r2,-20(fp)
    
    const int nFatEntrySize = (pVol->Partition_Type == PARTITION_FAT32)?4:2; // 2 byte for FAT16
    const int nFatEntryPerSecter = pVol->BPB_BytsPerSec/nFatEntrySize;
     
    ClusterIndex = StartCluster;
    while(bSuccess && !bDone){
 3043688:	e0bffb17 	ldw	r2,-20(fp)
 304368c:	1005003a 	cmpeq	r2,r2,zero
 3043690:	1000031e 	bne	r2,zero,30436a0 <fatDelClusterList+0x1c8>
 3043694:	e0bffa17 	ldw	r2,-24(fp)
 3043698:	1005003a 	cmpeq	r2,r2,zero
 304369c:	103fab1e 	bne	r2,zero,304354c <fatDelClusterList+0x74>
            }    
        }                
    }  // while                
    
    
    return bSuccess;
 30436a0:	e0bffb17 	ldw	r2,-20(fp)

}
 30436a4:	e037883a 	mov	sp,fp
 30436a8:	dfc00217 	ldw	ra,8(sp)
 30436ac:	df000117 	ldw	fp,4(sp)
 30436b0:	dc000017 	ldw	r16,0(sp)
 30436b4:	dec00304 	addi	sp,sp,12
 30436b8:	f800283a 	ret

030436bc <fatDumpDate>:


void fatDumpDate(unsigned short Date){
 30436bc:	defffa04 	addi	sp,sp,-24
 30436c0:	dfc00515 	stw	ra,20(sp)
 30436c4:	df000415 	stw	fp,16(sp)
 30436c8:	df000404 	addi	fp,sp,16
 30436cc:	e13fff0d 	sth	r4,-4(fp)
    int Year, Month, Day;
    Year = ((Date >> 9) & 0x1F) + 1980;
 30436d0:	e0bfff0b 	ldhu	r2,-4(fp)
 30436d4:	1004d27a 	srli	r2,r2,9
 30436d8:	10bfffcc 	andi	r2,r2,65535
 30436dc:	108007cc 	andi	r2,r2,31
 30436e0:	1081ef04 	addi	r2,r2,1980
 30436e4:	e0bffe15 	stw	r2,-8(fp)
    Month = ((Date >> 5) & 0xF);
 30436e8:	e0bfff0b 	ldhu	r2,-4(fp)
 30436ec:	1004d17a 	srli	r2,r2,5
 30436f0:	10bfffcc 	andi	r2,r2,65535
 30436f4:	108003cc 	andi	r2,r2,15
 30436f8:	e0bffd15 	stw	r2,-12(fp)
    Day = ((Date >> 0) & 0x1F);
 30436fc:	e0bfff0b 	ldhu	r2,-4(fp)
 3043700:	108007cc 	andi	r2,r2,31
 3043704:	e0bffc15 	stw	r2,-16(fp)
    FAT_DEBUG(("%d,%d,%d", Year, Month, Day)); 
 3043708:	0100c1b4 	movhi	r4,774
 304370c:	212c3c04 	addi	r4,r4,-20240
 3043710:	30468500 	call	3046850 <myprintf>
 3043714:	0100c1b4 	movhi	r4,774
 3043718:	212c3e04 	addi	r4,r4,-20232
 304371c:	e17ffe17 	ldw	r5,-8(fp)
 3043720:	e1bffd17 	ldw	r6,-12(fp)
 3043724:	e1fffc17 	ldw	r7,-16(fp)
 3043728:	30468500 	call	3046850 <myprintf>
}
 304372c:	e037883a 	mov	sp,fp
 3043730:	dfc00117 	ldw	ra,4(sp)
 3043734:	df000017 	ldw	fp,0(sp)
 3043738:	dec00204 	addi	sp,sp,8
 304373c:	f800283a 	ret

03043740 <fatDumpTime>:

void fatDumpTime(unsigned short Date){
 3043740:	defffa04 	addi	sp,sp,-24
 3043744:	dfc00515 	stw	ra,20(sp)
 3043748:	df000415 	stw	fp,16(sp)
 304374c:	df000404 	addi	fp,sp,16
 3043750:	e13fff0d 	sth	r4,-4(fp)
    int H,M,S;
    H = ((Date >> 9) & 0x1F);
 3043754:	e0bfff0b 	ldhu	r2,-4(fp)
 3043758:	1004d27a 	srli	r2,r2,9
 304375c:	10bfffcc 	andi	r2,r2,65535
 3043760:	108007cc 	andi	r2,r2,31
 3043764:	e0bffe15 	stw	r2,-8(fp)
    M = ((Date >> 5) & 0x3F);
 3043768:	e0bfff0b 	ldhu	r2,-4(fp)
 304376c:	1004d17a 	srli	r2,r2,5
 3043770:	10bfffcc 	andi	r2,r2,65535
 3043774:	10800fcc 	andi	r2,r2,63
 3043778:	e0bffd15 	stw	r2,-12(fp)
    S = ((Date >> 0) & 0x1F)*2;
 304377c:	e0bfff0b 	ldhu	r2,-4(fp)
 3043780:	108007cc 	andi	r2,r2,31
 3043784:	1085883a 	add	r2,r2,r2
 3043788:	e0bffc15 	stw	r2,-16(fp)
    FAT_DEBUG(("%d:%d:%d", H, M, S));     
 304378c:	0100c1b4 	movhi	r4,774
 3043790:	212c3c04 	addi	r4,r4,-20240
 3043794:	30468500 	call	3046850 <myprintf>
 3043798:	0100c1b4 	movhi	r4,774
 304379c:	212c4104 	addi	r4,r4,-20220
 30437a0:	e17ffe17 	ldw	r5,-8(fp)
 30437a4:	e1bffd17 	ldw	r6,-12(fp)
 30437a8:	e1fffc17 	ldw	r7,-16(fp)
 30437ac:	30468500 	call	3046850 <myprintf>
}
 30437b0:	e037883a 	mov	sp,fp
 30437b4:	dfc00117 	ldw	ra,4(sp)
 30437b8:	df000017 	ldw	fp,0(sp)
 30437bc:	dec00204 	addi	sp,sp,8
 30437c0:	f800283a 	ret

030437c4 <fatIsLastDir>:

bool fatIsLastDir(FAT_DIRECTORY *pDir){
 30437c4:	defffd04 	addi	sp,sp,-12
 30437c8:	df000215 	stw	fp,8(sp)
 30437cc:	df000204 	addi	fp,sp,8
 30437d0:	e13ffe15 	stw	r4,-8(fp)
    if (pDir->Name[0] == REMAINED_UNUSED_DIR_ENTRY)  // 0x00
 30437d4:	e0bffe17 	ldw	r2,-8(fp)
 30437d8:	10800003 	ldbu	r2,0(r2)
 30437dc:	10803fcc 	andi	r2,r2,255
 30437e0:	1080201c 	xori	r2,r2,128
 30437e4:	10bfe004 	addi	r2,r2,-128
 30437e8:	1004c03a 	cmpne	r2,r2,zero
 30437ec:	1000031e 	bne	r2,zero,30437fc <fatIsLastDir+0x38>
        return TRUE;
 30437f0:	00800044 	movi	r2,1
 30437f4:	e0bfff15 	stw	r2,-4(fp)
 30437f8:	00000106 	br	3043800 <fatIsLastDir+0x3c>
    return FALSE;        
 30437fc:	e03fff15 	stw	zero,-4(fp)
 3043800:	e0bfff17 	ldw	r2,-4(fp)
}
 3043804:	e037883a 	mov	sp,fp
 3043808:	df000017 	ldw	fp,0(sp)
 304380c:	dec00104 	addi	sp,sp,4
 3043810:	f800283a 	ret

03043814 <fatIsValidDir>:


bool fatIsValidDir(FAT_DIRECTORY *pDir){
 3043814:	defff604 	addi	sp,sp,-40
 3043818:	dfc00915 	stw	ra,36(sp)
 304381c:	df000815 	stw	fp,32(sp)
 3043820:	df000804 	addi	fp,sp,32
 3043824:	e13ffe15 	stw	r4,-8(fp)
    char szTest[] = {0x00, 0xE5, 0x22, 0x2A, 0x2B, 0x2C, 0x2E, 0x2F, 0x3A, 0x3B, 0x3C, 0x3E, 0x3F, 0x5B, 0x5C, 0x5D, 0x7C};
 3043828:	0080c1b4 	movhi	r2,774
 304382c:	10ac4344 	addi	r2,r2,-20211
 3043830:	e13ff904 	addi	r4,fp,-28
 3043834:	100b883a 	mov	r5,r2
 3043838:	01800444 	movi	r6,17
 304383c:	304ba800 	call	304ba80 <memcpy>
    int i;
    
    for(i=0;i<sizeof(szTest)/sizeof(szTest[0]);i++){
 3043840:	e03ff815 	stw	zero,-32(fp)
 3043844:	00001206 	br	3043890 <fatIsValidDir+0x7c>
        if (pDir->Name[0] == szTest[i]){
 3043848:	e0bffe17 	ldw	r2,-8(fp)
 304384c:	11000003 	ldbu	r4,0(r2)
 3043850:	e0fff817 	ldw	r3,-32(fp)
 3043854:	e0bff904 	addi	r2,fp,-28
 3043858:	10c5883a 	add	r2,r2,r3
 304385c:	10800003 	ldbu	r2,0(r2)
 3043860:	20c03fcc 	andi	r3,r4,255
 3043864:	18c0201c 	xori	r3,r3,128
 3043868:	18ffe004 	addi	r3,r3,-128
 304386c:	10803fcc 	andi	r2,r2,255
 3043870:	1080201c 	xori	r2,r2,128
 3043874:	10bfe004 	addi	r2,r2,-128
 3043878:	1880021e 	bne	r3,r2,3043884 <fatIsValidDir+0x70>
            return FALSE;
 304387c:	e03fff15 	stw	zero,-4(fp)
 3043880:	00000806 	br	30438a4 <fatIsValidDir+0x90>

bool fatIsValidDir(FAT_DIRECTORY *pDir){
    char szTest[] = {0x00, 0xE5, 0x22, 0x2A, 0x2B, 0x2C, 0x2E, 0x2F, 0x3A, 0x3B, 0x3C, 0x3E, 0x3F, 0x5B, 0x5C, 0x5D, 0x7C};
    int i;
    
    for(i=0;i<sizeof(szTest)/sizeof(szTest[0]);i++){
 3043884:	e0bff817 	ldw	r2,-32(fp)
 3043888:	10800044 	addi	r2,r2,1
 304388c:	e0bff815 	stw	r2,-32(fp)
 3043890:	e0bff817 	ldw	r2,-32(fp)
 3043894:	10800470 	cmpltui	r2,r2,17
 3043898:	103feb1e 	bne	r2,zero,3043848 <fatIsValidDir+0x34>
        if (pDir->Name[0] == szTest[i]){
            return FALSE;
        }
    }    
    return TRUE;
 304389c:	00800044 	movi	r2,1
 30438a0:	e0bfff15 	stw	r2,-4(fp)
 30438a4:	e0bfff17 	ldw	r2,-4(fp)
    
}
 30438a8:	e037883a 	mov	sp,fp
 30438ac:	dfc00117 	ldw	ra,4(sp)
 30438b0:	df000017 	ldw	fp,0(sp)
 30438b4:	dec00204 	addi	sp,sp,8
 30438b8:	f800283a 	ret

030438bc <fatIsUnusedDir>:

bool fatIsUnusedDir(FAT_DIRECTORY *pDir){
 30438bc:	defffd04 	addi	sp,sp,-12
 30438c0:	df000215 	stw	fp,8(sp)
 30438c4:	df000204 	addi	fp,sp,8
 30438c8:	e13ffe15 	stw	r4,-8(fp)
    if (pDir->Name[0] == (alt_8)UNUSED_DIR_ENTRY)
 30438cc:	e0bffe17 	ldw	r2,-8(fp)
 30438d0:	10800003 	ldbu	r2,0(r2)
 30438d4:	10803fcc 	andi	r2,r2,255
 30438d8:	1080201c 	xori	r2,r2,128
 30438dc:	10bfe004 	addi	r2,r2,-128
 30438e0:	10bff958 	cmpnei	r2,r2,-27
 30438e4:	1000031e 	bne	r2,zero,30438f4 <fatIsUnusedDir+0x38>
        return TRUE;
 30438e8:	00800044 	movi	r2,1
 30438ec:	e0bfff15 	stw	r2,-4(fp)
 30438f0:	00000106 	br	30438f8 <fatIsUnusedDir+0x3c>
    return FALSE; 
 30438f4:	e03fff15 	stw	zero,-4(fp)
 30438f8:	e0bfff17 	ldw	r2,-4(fp)
}
 30438fc:	e037883a 	mov	sp,fp
 3043900:	df000017 	ldw	fp,0(sp)
 3043904:	dec00104 	addi	sp,sp,4
 3043908:	f800283a 	ret

0304390c <fatDump>:

// debug
void fatDump(FAT_DIRECTORY *pDir){
 304390c:	defff304 	addi	sp,sp,-52
 3043910:	dfc00c15 	stw	ra,48(sp)
 3043914:	df000b15 	stw	fp,44(sp)
 3043918:	df000b04 	addi	fp,sp,44
 304391c:	e13fff15 	stw	r4,-4(fp)
    char szInvalidName[] = {0x22, 0x2A, 0x2B, 0x2C, 0x2E, 0x2F, 0x3A, 0x3B, 0x3C, 0x3E, 0x3F, 0x5B, 0x5C, 0x5D, 0x7C};
 3043920:	0080c1b4 	movhi	r2,774
 3043924:	10ac4784 	addi	r2,r2,-20194
 3043928:	e13ffb04 	addi	r4,fp,-20
 304392c:	100b883a 	mov	r5,r2
 3043930:	018003c4 	movi	r6,15
 3043934:	304ba800 	call	304ba80 <memcpy>
    int i;
    if (pDir->Name[0] == (char)0xE5){
 3043938:	e0bfff17 	ldw	r2,-4(fp)
 304393c:	10800003 	ldbu	r2,0(r2)
 3043940:	10803fcc 	andi	r2,r2,255
 3043944:	1080201c 	xori	r2,r2,128
 3043948:	10bfe004 	addi	r2,r2,-128
 304394c:	10bff958 	cmpnei	r2,r2,-27
 3043950:	1000071e 	bne	r2,zero,3043970 <fatDump+0x64>
        FAT_DEBUG(("the directory entry is free.\n"));
 3043954:	0100c1b4 	movhi	r4,774
 3043958:	212c3c04 	addi	r4,r4,-20240
 304395c:	30468500 	call	3046850 <myprintf>
 3043960:	0100c1b4 	movhi	r4,774
 3043964:	212c4c04 	addi	r4,r4,-20176
 3043968:	30468500 	call	3046850 <myprintf>
        return;
 304396c:	0001a606 	br	3044008 <fatDump+0x6fc>
    }
    if (pDir->Name[0] == 0x00){
 3043970:	e0bfff17 	ldw	r2,-4(fp)
 3043974:	10800003 	ldbu	r2,0(r2)
 3043978:	10803fcc 	andi	r2,r2,255
 304397c:	1080201c 	xori	r2,r2,128
 3043980:	10bfe004 	addi	r2,r2,-128
 3043984:	1004c03a 	cmpne	r2,r2,zero
 3043988:	1000071e 	bne	r2,zero,30439a8 <fatDump+0x9c>
        FAT_DEBUG(("the directory entry is free, and there are no allocated directory entries after tis one.\n"));
 304398c:	0100c1b4 	movhi	r4,774
 3043990:	212c3c04 	addi	r4,r4,-20240
 3043994:	30468500 	call	3046850 <myprintf>
 3043998:	0100c1b4 	movhi	r4,774
 304399c:	212c5404 	addi	r4,r4,-20144
 30439a0:	30468500 	call	3046850 <myprintf>
        return;
 30439a4:	00019806 	br	3044008 <fatDump+0x6fc>
    }
    
    if (pDir->Name[0] <= 0x20 && pDir->Name[0] != 0x05){
 30439a8:	e0bfff17 	ldw	r2,-4(fp)
 30439ac:	10800003 	ldbu	r2,0(r2)
 30439b0:	10803fcc 	andi	r2,r2,255
 30439b4:	1080201c 	xori	r2,r2,128
 30439b8:	10bfe004 	addi	r2,r2,-128
 30439bc:	10800848 	cmpgei	r2,r2,33
 30439c0:	10000e1e 	bne	r2,zero,30439fc <fatDump+0xf0>
 30439c4:	e0bfff17 	ldw	r2,-4(fp)
 30439c8:	10800003 	ldbu	r2,0(r2)
 30439cc:	10803fcc 	andi	r2,r2,255
 30439d0:	1080201c 	xori	r2,r2,128
 30439d4:	10bfe004 	addi	r2,r2,-128
 30439d8:	10800160 	cmpeqi	r2,r2,5
 30439dc:	1000071e 	bne	r2,zero,30439fc <fatDump+0xf0>
        FAT_DEBUG(("Invalid file name.\n"));
 30439e0:	0100c1b4 	movhi	r4,774
 30439e4:	212c3c04 	addi	r4,r4,-20240
 30439e8:	30468500 	call	3046850 <myprintf>
 30439ec:	0100c1b4 	movhi	r4,774
 30439f0:	212c6b04 	addi	r4,r4,-20052
 30439f4:	30468500 	call	3046850 <myprintf>
        return;
 30439f8:	00018306 	br	3044008 <fatDump+0x6fc>
    }
    
    for(i=0;i<sizeof(szInvalidName)/sizeof(szInvalidName[0]);i++){
 30439fc:	e03ffa15 	stw	zero,-24(fp)
 3043a00:	00001706 	br	3043a60 <fatDump+0x154>
        if (pDir->Name[0] == szInvalidName[i]){
 3043a04:	e0bfff17 	ldw	r2,-4(fp)
 3043a08:	11000003 	ldbu	r4,0(r2)
 3043a0c:	e0fffa17 	ldw	r3,-24(fp)
 3043a10:	e0bffb04 	addi	r2,fp,-20
 3043a14:	10c5883a 	add	r2,r2,r3
 3043a18:	10800003 	ldbu	r2,0(r2)
 3043a1c:	20c03fcc 	andi	r3,r4,255
 3043a20:	18c0201c 	xori	r3,r3,128
 3043a24:	18ffe004 	addi	r3,r3,-128
 3043a28:	10803fcc 	andi	r2,r2,255
 3043a2c:	1080201c 	xori	r2,r2,128
 3043a30:	10bfe004 	addi	r2,r2,-128
 3043a34:	1880071e 	bne	r3,r2,3043a54 <fatDump+0x148>
            FAT_DEBUG(("Invalid file name.\n"));
 3043a38:	0100c1b4 	movhi	r4,774
 3043a3c:	212c3c04 	addi	r4,r4,-20240
 3043a40:	30468500 	call	3046850 <myprintf>
 3043a44:	0100c1b4 	movhi	r4,774
 3043a48:	212c6b04 	addi	r4,r4,-20052
 3043a4c:	30468500 	call	3046850 <myprintf>
            return;
 3043a50:	00016d06 	br	3044008 <fatDump+0x6fc>
    if (pDir->Name[0] <= 0x20 && pDir->Name[0] != 0x05){
        FAT_DEBUG(("Invalid file name.\n"));
        return;
    }
    
    for(i=0;i<sizeof(szInvalidName)/sizeof(szInvalidName[0]);i++){
 3043a54:	e0bffa17 	ldw	r2,-24(fp)
 3043a58:	10800044 	addi	r2,r2,1
 3043a5c:	e0bffa15 	stw	r2,-24(fp)
 3043a60:	e0bffa17 	ldw	r2,-24(fp)
 3043a64:	108003f0 	cmpltui	r2,r2,15
 3043a68:	103fe61e 	bne	r2,zero,3043a04 <fatDump+0xf8>
            return;
        }
    }    
    
    //printf("sizeof(FAT_TABLE):%d\n", (int)sizeof(FAT_TABLE));
    if (pDir->Name[0] == 0x05){
 3043a6c:	e0bfff17 	ldw	r2,-4(fp)
 3043a70:	10800003 	ldbu	r2,0(r2)
 3043a74:	10803fcc 	andi	r2,r2,255
 3043a78:	1080201c 	xori	r2,r2,128
 3043a7c:	10bfe004 	addi	r2,r2,-128
 3043a80:	10800158 	cmpnei	r2,r2,5
 3043a84:	1000301e 	bne	r2,zero,3043b48 <fatDump+0x23c>
        FAT_DEBUG(("Name:%c%c%c%c%c%c%c%c\n", 0xE5,pDir->Name[1],pDir->Name[2],pDir->Name[3],pDir->Name[4],pDir->Name[5],pDir->Name[6],pDir->Name[6]));
 3043a88:	0100c1b4 	movhi	r4,774
 3043a8c:	212c3c04 	addi	r4,r4,-20240
 3043a90:	30468500 	call	3046850 <myprintf>
 3043a94:	e0bfff17 	ldw	r2,-4(fp)
 3043a98:	10800043 	ldbu	r2,1(r2)
 3043a9c:	11803fcc 	andi	r6,r2,255
 3043aa0:	3180201c 	xori	r6,r6,128
 3043aa4:	31bfe004 	addi	r6,r6,-128
 3043aa8:	e0bfff17 	ldw	r2,-4(fp)
 3043aac:	10800083 	ldbu	r2,2(r2)
 3043ab0:	11c03fcc 	andi	r7,r2,255
 3043ab4:	39c0201c 	xori	r7,r7,128
 3043ab8:	39ffe004 	addi	r7,r7,-128
 3043abc:	e0bfff17 	ldw	r2,-4(fp)
 3043ac0:	108000c3 	ldbu	r2,3(r2)
 3043ac4:	11403fcc 	andi	r5,r2,255
 3043ac8:	2940201c 	xori	r5,r5,128
 3043acc:	297fe004 	addi	r5,r5,-128
 3043ad0:	e0bfff17 	ldw	r2,-4(fp)
 3043ad4:	10800103 	ldbu	r2,4(r2)
 3043ad8:	12003fcc 	andi	r8,r2,255
 3043adc:	4200201c 	xori	r8,r8,128
 3043ae0:	423fe004 	addi	r8,r8,-128
 3043ae4:	e0bfff17 	ldw	r2,-4(fp)
 3043ae8:	10800143 	ldbu	r2,5(r2)
 3043aec:	10c03fcc 	andi	r3,r2,255
 3043af0:	18c0201c 	xori	r3,r3,128
 3043af4:	18ffe004 	addi	r3,r3,-128
 3043af8:	e0bfff17 	ldw	r2,-4(fp)
 3043afc:	10800183 	ldbu	r2,6(r2)
 3043b00:	11003fcc 	andi	r4,r2,255
 3043b04:	2100201c 	xori	r4,r4,128
 3043b08:	213fe004 	addi	r4,r4,-128
 3043b0c:	e0bfff17 	ldw	r2,-4(fp)
 3043b10:	10800183 	ldbu	r2,6(r2)
 3043b14:	10803fcc 	andi	r2,r2,255
 3043b18:	1080201c 	xori	r2,r2,128
 3043b1c:	10bfe004 	addi	r2,r2,-128
 3043b20:	d9400015 	stw	r5,0(sp)
 3043b24:	da000115 	stw	r8,4(sp)
 3043b28:	d8c00215 	stw	r3,8(sp)
 3043b2c:	d9000315 	stw	r4,12(sp)
 3043b30:	d8800415 	stw	r2,16(sp)
 3043b34:	0100c1b4 	movhi	r4,774
 3043b38:	212c7004 	addi	r4,r4,-20032
 3043b3c:	01403944 	movi	r5,229
 3043b40:	30468500 	call	3046850 <myprintf>
 3043b44:	00003306 	br	3043c14 <fatDump+0x308>
    }else{
        FAT_DEBUG(("Name:%c%c%c%c%c%c%c%c\n", pDir->Name[0],pDir->Name[1],pDir->Name[2],pDir->Name[3],pDir->Name[4],pDir->Name[5],pDir->Name[6],pDir->Name[6]));
 3043b48:	0100c1b4 	movhi	r4,774
 3043b4c:	212c3c04 	addi	r4,r4,-20240
 3043b50:	30468500 	call	3046850 <myprintf>
 3043b54:	e0bfff17 	ldw	r2,-4(fp)
 3043b58:	10800003 	ldbu	r2,0(r2)
 3043b5c:	11403fcc 	andi	r5,r2,255
 3043b60:	2940201c 	xori	r5,r5,128
 3043b64:	297fe004 	addi	r5,r5,-128
 3043b68:	e0bfff17 	ldw	r2,-4(fp)
 3043b6c:	10800043 	ldbu	r2,1(r2)
 3043b70:	11803fcc 	andi	r6,r2,255
 3043b74:	3180201c 	xori	r6,r6,128
 3043b78:	31bfe004 	addi	r6,r6,-128
 3043b7c:	e0bfff17 	ldw	r2,-4(fp)
 3043b80:	10800083 	ldbu	r2,2(r2)
 3043b84:	11c03fcc 	andi	r7,r2,255
 3043b88:	39c0201c 	xori	r7,r7,128
 3043b8c:	39ffe004 	addi	r7,r7,-128
 3043b90:	e0bfff17 	ldw	r2,-4(fp)
 3043b94:	108000c3 	ldbu	r2,3(r2)
 3043b98:	12003fcc 	andi	r8,r2,255
 3043b9c:	4200201c 	xori	r8,r8,128
 3043ba0:	423fe004 	addi	r8,r8,-128
 3043ba4:	e0bfff17 	ldw	r2,-4(fp)
 3043ba8:	10800103 	ldbu	r2,4(r2)
 3043bac:	12403fcc 	andi	r9,r2,255
 3043bb0:	4a40201c 	xori	r9,r9,128
 3043bb4:	4a7fe004 	addi	r9,r9,-128
 3043bb8:	e0bfff17 	ldw	r2,-4(fp)
 3043bbc:	10800143 	ldbu	r2,5(r2)
 3043bc0:	10c03fcc 	andi	r3,r2,255
 3043bc4:	18c0201c 	xori	r3,r3,128
 3043bc8:	18ffe004 	addi	r3,r3,-128
 3043bcc:	e0bfff17 	ldw	r2,-4(fp)
 3043bd0:	10800183 	ldbu	r2,6(r2)
 3043bd4:	11003fcc 	andi	r4,r2,255
 3043bd8:	2100201c 	xori	r4,r4,128
 3043bdc:	213fe004 	addi	r4,r4,-128
 3043be0:	e0bfff17 	ldw	r2,-4(fp)
 3043be4:	10800183 	ldbu	r2,6(r2)
 3043be8:	10803fcc 	andi	r2,r2,255
 3043bec:	1080201c 	xori	r2,r2,128
 3043bf0:	10bfe004 	addi	r2,r2,-128
 3043bf4:	da000015 	stw	r8,0(sp)
 3043bf8:	da400115 	stw	r9,4(sp)
 3043bfc:	d8c00215 	stw	r3,8(sp)
 3043c00:	d9000315 	stw	r4,12(sp)
 3043c04:	d8800415 	stw	r2,16(sp)
 3043c08:	0100c1b4 	movhi	r4,774
 3043c0c:	212c7004 	addi	r4,r4,-20032
 3043c10:	30468500 	call	3046850 <myprintf>
    }        
    FAT_DEBUG(("Extention:%c%c%c\n", pDir->Extension[0],pDir->Extension[1],pDir->Extension[2]));
 3043c14:	0100c1b4 	movhi	r4,774
 3043c18:	212c3c04 	addi	r4,r4,-20240
 3043c1c:	30468500 	call	3046850 <myprintf>
 3043c20:	e0bfff17 	ldw	r2,-4(fp)
 3043c24:	10800203 	ldbu	r2,8(r2)
 3043c28:	11403fcc 	andi	r5,r2,255
 3043c2c:	2940201c 	xori	r5,r5,128
 3043c30:	297fe004 	addi	r5,r5,-128
 3043c34:	e0bfff17 	ldw	r2,-4(fp)
 3043c38:	10800243 	ldbu	r2,9(r2)
 3043c3c:	11803fcc 	andi	r6,r2,255
 3043c40:	3180201c 	xori	r6,r6,128
 3043c44:	31bfe004 	addi	r6,r6,-128
 3043c48:	e0bfff17 	ldw	r2,-4(fp)
 3043c4c:	10800283 	ldbu	r2,10(r2)
 3043c50:	11c03fcc 	andi	r7,r2,255
 3043c54:	39c0201c 	xori	r7,r7,128
 3043c58:	39ffe004 	addi	r7,r7,-128
 3043c5c:	0100c1b4 	movhi	r4,774
 3043c60:	212c7604 	addi	r4,r4,-20008
 3043c64:	30468500 	call	3046850 <myprintf>
    FAT_DEBUG(("Attribute:%02Xh\n", pDir->Attribute));
 3043c68:	0100c1b4 	movhi	r4,774
 3043c6c:	212c3c04 	addi	r4,r4,-20240
 3043c70:	30468500 	call	3046850 <myprintf>
 3043c74:	e0bfff17 	ldw	r2,-4(fp)
 3043c78:	108002c3 	ldbu	r2,11(r2)
 3043c7c:	11403fcc 	andi	r5,r2,255
 3043c80:	2940201c 	xori	r5,r5,128
 3043c84:	297fe004 	addi	r5,r5,-128
 3043c88:	0100c1b4 	movhi	r4,774
 3043c8c:	212c7b04 	addi	r4,r4,-19988
 3043c90:	30468500 	call	3046850 <myprintf>
    if (pDir->Attribute & ATTR_READ_ONLY)
 3043c94:	e0bfff17 	ldw	r2,-4(fp)
 3043c98:	108002c3 	ldbu	r2,11(r2)
 3043c9c:	10803fcc 	andi	r2,r2,255
 3043ca0:	1080004c 	andi	r2,r2,1
 3043ca4:	10803fcc 	andi	r2,r2,255
 3043ca8:	1005003a 	cmpeq	r2,r2,zero
 3043cac:	1000061e 	bne	r2,zero,3043cc8 <fatDump+0x3bc>
        FAT_DEBUG(("  Read-Only\n"));
 3043cb0:	0100c1b4 	movhi	r4,774
 3043cb4:	212c3c04 	addi	r4,r4,-20240
 3043cb8:	30468500 	call	3046850 <myprintf>
 3043cbc:	0100c1b4 	movhi	r4,774
 3043cc0:	212c8004 	addi	r4,r4,-19968
 3043cc4:	30468500 	call	3046850 <myprintf>
    if (pDir->Attribute & ATTR_HIDDEN)
 3043cc8:	e0bfff17 	ldw	r2,-4(fp)
 3043ccc:	108002c3 	ldbu	r2,11(r2)
 3043cd0:	10803fcc 	andi	r2,r2,255
 3043cd4:	1080008c 	andi	r2,r2,2
 3043cd8:	1005003a 	cmpeq	r2,r2,zero
 3043cdc:	1000061e 	bne	r2,zero,3043cf8 <fatDump+0x3ec>
        FAT_DEBUG(("  Hidden\n"));
 3043ce0:	0100c1b4 	movhi	r4,774
 3043ce4:	212c3c04 	addi	r4,r4,-20240
 3043ce8:	30468500 	call	3046850 <myprintf>
 3043cec:	0100c1b4 	movhi	r4,774
 3043cf0:	212c8404 	addi	r4,r4,-19952
 3043cf4:	30468500 	call	3046850 <myprintf>
    if (pDir->Attribute & ATTR_SYSTEM)
 3043cf8:	e0bfff17 	ldw	r2,-4(fp)
 3043cfc:	108002c3 	ldbu	r2,11(r2)
 3043d00:	10803fcc 	andi	r2,r2,255
 3043d04:	1080010c 	andi	r2,r2,4
 3043d08:	1005003a 	cmpeq	r2,r2,zero
 3043d0c:	1000061e 	bne	r2,zero,3043d28 <fatDump+0x41c>
        FAT_DEBUG(("  System\n"));
 3043d10:	0100c1b4 	movhi	r4,774
 3043d14:	212c3c04 	addi	r4,r4,-20240
 3043d18:	30468500 	call	3046850 <myprintf>
 3043d1c:	0100c1b4 	movhi	r4,774
 3043d20:	212c8704 	addi	r4,r4,-19940
 3043d24:	30468500 	call	3046850 <myprintf>
    if (pDir->Attribute & ATTR_VOLUME_ID)
 3043d28:	e0bfff17 	ldw	r2,-4(fp)
 3043d2c:	108002c3 	ldbu	r2,11(r2)
 3043d30:	10803fcc 	andi	r2,r2,255
 3043d34:	1080020c 	andi	r2,r2,8
 3043d38:	1005003a 	cmpeq	r2,r2,zero
